GAS LISTING C:\Users\kasie\AppData\Local\Temp\ccsLLl8U.s 			page 1


   1              		.file	"event_groups.c"
   2              		.option nopic
   3              		.attribute arch, "rv32i2p0_m2p0_a2p0_c2p0"
   4              		.attribute unaligned_access, 0
   5              		.attribute stack_align, 16
   6              		.text
   7              	.Ltext0:
   8              		.cfi_sections	.debug_frame
   9              		.section	.text.xEventGroupCreate,"ax",@progbits
  10              		.align	1
  11              		.globl	xEventGroupCreate
  13              	xEventGroupCreate:
  14              	.LFB2:
  15              		.file 1 "lib/freertos/src/event_groups.c"
   1:lib/freertos/src/event_groups.c **** /*
   2:lib/freertos/src/event_groups.c ****     FreeRTOS V9.0.0 - Copyright (C) 2016 Real Time Engineers Ltd.
   3:lib/freertos/src/event_groups.c ****     All rights reserved
   4:lib/freertos/src/event_groups.c **** 
   5:lib/freertos/src/event_groups.c ****     VISIT http://www.FreeRTOS.org TO ENSURE YOU ARE USING THE LATEST VERSION.
   6:lib/freertos/src/event_groups.c **** 
   7:lib/freertos/src/event_groups.c ****     This file is part of the FreeRTOS distribution.
   8:lib/freertos/src/event_groups.c **** 
   9:lib/freertos/src/event_groups.c ****     FreeRTOS is free software; you can redistribute it and/or modify it under
  10:lib/freertos/src/event_groups.c ****     the terms of the GNU General Public License (version 2) as published by the
  11:lib/freertos/src/event_groups.c ****     Free Software Foundation >>>> AND MODIFIED BY <<<< the FreeRTOS exception.
  12:lib/freertos/src/event_groups.c **** 
  13:lib/freertos/src/event_groups.c ****     ***************************************************************************
  14:lib/freertos/src/event_groups.c ****     >>!   NOTE: The modification to the GPL is included to allow you to     !<<
  15:lib/freertos/src/event_groups.c ****     >>!   distribute a combined work that includes FreeRTOS without being   !<<
  16:lib/freertos/src/event_groups.c ****     >>!   obliged to provide the source code for proprietary components     !<<
  17:lib/freertos/src/event_groups.c ****     >>!   outside of the FreeRTOS kernel.                                   !<<
  18:lib/freertos/src/event_groups.c ****     ***************************************************************************
  19:lib/freertos/src/event_groups.c **** 
  20:lib/freertos/src/event_groups.c ****     FreeRTOS is distributed in the hope that it will be useful, but WITHOUT ANY
  21:lib/freertos/src/event_groups.c ****     WARRANTY; without even the implied warranty of MERCHANTABILITY or FITNESS
  22:lib/freertos/src/event_groups.c ****     FOR A PARTICULAR PURPOSE.  Full license text is available on the following
  23:lib/freertos/src/event_groups.c ****     link: http://www.freertos.org/a00114.html
  24:lib/freertos/src/event_groups.c **** 
  25:lib/freertos/src/event_groups.c ****     ***************************************************************************
  26:lib/freertos/src/event_groups.c ****      *                                                                       *
  27:lib/freertos/src/event_groups.c ****      *    FreeRTOS provides completely free yet professionally developed,    *
  28:lib/freertos/src/event_groups.c ****      *    robust, strictly quality controlled, supported, and cross          *
  29:lib/freertos/src/event_groups.c ****      *    platform software that is more than just the market leader, it     *
  30:lib/freertos/src/event_groups.c ****      *    is the industry's de facto standard.                               *
  31:lib/freertos/src/event_groups.c ****      *                                                                       *
  32:lib/freertos/src/event_groups.c ****      *    Help yourself get started quickly while simultaneously helping     *
  33:lib/freertos/src/event_groups.c ****      *    to support the FreeRTOS project by purchasing a FreeRTOS           *
  34:lib/freertos/src/event_groups.c ****      *    tutorial book, reference manual, or both:                          *
  35:lib/freertos/src/event_groups.c ****      *    http://www.FreeRTOS.org/Documentation                              *
  36:lib/freertos/src/event_groups.c ****      *                                                                       *
  37:lib/freertos/src/event_groups.c ****     ***************************************************************************
  38:lib/freertos/src/event_groups.c **** 
  39:lib/freertos/src/event_groups.c ****     http://www.FreeRTOS.org/FAQHelp.html - Having a problem?  Start by reading
  40:lib/freertos/src/event_groups.c ****     the FAQ page "My application does not run, what could be wrong?".  Have you
  41:lib/freertos/src/event_groups.c ****     defined configASSERT()?
  42:lib/freertos/src/event_groups.c **** 
  43:lib/freertos/src/event_groups.c ****     http://www.FreeRTOS.org/support - In return for receiving this top quality
GAS LISTING C:\Users\kasie\AppData\Local\Temp\ccsLLl8U.s 			page 2


  44:lib/freertos/src/event_groups.c ****     embedded software for free we request you assist our global community by
  45:lib/freertos/src/event_groups.c ****     participating in the support forum.
  46:lib/freertos/src/event_groups.c **** 
  47:lib/freertos/src/event_groups.c ****     http://www.FreeRTOS.org/training - Investing in training allows your team to
  48:lib/freertos/src/event_groups.c ****     be as productive as possible as early as possible.  Now you can receive
  49:lib/freertos/src/event_groups.c ****     FreeRTOS training directly from Richard Barry, CEO of Real Time Engineers
  50:lib/freertos/src/event_groups.c ****     Ltd, and the world's leading authority on the world's leading RTOS.
  51:lib/freertos/src/event_groups.c **** 
  52:lib/freertos/src/event_groups.c ****     http://www.FreeRTOS.org/plus - A selection of FreeRTOS ecosystem products,
  53:lib/freertos/src/event_groups.c ****     including FreeRTOS+Trace - an indispensable productivity tool, a DOS
  54:lib/freertos/src/event_groups.c ****     compatible FAT file system, and our tiny thread aware UDP/IP stack.
  55:lib/freertos/src/event_groups.c **** 
  56:lib/freertos/src/event_groups.c ****     http://www.FreeRTOS.org/labs - Where new FreeRTOS products go to incubate.
  57:lib/freertos/src/event_groups.c ****     Come and try FreeRTOS+TCP, our new open source TCP/IP stack for FreeRTOS.
  58:lib/freertos/src/event_groups.c **** 
  59:lib/freertos/src/event_groups.c ****     http://www.OpenRTOS.com - Real Time Engineers ltd. license FreeRTOS to High
  60:lib/freertos/src/event_groups.c ****     Integrity Systems ltd. to sell under the OpenRTOS brand.  Low cost OpenRTOS
  61:lib/freertos/src/event_groups.c ****     licenses offer ticketed support, indemnification and commercial middleware.
  62:lib/freertos/src/event_groups.c **** 
  63:lib/freertos/src/event_groups.c ****     http://www.SafeRTOS.com - High Integrity Systems also provide a safety
  64:lib/freertos/src/event_groups.c ****     engineered and independently SIL3 certified version for use in safety and
  65:lib/freertos/src/event_groups.c ****     mission critical applications that require provable dependability.
  66:lib/freertos/src/event_groups.c **** 
  67:lib/freertos/src/event_groups.c ****     1 tab == 4 spaces!
  68:lib/freertos/src/event_groups.c **** */
  69:lib/freertos/src/event_groups.c **** 
  70:lib/freertos/src/event_groups.c **** /* Standard includes. */
  71:lib/freertos/src/event_groups.c **** #include <stdlib.h>
  72:lib/freertos/src/event_groups.c **** 
  73:lib/freertos/src/event_groups.c **** /* Defining MPU_WRAPPERS_INCLUDED_FROM_API_FILE prevents task.h from redefining
  74:lib/freertos/src/event_groups.c **** all the API functions to use the MPU wrappers.  That should only be done when
  75:lib/freertos/src/event_groups.c **** task.h is included from an application file. */
  76:lib/freertos/src/event_groups.c **** #define MPU_WRAPPERS_INCLUDED_FROM_API_FILE
  77:lib/freertos/src/event_groups.c **** 
  78:lib/freertos/src/event_groups.c **** /* FreeRTOS includes. */
  79:lib/freertos/src/event_groups.c **** #include "FreeRTOS.h"
  80:lib/freertos/src/event_groups.c **** #include "task.h"
  81:lib/freertos/src/event_groups.c **** #include "timers.h"
  82:lib/freertos/src/event_groups.c **** #include "event_groups.h"
  83:lib/freertos/src/event_groups.c **** 
  84:lib/freertos/src/event_groups.c **** /* Lint e961 and e750 are suppressed as a MISRA exception justified because the
  85:lib/freertos/src/event_groups.c **** MPU ports require MPU_WRAPPERS_INCLUDED_FROM_API_FILE to be defined for the
  86:lib/freertos/src/event_groups.c **** header files above, but not in this file, in order to generate the correct
  87:lib/freertos/src/event_groups.c **** privileged Vs unprivileged linkage and placement. */
  88:lib/freertos/src/event_groups.c **** #undef MPU_WRAPPERS_INCLUDED_FROM_API_FILE /*lint !e961 !e750. */
  89:lib/freertos/src/event_groups.c **** 
  90:lib/freertos/src/event_groups.c **** /* The following bit fields convey control information in a task's event list
  91:lib/freertos/src/event_groups.c **** item value.  It is important they don't clash with the
  92:lib/freertos/src/event_groups.c **** taskEVENT_LIST_ITEM_VALUE_IN_USE definition. */
  93:lib/freertos/src/event_groups.c **** #if configUSE_16_BIT_TICKS == 1
  94:lib/freertos/src/event_groups.c **** 	#define eventCLEAR_EVENTS_ON_EXIT_BIT	0x0100U
  95:lib/freertos/src/event_groups.c **** 	#define eventUNBLOCKED_DUE_TO_BIT_SET	0x0200U
  96:lib/freertos/src/event_groups.c **** 	#define eventWAIT_FOR_ALL_BITS			0x0400U
  97:lib/freertos/src/event_groups.c **** 	#define eventEVENT_BITS_CONTROL_BYTES	0xff00U
  98:lib/freertos/src/event_groups.c **** #else
  99:lib/freertos/src/event_groups.c **** 	#define eventCLEAR_EVENTS_ON_EXIT_BIT	0x01000000UL
 100:lib/freertos/src/event_groups.c **** 	#define eventUNBLOCKED_DUE_TO_BIT_SET	0x02000000UL
GAS LISTING C:\Users\kasie\AppData\Local\Temp\ccsLLl8U.s 			page 3


 101:lib/freertos/src/event_groups.c **** 	#define eventWAIT_FOR_ALL_BITS			0x04000000UL
 102:lib/freertos/src/event_groups.c **** 	#define eventEVENT_BITS_CONTROL_BYTES	0xff000000UL
 103:lib/freertos/src/event_groups.c **** #endif
 104:lib/freertos/src/event_groups.c **** 
 105:lib/freertos/src/event_groups.c **** typedef struct xEventGroupDefinition
 106:lib/freertos/src/event_groups.c **** {
 107:lib/freertos/src/event_groups.c **** 	EventBits_t uxEventBits;
 108:lib/freertos/src/event_groups.c **** 	List_t xTasksWaitingForBits;		/*< List of tasks waiting for a bit to be set. */
 109:lib/freertos/src/event_groups.c **** 
 110:lib/freertos/src/event_groups.c **** 	#if( configUSE_TRACE_FACILITY == 1 )
 111:lib/freertos/src/event_groups.c **** 		UBaseType_t uxEventGroupNumber;
 112:lib/freertos/src/event_groups.c **** 	#endif
 113:lib/freertos/src/event_groups.c **** 
 114:lib/freertos/src/event_groups.c **** 	#if( ( configSUPPORT_STATIC_ALLOCATION == 1 ) && ( configSUPPORT_DYNAMIC_ALLOCATION == 1 ) )
 115:lib/freertos/src/event_groups.c **** 		uint8_t ucStaticallyAllocated; /*< Set to pdTRUE if the event group is statically allocated to en
 116:lib/freertos/src/event_groups.c **** 	#endif
 117:lib/freertos/src/event_groups.c **** } EventGroup_t;
 118:lib/freertos/src/event_groups.c **** 
 119:lib/freertos/src/event_groups.c **** /*-----------------------------------------------------------*/
 120:lib/freertos/src/event_groups.c **** 
 121:lib/freertos/src/event_groups.c **** /*
 122:lib/freertos/src/event_groups.c ****  * Test the bits set in uxCurrentEventBits to see if the wait condition is met.
 123:lib/freertos/src/event_groups.c ****  * The wait condition is defined by xWaitForAllBits.  If xWaitForAllBits is
 124:lib/freertos/src/event_groups.c ****  * pdTRUE then the wait condition is met if all the bits set in uxBitsToWaitFor
 125:lib/freertos/src/event_groups.c ****  * are also set in uxCurrentEventBits.  If xWaitForAllBits is pdFALSE then the
 126:lib/freertos/src/event_groups.c ****  * wait condition is met if any of the bits set in uxBitsToWait for are also set
 127:lib/freertos/src/event_groups.c ****  * in uxCurrentEventBits.
 128:lib/freertos/src/event_groups.c ****  */
 129:lib/freertos/src/event_groups.c **** static BaseType_t prvTestWaitCondition( const EventBits_t uxCurrentEventBits, const EventBits_t uxB
 130:lib/freertos/src/event_groups.c **** 
 131:lib/freertos/src/event_groups.c **** /*-----------------------------------------------------------*/
 132:lib/freertos/src/event_groups.c **** 
 133:lib/freertos/src/event_groups.c **** #if( configSUPPORT_STATIC_ALLOCATION == 1 )
 134:lib/freertos/src/event_groups.c **** 
 135:lib/freertos/src/event_groups.c **** 	EventGroupHandle_t xEventGroupCreateStatic( StaticEventGroup_t *pxEventGroupBuffer )
 136:lib/freertos/src/event_groups.c **** 	{
 137:lib/freertos/src/event_groups.c **** 	EventGroup_t *pxEventBits;
 138:lib/freertos/src/event_groups.c **** 
 139:lib/freertos/src/event_groups.c **** 		/* A StaticEventGroup_t object must be provided. */
 140:lib/freertos/src/event_groups.c **** 		configASSERT( pxEventGroupBuffer );
 141:lib/freertos/src/event_groups.c **** 
 142:lib/freertos/src/event_groups.c **** 		/* The user has provided a statically allocated event group - use it. */
 143:lib/freertos/src/event_groups.c **** 		pxEventBits = ( EventGroup_t * ) pxEventGroupBuffer; /*lint !e740 EventGroup_t and StaticEventGro
 144:lib/freertos/src/event_groups.c **** 
 145:lib/freertos/src/event_groups.c **** 		if( pxEventBits != NULL )
 146:lib/freertos/src/event_groups.c **** 		{
 147:lib/freertos/src/event_groups.c **** 			pxEventBits->uxEventBits = 0;
 148:lib/freertos/src/event_groups.c **** 			vListInitialise( &( pxEventBits->xTasksWaitingForBits ) );
 149:lib/freertos/src/event_groups.c **** 
 150:lib/freertos/src/event_groups.c **** 			#if( configSUPPORT_DYNAMIC_ALLOCATION == 1 )
 151:lib/freertos/src/event_groups.c **** 			{
 152:lib/freertos/src/event_groups.c **** 				/* Both static and dynamic allocation can be used, so note that
 153:lib/freertos/src/event_groups.c **** 				this event group was created statically in case the event group
 154:lib/freertos/src/event_groups.c **** 				is later deleted. */
 155:lib/freertos/src/event_groups.c **** 				pxEventBits->ucStaticallyAllocated = pdTRUE;
 156:lib/freertos/src/event_groups.c **** 			}
 157:lib/freertos/src/event_groups.c **** 			#endif /* configSUPPORT_DYNAMIC_ALLOCATION */
GAS LISTING C:\Users\kasie\AppData\Local\Temp\ccsLLl8U.s 			page 4


 158:lib/freertos/src/event_groups.c **** 
 159:lib/freertos/src/event_groups.c **** 			traceEVENT_GROUP_CREATE( pxEventBits );
 160:lib/freertos/src/event_groups.c **** 		}
 161:lib/freertos/src/event_groups.c **** 		else
 162:lib/freertos/src/event_groups.c **** 		{
 163:lib/freertos/src/event_groups.c **** 			traceEVENT_GROUP_CREATE_FAILED();
 164:lib/freertos/src/event_groups.c **** 		}
 165:lib/freertos/src/event_groups.c **** 
 166:lib/freertos/src/event_groups.c **** 		return ( EventGroupHandle_t ) pxEventBits;
 167:lib/freertos/src/event_groups.c **** 	}
 168:lib/freertos/src/event_groups.c **** 
 169:lib/freertos/src/event_groups.c **** #endif /* configSUPPORT_STATIC_ALLOCATION */
 170:lib/freertos/src/event_groups.c **** /*-----------------------------------------------------------*/
 171:lib/freertos/src/event_groups.c **** 
 172:lib/freertos/src/event_groups.c **** #if( configSUPPORT_DYNAMIC_ALLOCATION == 1 )
 173:lib/freertos/src/event_groups.c **** 
 174:lib/freertos/src/event_groups.c **** 	EventGroupHandle_t xEventGroupCreate( void )
 175:lib/freertos/src/event_groups.c **** 	{
  16              		.loc 1 175 2
  17              		.cfi_startproc
 176:lib/freertos/src/event_groups.c **** 	EventGroup_t *pxEventBits;
  18              		.loc 1 176 2
 177:lib/freertos/src/event_groups.c **** 
 178:lib/freertos/src/event_groups.c **** 		/* Allocate the event group. */
 179:lib/freertos/src/event_groups.c **** 		pxEventBits = ( EventGroup_t * ) pvPortMalloc( sizeof( EventGroup_t ) );
  19              		.loc 1 179 3
 175:lib/freertos/src/event_groups.c **** 	EventGroup_t *pxEventBits;
  20              		.loc 1 175 2 is_stmt 0
  21 0000 4111     		addi	sp,sp,-16
  22              	.LCFI0:
  23              		.cfi_def_cfa_offset 16
  24              		.loc 1 179 36
  25 0002 7145     		li	a0,28
 175:lib/freertos/src/event_groups.c **** 	EventGroup_t *pxEventBits;
  26              		.loc 1 175 2
  27 0004 22C4     		sw	s0,8(sp)
  28 0006 06C6     		sw	ra,12(sp)
  29              		.cfi_offset 8, -8
  30              		.cfi_offset 1, -4
  31              		.loc 1 179 36
  32 0008 97000000 		call	pvPortMalloc
  32      E7800000 
  33              	.LVL0:
  34 0010 2A84     		mv	s0,a0
  35              	.LVL1:
 180:lib/freertos/src/event_groups.c **** 
 181:lib/freertos/src/event_groups.c **** 		if( pxEventBits != NULL )
  36              		.loc 1 181 3 is_stmt 1
  37              		.loc 1 181 5 is_stmt 0
  38 0012 01C9     		beq	a0,zero,.L1
 182:lib/freertos/src/event_groups.c **** 		{
 183:lib/freertos/src/event_groups.c **** 			pxEventBits->uxEventBits = 0;
  39              		.loc 1 183 4 is_stmt 1
  40              		.loc 1 183 29 is_stmt 0
  41 0014 23200500 		sw	zero,0(a0)
 184:lib/freertos/src/event_groups.c **** 			vListInitialise( &( pxEventBits->xTasksWaitingForBits ) );
  42              		.loc 1 184 4 is_stmt 1
GAS LISTING C:\Users\kasie\AppData\Local\Temp\ccsLLl8U.s 			page 5


  43 0018 1105     		addi	a0,a0,4
  44 001a 97000000 		call	vListInitialise
  44      E7800000 
  45              	.LVL2:
 185:lib/freertos/src/event_groups.c **** 
 186:lib/freertos/src/event_groups.c **** 			#if( configSUPPORT_STATIC_ALLOCATION == 1 )
 187:lib/freertos/src/event_groups.c **** 			{
 188:lib/freertos/src/event_groups.c **** 				/* Both static and dynamic allocation can be used, so note this
 189:lib/freertos/src/event_groups.c **** 				event group was allocated statically in case the event group is
 190:lib/freertos/src/event_groups.c **** 				later deleted. */
 191:lib/freertos/src/event_groups.c **** 				pxEventBits->ucStaticallyAllocated = pdFALSE;
 192:lib/freertos/src/event_groups.c **** 			}
 193:lib/freertos/src/event_groups.c **** 			#endif /* configSUPPORT_STATIC_ALLOCATION */
 194:lib/freertos/src/event_groups.c **** 
 195:lib/freertos/src/event_groups.c **** 			traceEVENT_GROUP_CREATE( pxEventBits );
  46              		.loc 1 195 42
 196:lib/freertos/src/event_groups.c **** 		}
 197:lib/freertos/src/event_groups.c **** 		else
 198:lib/freertos/src/event_groups.c **** 		{
 199:lib/freertos/src/event_groups.c **** 			traceEVENT_GROUP_CREATE_FAILED();
  47              		.loc 1 199 36
 200:lib/freertos/src/event_groups.c **** 		}
 201:lib/freertos/src/event_groups.c **** 
 202:lib/freertos/src/event_groups.c **** 		return ( EventGroupHandle_t ) pxEventBits;
  48              		.loc 1 202 3
  49              	.L1:
 203:lib/freertos/src/event_groups.c **** 	}
  50              		.loc 1 203 2 is_stmt 0
  51 0022 2285     		mv	a0,s0
  52 0024 B240     		lw	ra,12(sp)
  53              		.cfi_restore 1
  54 0026 2244     		lw	s0,8(sp)
  55              		.cfi_restore 8
  56              	.LVL3:
  57 0028 4101     		addi	sp,sp,16
  58              	.LCFI1:
  59              		.cfi_def_cfa_offset 0
  60 002a 8280     		jr	ra
  61              		.cfi_endproc
  62              	.LFE2:
  64              		.section	.text.xEventGroupWaitBits,"ax",@progbits
  65              		.align	1
  66              		.globl	xEventGroupWaitBits
  68              	xEventGroupWaitBits:
  69              	.LFB4:
 204:lib/freertos/src/event_groups.c **** 
 205:lib/freertos/src/event_groups.c **** #endif /* configSUPPORT_DYNAMIC_ALLOCATION */
 206:lib/freertos/src/event_groups.c **** /*-----------------------------------------------------------*/
 207:lib/freertos/src/event_groups.c **** 
 208:lib/freertos/src/event_groups.c **** EventBits_t xEventGroupSync( EventGroupHandle_t xEventGroup, const EventBits_t uxBitsToSet, const E
 209:lib/freertos/src/event_groups.c **** {
 210:lib/freertos/src/event_groups.c **** EventBits_t uxOriginalBitValue, uxReturn;
 211:lib/freertos/src/event_groups.c **** EventGroup_t *pxEventBits = ( EventGroup_t * ) xEventGroup;
 212:lib/freertos/src/event_groups.c **** BaseType_t xAlreadyYielded;
 213:lib/freertos/src/event_groups.c **** BaseType_t xTimeoutOccurred = pdFALSE;
 214:lib/freertos/src/event_groups.c **** 
 215:lib/freertos/src/event_groups.c **** 	configASSERT( ( uxBitsToWaitFor & eventEVENT_BITS_CONTROL_BYTES ) == 0 );
GAS LISTING C:\Users\kasie\AppData\Local\Temp\ccsLLl8U.s 			page 6


 216:lib/freertos/src/event_groups.c **** 	configASSERT( uxBitsToWaitFor != 0 );
 217:lib/freertos/src/event_groups.c **** 	#if ( ( INCLUDE_xTaskGetSchedulerState == 1 ) || ( configUSE_TIMERS == 1 ) )
 218:lib/freertos/src/event_groups.c **** 	{
 219:lib/freertos/src/event_groups.c **** 		configASSERT( !( ( xTaskGetSchedulerState() == taskSCHEDULER_SUSPENDED ) && ( xTicksToWait != 0 )
 220:lib/freertos/src/event_groups.c **** 	}
 221:lib/freertos/src/event_groups.c **** 	#endif
 222:lib/freertos/src/event_groups.c **** 
 223:lib/freertos/src/event_groups.c **** 	vTaskSuspendAll();
 224:lib/freertos/src/event_groups.c **** 	{
 225:lib/freertos/src/event_groups.c **** 		uxOriginalBitValue = pxEventBits->uxEventBits;
 226:lib/freertos/src/event_groups.c **** 
 227:lib/freertos/src/event_groups.c **** 		( void ) xEventGroupSetBits( xEventGroup, uxBitsToSet );
 228:lib/freertos/src/event_groups.c **** 
 229:lib/freertos/src/event_groups.c **** 		if( ( ( uxOriginalBitValue | uxBitsToSet ) & uxBitsToWaitFor ) == uxBitsToWaitFor )
 230:lib/freertos/src/event_groups.c **** 		{
 231:lib/freertos/src/event_groups.c **** 			/* All the rendezvous bits are now set - no need to block. */
 232:lib/freertos/src/event_groups.c **** 			uxReturn = ( uxOriginalBitValue | uxBitsToSet );
 233:lib/freertos/src/event_groups.c **** 
 234:lib/freertos/src/event_groups.c **** 			/* Rendezvous always clear the bits.  They will have been cleared
 235:lib/freertos/src/event_groups.c **** 			already unless this is the only task in the rendezvous. */
 236:lib/freertos/src/event_groups.c **** 			pxEventBits->uxEventBits &= ~uxBitsToWaitFor;
 237:lib/freertos/src/event_groups.c **** 
 238:lib/freertos/src/event_groups.c **** 			xTicksToWait = 0;
 239:lib/freertos/src/event_groups.c **** 		}
 240:lib/freertos/src/event_groups.c **** 		else
 241:lib/freertos/src/event_groups.c **** 		{
 242:lib/freertos/src/event_groups.c **** 			if( xTicksToWait != ( TickType_t ) 0 )
 243:lib/freertos/src/event_groups.c **** 			{
 244:lib/freertos/src/event_groups.c **** 				traceEVENT_GROUP_SYNC_BLOCK( xEventGroup, uxBitsToSet, uxBitsToWaitFor );
 245:lib/freertos/src/event_groups.c **** 
 246:lib/freertos/src/event_groups.c **** 				/* Store the bits that the calling task is waiting for in the
 247:lib/freertos/src/event_groups.c **** 				task's event list item so the kernel knows when a match is
 248:lib/freertos/src/event_groups.c **** 				found.  Then enter the blocked state. */
 249:lib/freertos/src/event_groups.c **** 				vTaskPlaceOnUnorderedEventList( &( pxEventBits->xTasksWaitingForBits ), ( uxBitsToWaitFor | eve
 250:lib/freertos/src/event_groups.c **** 
 251:lib/freertos/src/event_groups.c **** 				/* This assignment is obsolete as uxReturn will get set after
 252:lib/freertos/src/event_groups.c **** 				the task unblocks, but some compilers mistakenly generate a
 253:lib/freertos/src/event_groups.c **** 				warning about uxReturn being returned without being set if the
 254:lib/freertos/src/event_groups.c **** 				assignment is omitted. */
 255:lib/freertos/src/event_groups.c **** 				uxReturn = 0;
 256:lib/freertos/src/event_groups.c **** 			}
 257:lib/freertos/src/event_groups.c **** 			else
 258:lib/freertos/src/event_groups.c **** 			{
 259:lib/freertos/src/event_groups.c **** 				/* The rendezvous bits were not set, but no block time was
 260:lib/freertos/src/event_groups.c **** 				specified - just return the current event bit value. */
 261:lib/freertos/src/event_groups.c **** 				uxReturn = pxEventBits->uxEventBits;
 262:lib/freertos/src/event_groups.c **** 			}
 263:lib/freertos/src/event_groups.c **** 		}
 264:lib/freertos/src/event_groups.c **** 	}
 265:lib/freertos/src/event_groups.c **** 	xAlreadyYielded = xTaskResumeAll();
 266:lib/freertos/src/event_groups.c **** 
 267:lib/freertos/src/event_groups.c **** 	if( xTicksToWait != ( TickType_t ) 0 )
 268:lib/freertos/src/event_groups.c **** 	{
 269:lib/freertos/src/event_groups.c **** 		if( xAlreadyYielded == pdFALSE )
 270:lib/freertos/src/event_groups.c **** 		{
 271:lib/freertos/src/event_groups.c **** 			portYIELD_WITHIN_API();
 272:lib/freertos/src/event_groups.c **** 		}
GAS LISTING C:\Users\kasie\AppData\Local\Temp\ccsLLl8U.s 			page 7


 273:lib/freertos/src/event_groups.c **** 		else
 274:lib/freertos/src/event_groups.c **** 		{
 275:lib/freertos/src/event_groups.c **** 			mtCOVERAGE_TEST_MARKER();
 276:lib/freertos/src/event_groups.c **** 		}
 277:lib/freertos/src/event_groups.c **** 
 278:lib/freertos/src/event_groups.c **** 		/* The task blocked to wait for its required bits to be set - at this
 279:lib/freertos/src/event_groups.c **** 		point either the required bits were set or the block time expired.  If
 280:lib/freertos/src/event_groups.c **** 		the required bits were set they will have been stored in the task's
 281:lib/freertos/src/event_groups.c **** 		event list item, and they should now be retrieved then cleared. */
 282:lib/freertos/src/event_groups.c **** 		uxReturn = uxTaskResetEventItemValue();
 283:lib/freertos/src/event_groups.c **** 
 284:lib/freertos/src/event_groups.c **** 		if( ( uxReturn & eventUNBLOCKED_DUE_TO_BIT_SET ) == ( EventBits_t ) 0 )
 285:lib/freertos/src/event_groups.c **** 		{
 286:lib/freertos/src/event_groups.c **** 			/* The task timed out, just return the current event bit value. */
 287:lib/freertos/src/event_groups.c **** 			taskENTER_CRITICAL();
 288:lib/freertos/src/event_groups.c **** 			{
 289:lib/freertos/src/event_groups.c **** 				uxReturn = pxEventBits->uxEventBits;
 290:lib/freertos/src/event_groups.c **** 
 291:lib/freertos/src/event_groups.c **** 				/* Although the task got here because it timed out before the
 292:lib/freertos/src/event_groups.c **** 				bits it was waiting for were set, it is possible that since it
 293:lib/freertos/src/event_groups.c **** 				unblocked another task has set the bits.  If this is the case
 294:lib/freertos/src/event_groups.c **** 				then it needs to clear the bits before exiting. */
 295:lib/freertos/src/event_groups.c **** 				if( ( uxReturn & uxBitsToWaitFor ) == uxBitsToWaitFor )
 296:lib/freertos/src/event_groups.c **** 				{
 297:lib/freertos/src/event_groups.c **** 					pxEventBits->uxEventBits &= ~uxBitsToWaitFor;
 298:lib/freertos/src/event_groups.c **** 				}
 299:lib/freertos/src/event_groups.c **** 				else
 300:lib/freertos/src/event_groups.c **** 				{
 301:lib/freertos/src/event_groups.c **** 					mtCOVERAGE_TEST_MARKER();
 302:lib/freertos/src/event_groups.c **** 				}
 303:lib/freertos/src/event_groups.c **** 			}
 304:lib/freertos/src/event_groups.c **** 			taskEXIT_CRITICAL();
 305:lib/freertos/src/event_groups.c **** 
 306:lib/freertos/src/event_groups.c **** 			xTimeoutOccurred = pdTRUE;
 307:lib/freertos/src/event_groups.c **** 		}
 308:lib/freertos/src/event_groups.c **** 		else
 309:lib/freertos/src/event_groups.c **** 		{
 310:lib/freertos/src/event_groups.c **** 			/* The task unblocked because the bits were set. */
 311:lib/freertos/src/event_groups.c **** 		}
 312:lib/freertos/src/event_groups.c **** 
 313:lib/freertos/src/event_groups.c **** 		/* Control bits might be set as the task had blocked should not be
 314:lib/freertos/src/event_groups.c **** 		returned. */
 315:lib/freertos/src/event_groups.c **** 		uxReturn &= ~eventEVENT_BITS_CONTROL_BYTES;
 316:lib/freertos/src/event_groups.c **** 	}
 317:lib/freertos/src/event_groups.c **** 
 318:lib/freertos/src/event_groups.c **** 	traceEVENT_GROUP_SYNC_END( xEventGroup, uxBitsToSet, uxBitsToWaitFor, xTimeoutOccurred );
 319:lib/freertos/src/event_groups.c **** 
 320:lib/freertos/src/event_groups.c **** 	return uxReturn;
 321:lib/freertos/src/event_groups.c **** }
 322:lib/freertos/src/event_groups.c **** /*-----------------------------------------------------------*/
 323:lib/freertos/src/event_groups.c **** 
 324:lib/freertos/src/event_groups.c **** EventBits_t xEventGroupWaitBits( EventGroupHandle_t xEventGroup, const EventBits_t uxBitsToWaitFor,
 325:lib/freertos/src/event_groups.c **** {
  70              		.loc 1 325 1 is_stmt 1
  71              		.cfi_startproc
  72              	.LVL4:
 326:lib/freertos/src/event_groups.c **** EventGroup_t *pxEventBits = ( EventGroup_t * ) xEventGroup;
GAS LISTING C:\Users\kasie\AppData\Local\Temp\ccsLLl8U.s 			page 8


  73              		.loc 1 326 1
 327:lib/freertos/src/event_groups.c **** EventBits_t uxReturn, uxControlBits = 0;
  74              		.loc 1 327 1
 328:lib/freertos/src/event_groups.c **** BaseType_t xWaitConditionMet, xAlreadyYielded;
  75              		.loc 1 328 1
 329:lib/freertos/src/event_groups.c **** BaseType_t xTimeoutOccurred = pdFALSE;
  76              		.loc 1 329 1
 330:lib/freertos/src/event_groups.c **** 
 331:lib/freertos/src/event_groups.c **** 	/* Check the user is not attempting to wait on the bits used by the kernel
 332:lib/freertos/src/event_groups.c **** 	itself, and that at least one bit is being requested. */
 333:lib/freertos/src/event_groups.c **** 	configASSERT( xEventGroup );
  77              		.loc 1 333 2
  78 0000 01E5     		bne	a0,zero,.L8
  79              		.loc 1 333 2 discriminator 3
  80              	.LBB16:
  81              		.loc 1 333 2 discriminator 3
  82              		.loc 1 333 2 discriminator 3
  83              		.loc 1 333 2 discriminator 3
  84              	 #APP
  85              	# 333 "lib/freertos/src/event_groups.c" 1
 334              		configASSERT( ( uxBitsToWaitFor & eventEVENT_BITS_CONTROL_BYTES ) == 0 );
  86              		csrrc a5, mstatus, 8
  87              	# 0 "" 2
  88              	.LVL5:
 333:lib/freertos/src/event_groups.c **** 	configASSERT( xEventGroup );
  89              		.loc 1 333 2 discriminator 3
  90              	 #NO_APP
  91              	.L9:
  92              	.LBE16:
 333:lib/freertos/src/event_groups.c **** 	configASSERT( xEventGroup );
  93              		.loc 1 333 2 discriminator 1
 333:lib/freertos/src/event_groups.c **** 	configASSERT( xEventGroup );
  94              		.loc 1 333 2 discriminator 1
 333:lib/freertos/src/event_groups.c **** 	configASSERT( xEventGroup );
  95              		.loc 1 333 2 discriminator 1
  96 0006 01A0     		j	.L9
  97              	.L8:
 333:lib/freertos/src/event_groups.c **** 	configASSERT( xEventGroup );
  98              		.loc 1 333 29 discriminator 2
  99              		.loc 1 334 2 discriminator 2
 325:lib/freertos/src/event_groups.c **** EventGroup_t *pxEventBits = ( EventGroup_t * ) xEventGroup;
 100              		.loc 1 325 1 is_stmt 0 discriminator 2
 101 0008 0111     		addi	sp,sp,-32
 102              	.LCFI2:
 103              		.cfi_def_cfa_offset 32
 104 000a 4AC8     		sw	s2,16(sp)
 105              		.cfi_offset 18, -16
 106              		.loc 1 334 2 discriminator 2
 107 000c 370900FF 		li	s2,-16777216
 325:lib/freertos/src/event_groups.c **** EventGroup_t *pxEventBits = ( EventGroup_t * ) xEventGroup;
 108              		.loc 1 325 1 discriminator 2
 109 0010 06CE     		sw	ra,28(sp)
 110 0012 22CC     		sw	s0,24(sp)
 111 0014 26CA     		sw	s1,20(sp)
 112 0016 4EC6     		sw	s3,12(sp)
 113 0018 52C4     		sw	s4,8(sp)
 114 001a 56C2     		sw	s5,4(sp)
GAS LISTING C:\Users\kasie\AppData\Local\Temp\ccsLLl8U.s 			page 9


 115 001c 5AC0     		sw	s6,0(sp)
 116              		.cfi_offset 1, -4
 117              		.cfi_offset 8, -8
 118              		.cfi_offset 9, -12
 119              		.cfi_offset 19, -20
 120              		.cfi_offset 20, -24
 121              		.cfi_offset 21, -28
 122              		.cfi_offset 22, -32
 123              		.loc 1 334 2 discriminator 2
 124 001e 33F92501 		and	s2,a1,s2
 125 0022 63050900 		beq	s2,zero,.L10
 126              		.loc 1 334 2 is_stmt 1 discriminator 3
 127              	.LBB17:
 128              		.loc 1 334 2 discriminator 3
 129              		.loc 1 334 2 discriminator 3
 130              		.loc 1 334 2 discriminator 3
 131              	 #APP
 132              	# 334 "lib/freertos/src/event_groups.c" 1
 335              		configASSERT( uxBitsToWaitFor != 0 );
 133              		csrrc a5, mstatus, 8
 134              	# 0 "" 2
 135              	.LVL6:
 334:lib/freertos/src/event_groups.c **** 	configASSERT( uxBitsToWaitFor != 0 );
 136              		.loc 1 334 2 discriminator 3
 137              	 #NO_APP
 138              	.L11:
 139              	.LBE17:
 334:lib/freertos/src/event_groups.c **** 	configASSERT( uxBitsToWaitFor != 0 );
 140              		.loc 1 334 2 discriminator 2
 334:lib/freertos/src/event_groups.c **** 	configASSERT( uxBitsToWaitFor != 0 );
 141              		.loc 1 334 2 discriminator 2
 334:lib/freertos/src/event_groups.c **** 	configASSERT( uxBitsToWaitFor != 0 );
 142              		.loc 1 334 2 discriminator 2
 143 002a 01A0     		j	.L11
 144              	.L10:
 334:lib/freertos/src/event_groups.c **** 	configASSERT( uxBitsToWaitFor != 0 );
 145              		.loc 1 334 74 discriminator 2
 146              		.loc 1 335 2 discriminator 2
 147 002c 81E5     		bne	a1,zero,.L12
 148              		.loc 1 335 2 discriminator 3
 149              	.LBB18:
 150              		.loc 1 335 2 discriminator 3
 151              		.loc 1 335 2 discriminator 3
 152              		.loc 1 335 2 discriminator 3
 153              	 #APP
 154              	# 335 "lib/freertos/src/event_groups.c" 1
 336              		#if ( ( INCLUDE_xTaskGetSchedulerState == 1 ) || ( configUSE_TIMERS == 1 ) )
 155              		csrrc a5, mstatus, 8
 156              	# 0 "" 2
 157              	.LVL7:
 335:lib/freertos/src/event_groups.c **** 	#if ( ( INCLUDE_xTaskGetSchedulerState == 1 ) || ( configUSE_TIMERS == 1 ) )
 158              		.loc 1 335 2 discriminator 3
 159              	 #NO_APP
 160              	.L13:
 161              	.LBE18:
 335:lib/freertos/src/event_groups.c **** 	#if ( ( INCLUDE_xTaskGetSchedulerState == 1 ) || ( configUSE_TIMERS == 1 ) )
 162              		.loc 1 335 2 discriminator 3
GAS LISTING C:\Users\kasie\AppData\Local\Temp\ccsLLl8U.s 			page 10


 335:lib/freertos/src/event_groups.c **** 	#if ( ( INCLUDE_xTaskGetSchedulerState == 1 ) || ( configUSE_TIMERS == 1 ) )
 163              		.loc 1 335 2 discriminator 3
 335:lib/freertos/src/event_groups.c **** 	#if ( ( INCLUDE_xTaskGetSchedulerState == 1 ) || ( configUSE_TIMERS == 1 ) )
 164              		.loc 1 335 2 discriminator 3
 165 0032 01A0     		j	.L13
 166              	.L12:
 167 0034 BA89     		mv	s3,a4
 168 0036 368B     		mv	s6,a3
 169 0038 B28A     		mv	s5,a2
 170 003a 2E84     		mv	s0,a1
 171 003c 2A8A     		mv	s4,a0
 335:lib/freertos/src/event_groups.c **** 	#if ( ( INCLUDE_xTaskGetSchedulerState == 1 ) || ( configUSE_TIMERS == 1 ) )
 172              		.loc 1 335 38 discriminator 2
 337:lib/freertos/src/event_groups.c **** 	{
 338:lib/freertos/src/event_groups.c **** 		configASSERT( !( ( xTaskGetSchedulerState() == taskSCHEDULER_SUSPENDED ) && ( xTicksToWait != 0 )
 173              		.loc 1 338 3 discriminator 2
 174 003e 97000000 		call	xTaskGetSchedulerState
 174      E7800000 
 175              	.LVL8:
 176 0046 11E5     		bne	a0,zero,.L14
 177 0048 63850900 		beq	s3,zero,.L14
 178              		.loc 1 338 3
 179              	.LBB19:
 180              		.loc 1 338 3
 181              		.loc 1 338 3
 182              		.loc 1 338 3
 183              	 #APP
 184              	# 338 "lib/freertos/src/event_groups.c" 1
 339              		}
 185              		csrrc a5, mstatus, 8
 186              	# 0 "" 2
 187              	.LVL9:
 338:lib/freertos/src/event_groups.c **** 		configASSERT( !( ( xTaskGetSchedulerState() == taskSCHEDULER_SUSPENDED ) && ( xTicksToWait != 0 )
 188              		.loc 1 338 3
 189              	 #NO_APP
 190              	.L15:
 191              	.LBE19:
 338:lib/freertos/src/event_groups.c **** 		configASSERT( !( ( xTaskGetSchedulerState() == taskSCHEDULER_SUSPENDED ) && ( xTicksToWait != 0 )
 192              		.loc 1 338 3 discriminator 4
 338:lib/freertos/src/event_groups.c **** 		configASSERT( !( ( xTaskGetSchedulerState() == taskSCHEDULER_SUSPENDED ) && ( xTicksToWait != 0 )
 193              		.loc 1 338 3 discriminator 4
 338:lib/freertos/src/event_groups.c **** 		configASSERT( !( ( xTaskGetSchedulerState() == taskSCHEDULER_SUSPENDED ) && ( xTicksToWait != 0 )
 194              		.loc 1 338 3 discriminator 4
 195 0050 01A0     		j	.L15
 196              	.L14:
 338:lib/freertos/src/event_groups.c **** 		configASSERT( !( ( xTaskGetSchedulerState() == taskSCHEDULER_SUSPENDED ) && ( xTicksToWait != 0 )
 197              		.loc 1 338 104 discriminator 8
 340:lib/freertos/src/event_groups.c **** 	#endif
 341:lib/freertos/src/event_groups.c **** 
 342:lib/freertos/src/event_groups.c **** 	vTaskSuspendAll();
 198              		.loc 1 342 2 discriminator 8
 199 0052 97000000 		call	vTaskSuspendAll
 199      E7800000 
 200              	.LVL10:
 201              	.LBB20:
 343:lib/freertos/src/event_groups.c **** 	{
 344:lib/freertos/src/event_groups.c **** 		const EventBits_t uxCurrentEventBits = pxEventBits->uxEventBits;
GAS LISTING C:\Users\kasie\AppData\Local\Temp\ccsLLl8U.s 			page 11


 202              		.loc 1 344 3 discriminator 8
 203              		.loc 1 344 21 is_stmt 0 discriminator 8
 204 005a 83240A00 		lw	s1,0(s4)
 205              	.LVL11:
 345:lib/freertos/src/event_groups.c **** 
 346:lib/freertos/src/event_groups.c **** 		/* Check to see if the wait condition is already met or not. */
 347:lib/freertos/src/event_groups.c **** 		xWaitConditionMet = prvTestWaitCondition( uxCurrentEventBits, uxBitsToWaitFor, xWaitForAllBits );
 206              		.loc 1 347 3 is_stmt 1 discriminator 8
 207              	.LBB21:
 208              	.LBB22:
 348:lib/freertos/src/event_groups.c **** 
 349:lib/freertos/src/event_groups.c **** 		if( xWaitConditionMet != pdFALSE )
 350:lib/freertos/src/event_groups.c **** 		{
 351:lib/freertos/src/event_groups.c **** 			/* The wait condition has already been met so there is no need to
 352:lib/freertos/src/event_groups.c **** 			block. */
 353:lib/freertos/src/event_groups.c **** 			uxReturn = uxCurrentEventBits;
 354:lib/freertos/src/event_groups.c **** 			xTicksToWait = ( TickType_t ) 0;
 355:lib/freertos/src/event_groups.c **** 
 356:lib/freertos/src/event_groups.c **** 			/* Clear the wait bits if requested to do so. */
 357:lib/freertos/src/event_groups.c **** 			if( xClearOnExit != pdFALSE )
 358:lib/freertos/src/event_groups.c **** 			{
 359:lib/freertos/src/event_groups.c **** 				pxEventBits->uxEventBits &= ~uxBitsToWaitFor;
 360:lib/freertos/src/event_groups.c **** 			}
 361:lib/freertos/src/event_groups.c **** 			else
 362:lib/freertos/src/event_groups.c **** 			{
 363:lib/freertos/src/event_groups.c **** 				mtCOVERAGE_TEST_MARKER();
 364:lib/freertos/src/event_groups.c **** 			}
 365:lib/freertos/src/event_groups.c **** 		}
 366:lib/freertos/src/event_groups.c **** 		else if( xTicksToWait == ( TickType_t ) 0 )
 367:lib/freertos/src/event_groups.c **** 		{
 368:lib/freertos/src/event_groups.c **** 			/* The wait condition has not been met, but no block time was
 369:lib/freertos/src/event_groups.c **** 			specified, so just return the current value. */
 370:lib/freertos/src/event_groups.c **** 			uxReturn = uxCurrentEventBits;
 371:lib/freertos/src/event_groups.c **** 		}
 372:lib/freertos/src/event_groups.c **** 		else
 373:lib/freertos/src/event_groups.c **** 		{
 374:lib/freertos/src/event_groups.c **** 			/* The task is going to block to wait for its required bits to be
 375:lib/freertos/src/event_groups.c **** 			set.  uxControlBits are used to remember the specified behaviour of
 376:lib/freertos/src/event_groups.c **** 			this call to xEventGroupWaitBits() - for use when the event bits
 377:lib/freertos/src/event_groups.c **** 			unblock the task. */
 378:lib/freertos/src/event_groups.c **** 			if( xClearOnExit != pdFALSE )
 379:lib/freertos/src/event_groups.c **** 			{
 380:lib/freertos/src/event_groups.c **** 				uxControlBits |= eventCLEAR_EVENTS_ON_EXIT_BIT;
 381:lib/freertos/src/event_groups.c **** 			}
 382:lib/freertos/src/event_groups.c **** 			else
 383:lib/freertos/src/event_groups.c **** 			{
 384:lib/freertos/src/event_groups.c **** 				mtCOVERAGE_TEST_MARKER();
 385:lib/freertos/src/event_groups.c **** 			}
 386:lib/freertos/src/event_groups.c **** 
 387:lib/freertos/src/event_groups.c **** 			if( xWaitForAllBits != pdFALSE )
 388:lib/freertos/src/event_groups.c **** 			{
 389:lib/freertos/src/event_groups.c **** 				uxControlBits |= eventWAIT_FOR_ALL_BITS;
 390:lib/freertos/src/event_groups.c **** 			}
 391:lib/freertos/src/event_groups.c **** 			else
 392:lib/freertos/src/event_groups.c **** 			{
 393:lib/freertos/src/event_groups.c **** 				mtCOVERAGE_TEST_MARKER();
 394:lib/freertos/src/event_groups.c **** 			}
GAS LISTING C:\Users\kasie\AppData\Local\Temp\ccsLLl8U.s 			page 12


 395:lib/freertos/src/event_groups.c **** 
 396:lib/freertos/src/event_groups.c **** 			/* Store the bits that the calling task is waiting for in the
 397:lib/freertos/src/event_groups.c **** 			task's event list item so the kernel knows when a match is
 398:lib/freertos/src/event_groups.c **** 			found.  Then enter the blocked state. */
 399:lib/freertos/src/event_groups.c **** 			vTaskPlaceOnUnorderedEventList( &( pxEventBits->xTasksWaitingForBits ), ( uxBitsToWaitFor | uxCo
 400:lib/freertos/src/event_groups.c **** 
 401:lib/freertos/src/event_groups.c **** 			/* This is obsolete as it will get set after the task unblocks, but
 402:lib/freertos/src/event_groups.c **** 			some compilers mistakenly generate a warning about the variable
 403:lib/freertos/src/event_groups.c **** 			being returned without being set if it is not done. */
 404:lib/freertos/src/event_groups.c **** 			uxReturn = 0;
 405:lib/freertos/src/event_groups.c **** 
 406:lib/freertos/src/event_groups.c **** 			traceEVENT_GROUP_WAIT_BITS_BLOCK( xEventGroup, uxBitsToWaitFor );
 407:lib/freertos/src/event_groups.c **** 		}
 408:lib/freertos/src/event_groups.c **** 	}
 409:lib/freertos/src/event_groups.c **** 	xAlreadyYielded = xTaskResumeAll();
 410:lib/freertos/src/event_groups.c **** 
 411:lib/freertos/src/event_groups.c **** 	if( xTicksToWait != ( TickType_t ) 0 )
 412:lib/freertos/src/event_groups.c **** 	{
 413:lib/freertos/src/event_groups.c **** 		if( xAlreadyYielded == pdFALSE )
 414:lib/freertos/src/event_groups.c **** 		{
 415:lib/freertos/src/event_groups.c **** 			portYIELD_WITHIN_API();
 416:lib/freertos/src/event_groups.c **** 		}
 417:lib/freertos/src/event_groups.c **** 		else
 418:lib/freertos/src/event_groups.c **** 		{
 419:lib/freertos/src/event_groups.c **** 			mtCOVERAGE_TEST_MARKER();
 420:lib/freertos/src/event_groups.c **** 		}
 421:lib/freertos/src/event_groups.c **** 
 422:lib/freertos/src/event_groups.c **** 		/* The task blocked to wait for its required bits to be set - at this
 423:lib/freertos/src/event_groups.c **** 		point either the required bits were set or the block time expired.  If
 424:lib/freertos/src/event_groups.c **** 		the required bits were set they will have been stored in the task's
 425:lib/freertos/src/event_groups.c **** 		event list item, and they should now be retrieved then cleared. */
 426:lib/freertos/src/event_groups.c **** 		uxReturn = uxTaskResetEventItemValue();
 427:lib/freertos/src/event_groups.c **** 
 428:lib/freertos/src/event_groups.c **** 		if( ( uxReturn & eventUNBLOCKED_DUE_TO_BIT_SET ) == ( EventBits_t ) 0 )
 429:lib/freertos/src/event_groups.c **** 		{
 430:lib/freertos/src/event_groups.c **** 			taskENTER_CRITICAL();
 431:lib/freertos/src/event_groups.c **** 			{
 432:lib/freertos/src/event_groups.c **** 				/* The task timed out, just return the current event bit value. */
 433:lib/freertos/src/event_groups.c **** 				uxReturn = pxEventBits->uxEventBits;
 434:lib/freertos/src/event_groups.c **** 
 435:lib/freertos/src/event_groups.c **** 				/* It is possible that the event bits were updated between this
 436:lib/freertos/src/event_groups.c **** 				task leaving the Blocked state and running again. */
 437:lib/freertos/src/event_groups.c **** 				if( prvTestWaitCondition( uxReturn, uxBitsToWaitFor, xWaitForAllBits ) != pdFALSE )
 438:lib/freertos/src/event_groups.c **** 				{
 439:lib/freertos/src/event_groups.c **** 					if( xClearOnExit != pdFALSE )
 440:lib/freertos/src/event_groups.c **** 					{
 441:lib/freertos/src/event_groups.c **** 						pxEventBits->uxEventBits &= ~uxBitsToWaitFor;
 442:lib/freertos/src/event_groups.c **** 					}
 443:lib/freertos/src/event_groups.c **** 					else
 444:lib/freertos/src/event_groups.c **** 					{
 445:lib/freertos/src/event_groups.c **** 						mtCOVERAGE_TEST_MARKER();
 446:lib/freertos/src/event_groups.c **** 					}
 447:lib/freertos/src/event_groups.c **** 				}
 448:lib/freertos/src/event_groups.c **** 				else
 449:lib/freertos/src/event_groups.c **** 				{
 450:lib/freertos/src/event_groups.c **** 					mtCOVERAGE_TEST_MARKER();
 451:lib/freertos/src/event_groups.c **** 				}
GAS LISTING C:\Users\kasie\AppData\Local\Temp\ccsLLl8U.s 			page 13


 452:lib/freertos/src/event_groups.c **** 			}
 453:lib/freertos/src/event_groups.c **** 			taskEXIT_CRITICAL();
 454:lib/freertos/src/event_groups.c **** 
 455:lib/freertos/src/event_groups.c **** 			/* Prevent compiler warnings when trace macros are not used. */
 456:lib/freertos/src/event_groups.c **** 			xTimeoutOccurred = pdFALSE;
 457:lib/freertos/src/event_groups.c **** 		}
 458:lib/freertos/src/event_groups.c **** 		else
 459:lib/freertos/src/event_groups.c **** 		{
 460:lib/freertos/src/event_groups.c **** 			/* The task unblocked because the bits were set. */
 461:lib/freertos/src/event_groups.c **** 		}
 462:lib/freertos/src/event_groups.c **** 
 463:lib/freertos/src/event_groups.c **** 		/* The task blocked so control bits may have been set. */
 464:lib/freertos/src/event_groups.c **** 		uxReturn &= ~eventEVENT_BITS_CONTROL_BYTES;
 465:lib/freertos/src/event_groups.c **** 	}
 466:lib/freertos/src/event_groups.c **** 	traceEVENT_GROUP_WAIT_BITS_END( xEventGroup, uxBitsToWaitFor, xTimeoutOccurred );
 467:lib/freertos/src/event_groups.c **** 
 468:lib/freertos/src/event_groups.c **** 	return uxReturn;
 469:lib/freertos/src/event_groups.c **** }
 470:lib/freertos/src/event_groups.c **** /*-----------------------------------------------------------*/
 471:lib/freertos/src/event_groups.c **** 
 472:lib/freertos/src/event_groups.c **** EventBits_t xEventGroupClearBits( EventGroupHandle_t xEventGroup, const EventBits_t uxBitsToClear )
 473:lib/freertos/src/event_groups.c **** {
 474:lib/freertos/src/event_groups.c **** EventGroup_t *pxEventBits = ( EventGroup_t * ) xEventGroup;
 475:lib/freertos/src/event_groups.c **** EventBits_t uxReturn;
 476:lib/freertos/src/event_groups.c **** 
 477:lib/freertos/src/event_groups.c **** 	/* Check the user is not attempting to clear the bits used by the kernel
 478:lib/freertos/src/event_groups.c **** 	itself. */
 479:lib/freertos/src/event_groups.c **** 	configASSERT( xEventGroup );
 480:lib/freertos/src/event_groups.c **** 	configASSERT( ( uxBitsToClear & eventEVENT_BITS_CONTROL_BYTES ) == 0 );
 481:lib/freertos/src/event_groups.c **** 
 482:lib/freertos/src/event_groups.c **** 	taskENTER_CRITICAL();
 483:lib/freertos/src/event_groups.c **** 	{
 484:lib/freertos/src/event_groups.c **** 		traceEVENT_GROUP_CLEAR_BITS( xEventGroup, uxBitsToClear );
 485:lib/freertos/src/event_groups.c **** 
 486:lib/freertos/src/event_groups.c **** 		/* The value returned is the event group value prior to the bits being
 487:lib/freertos/src/event_groups.c **** 		cleared. */
 488:lib/freertos/src/event_groups.c **** 		uxReturn = pxEventBits->uxEventBits;
 489:lib/freertos/src/event_groups.c **** 
 490:lib/freertos/src/event_groups.c **** 		/* Clear the bits. */
 491:lib/freertos/src/event_groups.c **** 		pxEventBits->uxEventBits &= ~uxBitsToClear;
 492:lib/freertos/src/event_groups.c **** 	}
 493:lib/freertos/src/event_groups.c **** 	taskEXIT_CRITICAL();
 494:lib/freertos/src/event_groups.c **** 
 495:lib/freertos/src/event_groups.c **** 	return uxReturn;
 496:lib/freertos/src/event_groups.c **** }
 497:lib/freertos/src/event_groups.c **** /*-----------------------------------------------------------*/
 498:lib/freertos/src/event_groups.c **** 
 499:lib/freertos/src/event_groups.c **** #if ( ( configUSE_TRACE_FACILITY == 1 ) && ( INCLUDE_xTimerPendFunctionCall == 1 ) && ( configUSE_T
 500:lib/freertos/src/event_groups.c **** 
 501:lib/freertos/src/event_groups.c **** 	BaseType_t xEventGroupClearBitsFromISR( EventGroupHandle_t xEventGroup, const EventBits_t uxBitsTo
 502:lib/freertos/src/event_groups.c **** 	{
 503:lib/freertos/src/event_groups.c **** 		BaseType_t xReturn;
 504:lib/freertos/src/event_groups.c **** 
 505:lib/freertos/src/event_groups.c **** 		traceEVENT_GROUP_CLEAR_BITS_FROM_ISR( xEventGroup, uxBitsToClear );
 506:lib/freertos/src/event_groups.c **** 		xReturn = xTimerPendFunctionCallFromISR( vEventGroupClearBitsCallback, ( void * ) xEventGroup, ( 
 507:lib/freertos/src/event_groups.c **** 
 508:lib/freertos/src/event_groups.c **** 		return xReturn;
GAS LISTING C:\Users\kasie\AppData\Local\Temp\ccsLLl8U.s 			page 14


 509:lib/freertos/src/event_groups.c **** 	}
 510:lib/freertos/src/event_groups.c **** 
 511:lib/freertos/src/event_groups.c **** #endif
 512:lib/freertos/src/event_groups.c **** /*-----------------------------------------------------------*/
 513:lib/freertos/src/event_groups.c **** 
 514:lib/freertos/src/event_groups.c **** EventBits_t xEventGroupGetBitsFromISR( EventGroupHandle_t xEventGroup )
 515:lib/freertos/src/event_groups.c **** {
 516:lib/freertos/src/event_groups.c **** UBaseType_t uxSavedInterruptStatus;
 517:lib/freertos/src/event_groups.c **** EventGroup_t *pxEventBits = ( EventGroup_t * ) xEventGroup;
 518:lib/freertos/src/event_groups.c **** EventBits_t uxReturn;
 519:lib/freertos/src/event_groups.c **** 
 520:lib/freertos/src/event_groups.c **** 	uxSavedInterruptStatus = portSET_INTERRUPT_MASK_FROM_ISR();
 521:lib/freertos/src/event_groups.c **** 	{
 522:lib/freertos/src/event_groups.c **** 		uxReturn = pxEventBits->uxEventBits;
 523:lib/freertos/src/event_groups.c **** 	}
 524:lib/freertos/src/event_groups.c **** 	portCLEAR_INTERRUPT_MASK_FROM_ISR( uxSavedInterruptStatus );
 525:lib/freertos/src/event_groups.c **** 
 526:lib/freertos/src/event_groups.c **** 	return uxReturn;
 527:lib/freertos/src/event_groups.c **** }
 528:lib/freertos/src/event_groups.c **** /*-----------------------------------------------------------*/
 529:lib/freertos/src/event_groups.c **** 
 530:lib/freertos/src/event_groups.c **** EventBits_t xEventGroupSetBits( EventGroupHandle_t xEventGroup, const EventBits_t uxBitsToSet )
 531:lib/freertos/src/event_groups.c **** {
 532:lib/freertos/src/event_groups.c **** ListItem_t *pxListItem, *pxNext;
 533:lib/freertos/src/event_groups.c **** ListItem_t const *pxListEnd;
 534:lib/freertos/src/event_groups.c **** List_t *pxList;
 535:lib/freertos/src/event_groups.c **** EventBits_t uxBitsToClear = 0, uxBitsWaitedFor, uxControlBits;
 536:lib/freertos/src/event_groups.c **** EventGroup_t *pxEventBits = ( EventGroup_t * ) xEventGroup;
 537:lib/freertos/src/event_groups.c **** BaseType_t xMatchFound = pdFALSE;
 538:lib/freertos/src/event_groups.c **** 
 539:lib/freertos/src/event_groups.c **** 	/* Check the user is not attempting to set the bits used by the kernel
 540:lib/freertos/src/event_groups.c **** 	itself. */
 541:lib/freertos/src/event_groups.c **** 	configASSERT( xEventGroup );
 542:lib/freertos/src/event_groups.c **** 	configASSERT( ( uxBitsToSet & eventEVENT_BITS_CONTROL_BYTES ) == 0 );
 543:lib/freertos/src/event_groups.c **** 
 544:lib/freertos/src/event_groups.c **** 	pxList = &( pxEventBits->xTasksWaitingForBits );
 545:lib/freertos/src/event_groups.c **** 	pxListEnd = listGET_END_MARKER( pxList ); /*lint !e826 !e740 The mini list structure is used as th
 546:lib/freertos/src/event_groups.c **** 	vTaskSuspendAll();
 547:lib/freertos/src/event_groups.c **** 	{
 548:lib/freertos/src/event_groups.c **** 		traceEVENT_GROUP_SET_BITS( xEventGroup, uxBitsToSet );
 549:lib/freertos/src/event_groups.c **** 
 550:lib/freertos/src/event_groups.c **** 		pxListItem = listGET_HEAD_ENTRY( pxList );
 551:lib/freertos/src/event_groups.c **** 
 552:lib/freertos/src/event_groups.c **** 		/* Set the bits. */
 553:lib/freertos/src/event_groups.c **** 		pxEventBits->uxEventBits |= uxBitsToSet;
 554:lib/freertos/src/event_groups.c **** 
 555:lib/freertos/src/event_groups.c **** 		/* See if the new bit value should unblock any tasks. */
 556:lib/freertos/src/event_groups.c **** 		while( pxListItem != pxListEnd )
 557:lib/freertos/src/event_groups.c **** 		{
 558:lib/freertos/src/event_groups.c **** 			pxNext = listGET_NEXT( pxListItem );
 559:lib/freertos/src/event_groups.c **** 			uxBitsWaitedFor = listGET_LIST_ITEM_VALUE( pxListItem );
 560:lib/freertos/src/event_groups.c **** 			xMatchFound = pdFALSE;
 561:lib/freertos/src/event_groups.c **** 
 562:lib/freertos/src/event_groups.c **** 			/* Split the bits waited for from the control bits. */
 563:lib/freertos/src/event_groups.c **** 			uxControlBits = uxBitsWaitedFor & eventEVENT_BITS_CONTROL_BYTES;
 564:lib/freertos/src/event_groups.c **** 			uxBitsWaitedFor &= ~eventEVENT_BITS_CONTROL_BYTES;
 565:lib/freertos/src/event_groups.c **** 
GAS LISTING C:\Users\kasie\AppData\Local\Temp\ccsLLl8U.s 			page 15


 566:lib/freertos/src/event_groups.c **** 			if( ( uxControlBits & eventWAIT_FOR_ALL_BITS ) == ( EventBits_t ) 0 )
 567:lib/freertos/src/event_groups.c **** 			{
 568:lib/freertos/src/event_groups.c **** 				/* Just looking for single bit being set. */
 569:lib/freertos/src/event_groups.c **** 				if( ( uxBitsWaitedFor & pxEventBits->uxEventBits ) != ( EventBits_t ) 0 )
 570:lib/freertos/src/event_groups.c **** 				{
 571:lib/freertos/src/event_groups.c **** 					xMatchFound = pdTRUE;
 572:lib/freertos/src/event_groups.c **** 				}
 573:lib/freertos/src/event_groups.c **** 				else
 574:lib/freertos/src/event_groups.c **** 				{
 575:lib/freertos/src/event_groups.c **** 					mtCOVERAGE_TEST_MARKER();
 576:lib/freertos/src/event_groups.c **** 				}
 577:lib/freertos/src/event_groups.c **** 			}
 578:lib/freertos/src/event_groups.c **** 			else if( ( uxBitsWaitedFor & pxEventBits->uxEventBits ) == uxBitsWaitedFor )
 579:lib/freertos/src/event_groups.c **** 			{
 580:lib/freertos/src/event_groups.c **** 				/* All bits are set. */
 581:lib/freertos/src/event_groups.c **** 				xMatchFound = pdTRUE;
 582:lib/freertos/src/event_groups.c **** 			}
 583:lib/freertos/src/event_groups.c **** 			else
 584:lib/freertos/src/event_groups.c **** 			{
 585:lib/freertos/src/event_groups.c **** 				/* Need all bits to be set, but not all the bits were set. */
 586:lib/freertos/src/event_groups.c **** 			}
 587:lib/freertos/src/event_groups.c **** 
 588:lib/freertos/src/event_groups.c **** 			if( xMatchFound != pdFALSE )
 589:lib/freertos/src/event_groups.c **** 			{
 590:lib/freertos/src/event_groups.c **** 				/* The bits match.  Should the bits be cleared on exit? */
 591:lib/freertos/src/event_groups.c **** 				if( ( uxControlBits & eventCLEAR_EVENTS_ON_EXIT_BIT ) != ( EventBits_t ) 0 )
 592:lib/freertos/src/event_groups.c **** 				{
 593:lib/freertos/src/event_groups.c **** 					uxBitsToClear |= uxBitsWaitedFor;
 594:lib/freertos/src/event_groups.c **** 				}
 595:lib/freertos/src/event_groups.c **** 				else
 596:lib/freertos/src/event_groups.c **** 				{
 597:lib/freertos/src/event_groups.c **** 					mtCOVERAGE_TEST_MARKER();
 598:lib/freertos/src/event_groups.c **** 				}
 599:lib/freertos/src/event_groups.c **** 
 600:lib/freertos/src/event_groups.c **** 				/* Store the actual event flag value in the task's event list
 601:lib/freertos/src/event_groups.c **** 				item before removing the task from the event list.  The
 602:lib/freertos/src/event_groups.c **** 				eventUNBLOCKED_DUE_TO_BIT_SET bit is set so the task knows
 603:lib/freertos/src/event_groups.c **** 				that is was unblocked due to its required bits matching, rather
 604:lib/freertos/src/event_groups.c **** 				than because it timed out. */
 605:lib/freertos/src/event_groups.c **** 				( void ) xTaskRemoveFromUnorderedEventList( pxListItem, pxEventBits->uxEventBits | eventUNBLOCK
 606:lib/freertos/src/event_groups.c **** 			}
 607:lib/freertos/src/event_groups.c **** 
 608:lib/freertos/src/event_groups.c **** 			/* Move onto the next list item.  Note pxListItem->pxNext is not
 609:lib/freertos/src/event_groups.c **** 			used here as the list item may have been removed from the event list
 610:lib/freertos/src/event_groups.c **** 			and inserted into the ready/pending reading list. */
 611:lib/freertos/src/event_groups.c **** 			pxListItem = pxNext;
 612:lib/freertos/src/event_groups.c **** 		}
 613:lib/freertos/src/event_groups.c **** 
 614:lib/freertos/src/event_groups.c **** 		/* Clear any bits that matched when the eventCLEAR_EVENTS_ON_EXIT_BIT
 615:lib/freertos/src/event_groups.c **** 		bit was set in the control word. */
 616:lib/freertos/src/event_groups.c **** 		pxEventBits->uxEventBits &= ~uxBitsToClear;
 617:lib/freertos/src/event_groups.c **** 	}
 618:lib/freertos/src/event_groups.c **** 	( void ) xTaskResumeAll();
 619:lib/freertos/src/event_groups.c **** 
 620:lib/freertos/src/event_groups.c **** 	return pxEventBits->uxEventBits;
 621:lib/freertos/src/event_groups.c **** }
 622:lib/freertos/src/event_groups.c **** /*-----------------------------------------------------------*/
GAS LISTING C:\Users\kasie\AppData\Local\Temp\ccsLLl8U.s 			page 16


 623:lib/freertos/src/event_groups.c **** 
 624:lib/freertos/src/event_groups.c **** void vEventGroupDelete( EventGroupHandle_t xEventGroup )
 625:lib/freertos/src/event_groups.c **** {
 626:lib/freertos/src/event_groups.c **** EventGroup_t *pxEventBits = ( EventGroup_t * ) xEventGroup;
 627:lib/freertos/src/event_groups.c **** const List_t *pxTasksWaitingForBits = &( pxEventBits->xTasksWaitingForBits );
 628:lib/freertos/src/event_groups.c **** 
 629:lib/freertos/src/event_groups.c **** 	vTaskSuspendAll();
 630:lib/freertos/src/event_groups.c **** 	{
 631:lib/freertos/src/event_groups.c **** 		traceEVENT_GROUP_DELETE( xEventGroup );
 632:lib/freertos/src/event_groups.c **** 
 633:lib/freertos/src/event_groups.c **** 		while( listCURRENT_LIST_LENGTH( pxTasksWaitingForBits ) > ( UBaseType_t ) 0 )
 634:lib/freertos/src/event_groups.c **** 		{
 635:lib/freertos/src/event_groups.c **** 			/* Unblock the task, returning 0 as the event list is being deleted
 636:lib/freertos/src/event_groups.c **** 			and	cannot therefore have any bits set. */
 637:lib/freertos/src/event_groups.c **** 			configASSERT( pxTasksWaitingForBits->xListEnd.pxNext != ( ListItem_t * ) &( pxTasksWaitingForBit
 638:lib/freertos/src/event_groups.c **** 			( void ) xTaskRemoveFromUnorderedEventList( pxTasksWaitingForBits->xListEnd.pxNext, eventUNBLOCK
 639:lib/freertos/src/event_groups.c **** 		}
 640:lib/freertos/src/event_groups.c **** 
 641:lib/freertos/src/event_groups.c **** 		#if( ( configSUPPORT_DYNAMIC_ALLOCATION == 1 ) && ( configSUPPORT_STATIC_ALLOCATION == 0 ) )
 642:lib/freertos/src/event_groups.c **** 		{
 643:lib/freertos/src/event_groups.c **** 			/* The event group can only have been allocated dynamically - free
 644:lib/freertos/src/event_groups.c **** 			it again. */
 645:lib/freertos/src/event_groups.c **** 			vPortFree( pxEventBits );
 646:lib/freertos/src/event_groups.c **** 		}
 647:lib/freertos/src/event_groups.c **** 		#elif( ( configSUPPORT_DYNAMIC_ALLOCATION == 1 ) && ( configSUPPORT_STATIC_ALLOCATION == 1 ) )
 648:lib/freertos/src/event_groups.c **** 		{
 649:lib/freertos/src/event_groups.c **** 			/* The event group could have been allocated statically or
 650:lib/freertos/src/event_groups.c **** 			dynamically, so check before attempting to free the memory. */
 651:lib/freertos/src/event_groups.c **** 			if( pxEventBits->ucStaticallyAllocated == ( uint8_t ) pdFALSE )
 652:lib/freertos/src/event_groups.c **** 			{
 653:lib/freertos/src/event_groups.c **** 				vPortFree( pxEventBits );
 654:lib/freertos/src/event_groups.c **** 			}
 655:lib/freertos/src/event_groups.c **** 			else
 656:lib/freertos/src/event_groups.c **** 			{
 657:lib/freertos/src/event_groups.c **** 				mtCOVERAGE_TEST_MARKER();
 658:lib/freertos/src/event_groups.c **** 			}
 659:lib/freertos/src/event_groups.c **** 		}
 660:lib/freertos/src/event_groups.c **** 		#endif /* configSUPPORT_DYNAMIC_ALLOCATION */
 661:lib/freertos/src/event_groups.c **** 	}
 662:lib/freertos/src/event_groups.c **** 	( void ) xTaskResumeAll();
 663:lib/freertos/src/event_groups.c **** }
 664:lib/freertos/src/event_groups.c **** /*-----------------------------------------------------------*/
 665:lib/freertos/src/event_groups.c **** 
 666:lib/freertos/src/event_groups.c **** /* For internal use only - execute a 'set bits' command that was pended from
 667:lib/freertos/src/event_groups.c **** an interrupt. */
 668:lib/freertos/src/event_groups.c **** void vEventGroupSetBitsCallback( void *pvEventGroup, const uint32_t ulBitsToSet )
 669:lib/freertos/src/event_groups.c **** {
 670:lib/freertos/src/event_groups.c **** 	( void ) xEventGroupSetBits( pvEventGroup, ( EventBits_t ) ulBitsToSet );
 671:lib/freertos/src/event_groups.c **** }
 672:lib/freertos/src/event_groups.c **** /*-----------------------------------------------------------*/
 673:lib/freertos/src/event_groups.c **** 
 674:lib/freertos/src/event_groups.c **** /* For internal use only - execute a 'clear bits' command that was pended from
 675:lib/freertos/src/event_groups.c **** an interrupt. */
 676:lib/freertos/src/event_groups.c **** void vEventGroupClearBitsCallback( void *pvEventGroup, const uint32_t ulBitsToClear )
 677:lib/freertos/src/event_groups.c **** {
 678:lib/freertos/src/event_groups.c **** 	( void ) xEventGroupClearBits( pvEventGroup, ( EventBits_t ) ulBitsToClear );
 679:lib/freertos/src/event_groups.c **** }
GAS LISTING C:\Users\kasie\AppData\Local\Temp\ccsLLl8U.s 			page 17


 680:lib/freertos/src/event_groups.c **** /*-----------------------------------------------------------*/
 681:lib/freertos/src/event_groups.c **** 
 682:lib/freertos/src/event_groups.c **** static BaseType_t prvTestWaitCondition( const EventBits_t uxCurrentEventBits, const EventBits_t uxB
 683:lib/freertos/src/event_groups.c **** {
 684:lib/freertos/src/event_groups.c **** BaseType_t xWaitConditionMet = pdFALSE;
 209              		.loc 1 684 1 discriminator 8
 685:lib/freertos/src/event_groups.c **** 
 686:lib/freertos/src/event_groups.c **** 	if( xWaitForAllBits == pdFALSE )
 210              		.loc 1 686 2 discriminator 8
 211 005e B3779400 		and	a5,s0,s1
 212              		.loc 1 686 4 is_stmt 0 discriminator 8
 213 0062 63190B02 		bne	s6,zero,.L16
 687:lib/freertos/src/event_groups.c **** 	{
 688:lib/freertos/src/event_groups.c **** 		/* Task only has to wait for one bit within uxBitsToWaitFor to be
 689:lib/freertos/src/event_groups.c **** 		set.  Is one already set? */
 690:lib/freertos/src/event_groups.c **** 		if( ( uxCurrentEventBits & uxBitsToWaitFor ) != ( EventBits_t ) 0 )
 214              		.loc 1 690 3 is_stmt 1
 215              		.loc 1 690 5 is_stmt 0
 216 0066 8DEB     		bne	a5,zero,.L17
 217              	.L18:
 218              	.LBE22:
 219              	.LBE21:
 366:lib/freertos/src/event_groups.c **** 		{
 220              		.loc 1 366 8 is_stmt 1
 221 0068 0149     		li	s2,0
 366:lib/freertos/src/event_groups.c **** 		{
 222              		.loc 1 366 10 is_stmt 0
 223 006a 638E0902 		beq	s3,zero,.L19
 378:lib/freertos/src/event_groups.c **** 			{
 224              		.loc 1 378 4 is_stmt 1
 380:lib/freertos/src/event_groups.c **** 			}
 225              		.loc 1 380 19 is_stmt 0
 226 006e B3355001 		snez	a1,s5
 227 0072 E205     		slli	a1,a1,24
 228              	.LVL12:
 384:lib/freertos/src/event_groups.c **** 			}
 229              		.loc 1 384 29 is_stmt 1
 387:lib/freertos/src/event_groups.c **** 			{
 230              		.loc 1 387 4
 387:lib/freertos/src/event_groups.c **** 			{
 231              		.loc 1 387 6 is_stmt 0
 232 0074 63050B00 		beq	s6,zero,.L21
 389:lib/freertos/src/event_groups.c **** 			}
 233              		.loc 1 389 5 is_stmt 1
 389:lib/freertos/src/event_groups.c **** 			}
 234              		.loc 1 389 19 is_stmt 0
 235 0078 B7070004 		li	a5,67108864
 236 007c DD8D     		or	a1,a1,a5
 237              	.LVL13:
 238              	.L21:
 393:lib/freertos/src/event_groups.c **** 			}
 239              		.loc 1 393 29 is_stmt 1
 399:lib/freertos/src/event_groups.c **** 
 240              		.loc 1 399 4
 241 007e 4E86     		mv	a2,s3
 242 0080 C18D     		or	a1,a1,s0
 243              	.LVL14:
GAS LISTING C:\Users\kasie\AppData\Local\Temp\ccsLLl8U.s 			page 18


 244 0082 13054A00 		addi	a0,s4,4
 245 0086 97000000 		call	vTaskPlaceOnUnorderedEventList
 245      E7800000 
 246              	.LVL15:
 404:lib/freertos/src/event_groups.c **** 
 247              		.loc 1 404 4
 404:lib/freertos/src/event_groups.c **** 
 248              		.loc 1 404 13 is_stmt 0
 249 008e 8144     		li	s1,0
 250              	.LVL16:
 399:lib/freertos/src/event_groups.c **** 
 251              		.loc 1 399 4
 252 0090 4E89     		mv	s2,s3
 253 0092 11A8     		j	.L19
 254              	.LVL17:
 255              	.L16:
 256              	.LBB24:
 257              	.LBB23:
 691:lib/freertos/src/event_groups.c **** 		{
 692:lib/freertos/src/event_groups.c **** 			xWaitConditionMet = pdTRUE;
 693:lib/freertos/src/event_groups.c **** 		}
 694:lib/freertos/src/event_groups.c **** 		else
 695:lib/freertos/src/event_groups.c **** 		{
 696:lib/freertos/src/event_groups.c **** 			mtCOVERAGE_TEST_MARKER();
 697:lib/freertos/src/event_groups.c **** 		}
 698:lib/freertos/src/event_groups.c **** 	}
 699:lib/freertos/src/event_groups.c **** 	else
 700:lib/freertos/src/event_groups.c **** 	{
 701:lib/freertos/src/event_groups.c **** 		/* Task has to wait for all the bits in uxBitsToWaitFor to be set.
 702:lib/freertos/src/event_groups.c **** 		Are they set already? */
 703:lib/freertos/src/event_groups.c **** 		if( ( uxCurrentEventBits & uxBitsToWaitFor ) == uxBitsToWaitFor )
 258              		.loc 1 703 3 is_stmt 1
 259              		.loc 1 703 5 is_stmt 0
 260 0094 E31AF4FC 		bne	s0,a5,.L18
 261              	.L17:
 262              	.LBE23:
 263              	.LBE24:
 353:lib/freertos/src/event_groups.c **** 			xTicksToWait = ( TickType_t ) 0;
 264              		.loc 1 353 4 is_stmt 1
 265              	.LVL18:
 354:lib/freertos/src/event_groups.c **** 
 266              		.loc 1 354 4
 357:lib/freertos/src/event_groups.c **** 			{
 267              		.loc 1 357 4
 357:lib/freertos/src/event_groups.c **** 			{
 268              		.loc 1 357 6 is_stmt 0
 269 0098 63870A00 		beq	s5,zero,.L19
 359:lib/freertos/src/event_groups.c **** 			}
 270              		.loc 1 359 5 is_stmt 1
 359:lib/freertos/src/event_groups.c **** 			}
 271              		.loc 1 359 33 is_stmt 0
 272 009c 9347F4FF 		not	a5,s0
 359:lib/freertos/src/event_groups.c **** 			}
 273              		.loc 1 359 30
 274 00a0 E58F     		and	a5,a5,s1
 275 00a2 2320FA00 		sw	a5,0(s4)
 276              	.LVL19:
GAS LISTING C:\Users\kasie\AppData\Local\Temp\ccsLLl8U.s 			page 19


 277              	.L19:
 406:lib/freertos/src/event_groups.c **** 		}
 278              		.loc 1 406 68 is_stmt 1
 279              	.LBE20:
 409:lib/freertos/src/event_groups.c **** 
 280              		.loc 1 409 2
 409:lib/freertos/src/event_groups.c **** 
 281              		.loc 1 409 20 is_stmt 0
 282 00a6 97000000 		call	xTaskResumeAll
 282      E7800000 
 283              	.LVL20:
 411:lib/freertos/src/event_groups.c **** 	{
 284              		.loc 1 411 2 is_stmt 1
 411:lib/freertos/src/event_groups.c **** 	{
 285              		.loc 1 411 4 is_stmt 0
 286 00ae 63010904 		beq	s2,zero,.L7
 413:lib/freertos/src/event_groups.c **** 		{
 287              		.loc 1 413 3 is_stmt 1
 413:lib/freertos/src/event_groups.c **** 		{
 288              		.loc 1 413 5 is_stmt 0
 289 00b2 09E5     		bne	a0,zero,.L23
 415:lib/freertos/src/event_groups.c **** 		}
 290              		.loc 1 415 4 is_stmt 1
 291              	.LBB25:
 415:lib/freertos/src/event_groups.c **** 		}
 292              		.loc 1 415 4
 293 00b4 13068002 		li	a2,40
 415:lib/freertos/src/event_groups.c **** 		}
 294              		.loc 1 415 4
 295              	 #APP
 296              	# 415 "lib/freertos/src/event_groups.c" 1
 415:lib/freertos/src/event_groups.c **** 		}
 297              		ecall
 298              	# 0 "" 2
 299              		.loc 1 415 4
 300              	 #NO_APP
 301              	.LBE25:
 415:lib/freertos/src/event_groups.c **** 		}
 302              		.loc 1 415 26
 303              	.L23:
 419:lib/freertos/src/event_groups.c **** 		}
 304              		.loc 1 419 28
 426:lib/freertos/src/event_groups.c **** 
 305              		.loc 1 426 3
 426:lib/freertos/src/event_groups.c **** 
 306              		.loc 1 426 14 is_stmt 0
 307 00bc 97000000 		call	uxTaskResetEventItemValue
 307      E7800000 
 308              	.LVL21:
 428:lib/freertos/src/event_groups.c **** 		{
 309              		.loc 1 428 5
 310 00c4 93176500 		slli	a5,a0,6
 426:lib/freertos/src/event_groups.c **** 
 311              		.loc 1 426 14
 312 00c8 AA84     		mv	s1,a0
 313              	.LVL22:
 428:lib/freertos/src/event_groups.c **** 		{
GAS LISTING C:\Users\kasie\AppData\Local\Temp\ccsLLl8U.s 			page 20


 314              		.loc 1 428 3 is_stmt 1
 428:lib/freertos/src/event_groups.c **** 		{
 315              		.loc 1 428 5 is_stmt 0
 316 00ca 63C10702 		blt	a5,zero,.L24
 430:lib/freertos/src/event_groups.c **** 			{
 317              		.loc 1 430 4 is_stmt 1
 318 00ce 97000000 		call	vPortEnterCritical
 318      E7800000 
 319              	.LVL23:
 433:lib/freertos/src/event_groups.c **** 
 320              		.loc 1 433 5
 433:lib/freertos/src/event_groups.c **** 
 321              		.loc 1 433 14 is_stmt 0
 322 00d6 83240A00 		lw	s1,0(s4)
 437:lib/freertos/src/event_groups.c **** 				{
 323              		.loc 1 437 5 is_stmt 1
 324              	.LVL24:
 325              	.LBB26:
 326              	.LBB27:
 684:lib/freertos/src/event_groups.c **** 
 327              		.loc 1 684 1
 686:lib/freertos/src/event_groups.c **** 	{
 328              		.loc 1 686 2
 329 00da B3779400 		and	a5,s0,s1
 686:lib/freertos/src/event_groups.c **** 	{
 330              		.loc 1 686 4 is_stmt 0
 331 00de 63140B02 		bne	s6,zero,.L25
 690:lib/freertos/src/event_groups.c **** 		{
 332              		.loc 1 690 3 is_stmt 1
 690:lib/freertos/src/event_groups.c **** 		{
 333              		.loc 1 690 5 is_stmt 0
 334 00e2 85E7     		bne	a5,zero,.L26
 335              	.LVL25:
 336              	.L27:
 337              	.LBE27:
 338              	.LBE26:
 450:lib/freertos/src/event_groups.c **** 				}
 339              		.loc 1 450 30 is_stmt 1
 453:lib/freertos/src/event_groups.c **** 
 340              		.loc 1 453 4
 341 00e4 97000000 		call	vPortExitCritical
 341      E7800000 
 342              	.LVL26:
 456:lib/freertos/src/event_groups.c **** 		}
 343              		.loc 1 456 4
 344              	.L24:
 461:lib/freertos/src/event_groups.c **** 
 345              		.loc 1 461 3
 464:lib/freertos/src/event_groups.c **** 	}
 346              		.loc 1 464 3
 464:lib/freertos/src/event_groups.c **** 	}
 347              		.loc 1 464 12 is_stmt 0
 348 00ec A204     		slli	s1,s1,8
 349              	.LVL27:
 350 00ee A180     		srli	s1,s1,8
 466:lib/freertos/src/event_groups.c **** 
 351              		.loc 1 466 2 is_stmt 1
GAS LISTING C:\Users\kasie\AppData\Local\Temp\ccsLLl8U.s 			page 21


 468:lib/freertos/src/event_groups.c **** }
 352              		.loc 1 468 2
 353              	.L7:
 469:lib/freertos/src/event_groups.c **** /*-----------------------------------------------------------*/
 354              		.loc 1 469 1 is_stmt 0
 355 00f0 F240     		lw	ra,28(sp)
 356              		.cfi_remember_state
 357              		.cfi_restore 1
 358 00f2 6244     		lw	s0,24(sp)
 359              		.cfi_restore 8
 360 00f4 2685     		mv	a0,s1
 361 00f6 4249     		lw	s2,16(sp)
 362              		.cfi_restore 18
 363 00f8 D244     		lw	s1,20(sp)
 364              		.cfi_restore 9
 365 00fa B249     		lw	s3,12(sp)
 366              		.cfi_restore 19
 367 00fc 224A     		lw	s4,8(sp)
 368              		.cfi_restore 20
 369              	.LVL28:
 370 00fe 924A     		lw	s5,4(sp)
 371              		.cfi_restore 21
 372              	.LVL29:
 373 0100 024B     		lw	s6,0(sp)
 374              		.cfi_restore 22
 375              	.LVL30:
 376 0102 0561     		addi	sp,sp,32
 377              	.LCFI3:
 378              		.cfi_def_cfa_offset 0
 379 0104 8280     		jr	ra
 380              	.LVL31:
 381              	.L25:
 382              	.LCFI4:
 383              		.cfi_restore_state
 384              	.LBB29:
 385              	.LBB28:
 386              		.loc 1 703 3 is_stmt 1
 387              		.loc 1 703 5 is_stmt 0
 388 0106 E31FF4FC 		bne	s0,a5,.L27
 389              	.L26:
 390              	.LBE28:
 391              	.LBE29:
 439:lib/freertos/src/event_groups.c **** 					{
 392              		.loc 1 439 6 is_stmt 1
 439:lib/freertos/src/event_groups.c **** 					{
 393              		.loc 1 439 8 is_stmt 0
 394 010a E38D0AFC 		beq	s5,zero,.L27
 441:lib/freertos/src/event_groups.c **** 					}
 395              		.loc 1 441 7 is_stmt 1
 441:lib/freertos/src/event_groups.c **** 					}
 396              		.loc 1 441 35 is_stmt 0
 397 010e 1344F4FF 		not	s0,s0
 398              	.LVL32:
 441:lib/freertos/src/event_groups.c **** 					}
 399              		.loc 1 441 32
 400 0112 658C     		and	s0,s0,s1
 401              	.LVL33:
GAS LISTING C:\Users\kasie\AppData\Local\Temp\ccsLLl8U.s 			page 22


 402 0114 23208A00 		sw	s0,0(s4)
 403 0118 F1B7     		j	.L27
 404              		.cfi_endproc
 405              	.LFE4:
 407              		.section	.text.xEventGroupClearBits,"ax",@progbits
 408              		.align	1
 409              		.globl	xEventGroupClearBits
 411              	xEventGroupClearBits:
 412              	.LFB5:
 473:lib/freertos/src/event_groups.c **** EventGroup_t *pxEventBits = ( EventGroup_t * ) xEventGroup;
 413              		.loc 1 473 1 is_stmt 1
 414              		.cfi_startproc
 415              	.LVL34:
 474:lib/freertos/src/event_groups.c **** EventBits_t uxReturn;
 416              		.loc 1 474 1
 475:lib/freertos/src/event_groups.c **** 
 417              		.loc 1 475 1
 479:lib/freertos/src/event_groups.c **** 	configASSERT( ( uxBitsToClear & eventEVENT_BITS_CONTROL_BYTES ) == 0 );
 418              		.loc 1 479 2
 419 0000 01E5     		bne	a0,zero,.L49
 479:lib/freertos/src/event_groups.c **** 	configASSERT( ( uxBitsToClear & eventEVENT_BITS_CONTROL_BYTES ) == 0 );
 420              		.loc 1 479 2 discriminator 3
 421              	.LBB36:
 479:lib/freertos/src/event_groups.c **** 	configASSERT( ( uxBitsToClear & eventEVENT_BITS_CONTROL_BYTES ) == 0 );
 422              		.loc 1 479 2 discriminator 3
 479:lib/freertos/src/event_groups.c **** 	configASSERT( ( uxBitsToClear & eventEVENT_BITS_CONTROL_BYTES ) == 0 );
 423              		.loc 1 479 2 discriminator 3
 479:lib/freertos/src/event_groups.c **** 	configASSERT( ( uxBitsToClear & eventEVENT_BITS_CONTROL_BYTES ) == 0 );
 424              		.loc 1 479 2 discriminator 3
 425              	 #APP
 426              	# 479 "lib/freertos/src/event_groups.c" 1
 427              		csrrc a5, mstatus, 8
 428              	# 0 "" 2
 429              	.LVL35:
 479:lib/freertos/src/event_groups.c **** 	configASSERT( ( uxBitsToClear & eventEVENT_BITS_CONTROL_BYTES ) == 0 );
 430              		.loc 1 479 2 discriminator 3
 431              	 #NO_APP
 432              	.L50:
 433              	.LBE36:
 479:lib/freertos/src/event_groups.c **** 	configASSERT( ( uxBitsToClear & eventEVENT_BITS_CONTROL_BYTES ) == 0 );
 434              		.loc 1 479 2 discriminator 1
 479:lib/freertos/src/event_groups.c **** 	configASSERT( ( uxBitsToClear & eventEVENT_BITS_CONTROL_BYTES ) == 0 );
 435              		.loc 1 479 2 discriminator 1
 479:lib/freertos/src/event_groups.c **** 	configASSERT( ( uxBitsToClear & eventEVENT_BITS_CONTROL_BYTES ) == 0 );
 436              		.loc 1 479 2 discriminator 1
 437 0006 01A0     		j	.L50
 438              	.L49:
 479:lib/freertos/src/event_groups.c **** 	configASSERT( ( uxBitsToClear & eventEVENT_BITS_CONTROL_BYTES ) == 0 );
 439              		.loc 1 479 29 discriminator 2
 480:lib/freertos/src/event_groups.c **** 
 440              		.loc 1 480 2 discriminator 2
 441 0008 B70700FF 		li	a5,-16777216
 442 000c ED8F     		and	a5,a1,a5
 443 000e 81C7     		beq	a5,zero,.L51
 480:lib/freertos/src/event_groups.c **** 
 444              		.loc 1 480 2 discriminator 3
 445              	.LBB37:
GAS LISTING C:\Users\kasie\AppData\Local\Temp\ccsLLl8U.s 			page 23


 480:lib/freertos/src/event_groups.c **** 
 446              		.loc 1 480 2 discriminator 3
 480:lib/freertos/src/event_groups.c **** 
 447              		.loc 1 480 2 discriminator 3
 480:lib/freertos/src/event_groups.c **** 
 448              		.loc 1 480 2 discriminator 3
 449              	 #APP
 450              	# 480 "lib/freertos/src/event_groups.c" 1
 451              		csrrc a5, mstatus, 8
 452              	# 0 "" 2
 453              	.LVL36:
 480:lib/freertos/src/event_groups.c **** 
 454              		.loc 1 480 2 discriminator 3
 455              	 #NO_APP
 456              	.L52:
 457              	.LBE37:
 480:lib/freertos/src/event_groups.c **** 
 458              		.loc 1 480 2 discriminator 2
 480:lib/freertos/src/event_groups.c **** 
 459              		.loc 1 480 2 discriminator 2
 480:lib/freertos/src/event_groups.c **** 
 460              		.loc 1 480 2 discriminator 2
 461 0014 01A0     		j	.L52
 462              	.L51:
 473:lib/freertos/src/event_groups.c **** EventGroup_t *pxEventBits = ( EventGroup_t * ) xEventGroup;
 463              		.loc 1 473 1 is_stmt 0
 464 0016 0111     		addi	sp,sp,-32
 465              	.LCFI5:
 466              		.cfi_def_cfa_offset 32
 467 0018 06CE     		sw	ra,28(sp)
 468 001a 22CC     		sw	s0,24(sp)
 469 001c 26CA     		sw	s1,20(sp)
 470              		.cfi_offset 1, -4
 471              		.cfi_offset 8, -8
 472              		.cfi_offset 9, -12
 473 001e 2E84     		mv	s0,a1
 474 0020 AA84     		mv	s1,a0
 475              	.LVL37:
 476              	.LBB38:
 477              	.LBB39:
 480:lib/freertos/src/event_groups.c **** 
 478              		.loc 1 480 72 is_stmt 1
 482:lib/freertos/src/event_groups.c **** 	{
 479              		.loc 1 482 2
 480 0022 97000000 		call	vPortEnterCritical
 480      E7800000 
 481              	.LVL38:
 484:lib/freertos/src/event_groups.c **** 
 482              		.loc 1 484 60
 488:lib/freertos/src/event_groups.c **** 
 483              		.loc 1 488 3
 488:lib/freertos/src/event_groups.c **** 
 484              		.loc 1 488 12 is_stmt 0
 485 002a 8840     		lw	a0,0(s1)
 486              	.LVL39:
 491:lib/freertos/src/event_groups.c **** 	}
 487              		.loc 1 491 3 is_stmt 1
GAS LISTING C:\Users\kasie\AppData\Local\Temp\ccsLLl8U.s 			page 24


 491:lib/freertos/src/event_groups.c **** 	}
 488              		.loc 1 491 31 is_stmt 0
 489 002c 9345F4FF 		not	a1,s0
 491:lib/freertos/src/event_groups.c **** 	}
 490              		.loc 1 491 28
 491 0030 E98D     		and	a1,a1,a0
 492 0032 8CC0     		sw	a1,0(s1)
 493:lib/freertos/src/event_groups.c **** 
 493              		.loc 1 493 2 is_stmt 1
 491:lib/freertos/src/event_groups.c **** 	}
 494              		.loc 1 491 28 is_stmt 0
 495 0034 2AC6     		sw	a0,12(sp)
 493:lib/freertos/src/event_groups.c **** 
 496              		.loc 1 493 2
 497 0036 97000000 		call	vPortExitCritical
 497      E7800000 
 498              	.LVL40:
 495:lib/freertos/src/event_groups.c **** }
 499              		.loc 1 495 2 is_stmt 1
 500              	.LBE39:
 501              	.LBE38:
 496:lib/freertos/src/event_groups.c **** /*-----------------------------------------------------------*/
 502              		.loc 1 496 1 is_stmt 0
 503 003e F240     		lw	ra,28(sp)
 504              		.cfi_restore 1
 505 0040 6244     		lw	s0,24(sp)
 506              		.cfi_restore 8
 507              	.LVL41:
 508 0042 3245     		lw	a0,12(sp)
 509 0044 D244     		lw	s1,20(sp)
 510              		.cfi_restore 9
 511              	.LVL42:
 512 0046 0561     		addi	sp,sp,32
 513              	.LCFI6:
 514              		.cfi_def_cfa_offset 0
 515 0048 8280     		jr	ra
 516              		.cfi_endproc
 517              	.LFE5:
 519              		.section	.text.vEventGroupClearBitsCallback,"ax",@progbits
 520              		.align	1
 521              		.globl	vEventGroupClearBitsCallback
 523              	vEventGroupClearBitsCallback:
 524              	.LFB11:
 677:lib/freertos/src/event_groups.c **** 	( void ) xEventGroupClearBits( pvEventGroup, ( EventBits_t ) ulBitsToClear );
 525              		.loc 1 677 1 is_stmt 1
 526              		.cfi_startproc
 527              	.LVL43:
 678:lib/freertos/src/event_groups.c **** }
 528              		.loc 1 678 2
 678:lib/freertos/src/event_groups.c **** }
 529              		.loc 1 678 11 is_stmt 0
 530 0000 17030000 		tail	xEventGroupClearBits
 530      67000300 
 531              	.LVL44:
 532              		.cfi_endproc
 533              	.LFE11:
 535              		.section	.text.xEventGroupClearBitsFromISR,"ax",@progbits
GAS LISTING C:\Users\kasie\AppData\Local\Temp\ccsLLl8U.s 			page 25


 536              		.align	1
 537              		.globl	xEventGroupClearBitsFromISR
 539              	xEventGroupClearBitsFromISR:
 540              	.LFB6:
 502:lib/freertos/src/event_groups.c **** 		BaseType_t xReturn;
 541              		.loc 1 502 2 is_stmt 1
 542              		.cfi_startproc
 543              	.LVL45:
 503:lib/freertos/src/event_groups.c **** 
 544              		.loc 1 503 3
 505:lib/freertos/src/event_groups.c **** 		xReturn = xTimerPendFunctionCallFromISR( vEventGroupClearBitsCallback, ( void * ) xEventGroup, ( 
 545              		.loc 1 505 69
 506:lib/freertos/src/event_groups.c **** 
 546              		.loc 1 506 3
 506:lib/freertos/src/event_groups.c **** 
 547              		.loc 1 506 13 is_stmt 0
 548 0000 2E86     		mv	a2,a1
 549 0002 AA85     		mv	a1,a0
 550              	.LVL46:
 551 0004 37050000 		lui	a0,%hi(vEventGroupClearBitsCallback)
 552              	.LVL47:
 553 0008 8146     		li	a3,0
 554 000a 13050500 		addi	a0,a0,%lo(vEventGroupClearBitsCallback)
 555 000e 17030000 		tail	xTimerPendFunctionCallFromISR
 555      67000300 
 556              	.LVL48:
 557              		.cfi_endproc
 558              	.LFE6:
 560              		.section	.text.xEventGroupGetBitsFromISR,"ax",@progbits
 561              		.align	1
 562              		.globl	xEventGroupGetBitsFromISR
 564              	xEventGroupGetBitsFromISR:
 565              	.LFB7:
 515:lib/freertos/src/event_groups.c **** UBaseType_t uxSavedInterruptStatus;
 566              		.loc 1 515 1 is_stmt 1
 567              		.cfi_startproc
 568              	.LVL49:
 516:lib/freertos/src/event_groups.c **** EventGroup_t *pxEventBits = ( EventGroup_t * ) xEventGroup;
 569              		.loc 1 516 1
 517:lib/freertos/src/event_groups.c **** EventBits_t uxReturn;
 570              		.loc 1 517 1
 515:lib/freertos/src/event_groups.c **** UBaseType_t uxSavedInterruptStatus;
 571              		.loc 1 515 1 is_stmt 0
 572 0000 4111     		addi	sp,sp,-16
 573              	.LCFI7:
 574              		.cfi_def_cfa_offset 16
 575 0002 22C4     		sw	s0,8(sp)
 576              		.cfi_offset 8, -8
 577 0004 2A84     		mv	s0,a0
 578              	.LVL50:
 518:lib/freertos/src/event_groups.c **** 
 579              		.loc 1 518 1 is_stmt 1
 520:lib/freertos/src/event_groups.c **** 	{
 580              		.loc 1 520 2
 515:lib/freertos/src/event_groups.c **** UBaseType_t uxSavedInterruptStatus;
 581              		.loc 1 515 1 is_stmt 0
 582 0006 06C6     		sw	ra,12(sp)
GAS LISTING C:\Users\kasie\AppData\Local\Temp\ccsLLl8U.s 			page 26


 583              		.cfi_offset 1, -4
 520:lib/freertos/src/event_groups.c **** 	{
 584              		.loc 1 520 27
 585 0008 97000000 		call	xPortSetInterruptMask
 585      E7800000 
 586              	.LVL51:
 522:lib/freertos/src/event_groups.c **** 	}
 587              		.loc 1 522 3 is_stmt 1
 522:lib/freertos/src/event_groups.c **** 	}
 588              		.loc 1 522 12 is_stmt 0
 589 0010 0040     		lw	s0,0(s0)
 590              	.LVL52:
 524:lib/freertos/src/event_groups.c **** 
 591              		.loc 1 524 2 is_stmt 1
 592 0012 97000000 		call	vPortClearInterruptMask
 592      E7800000 
 593              	.LVL53:
 526:lib/freertos/src/event_groups.c **** }
 594              		.loc 1 526 2
 527:lib/freertos/src/event_groups.c **** /*-----------------------------------------------------------*/
 595              		.loc 1 527 1 is_stmt 0
 596 001a B240     		lw	ra,12(sp)
 597              		.cfi_restore 1
 598 001c 2285     		mv	a0,s0
 599 001e 2244     		lw	s0,8(sp)
 600              		.cfi_restore 8
 601              	.LVL54:
 602 0020 4101     		addi	sp,sp,16
 603              	.LCFI8:
 604              		.cfi_def_cfa_offset 0
 605 0022 8280     		jr	ra
 606              		.cfi_endproc
 607              	.LFE7:
 609              		.section	.text.xEventGroupSetBits,"ax",@progbits
 610              		.align	1
 611              		.globl	xEventGroupSetBits
 613              	xEventGroupSetBits:
 614              	.LFB8:
 531:lib/freertos/src/event_groups.c **** ListItem_t *pxListItem, *pxNext;
 615              		.loc 1 531 1 is_stmt 1
 616              		.cfi_startproc
 617              	.LVL55:
 532:lib/freertos/src/event_groups.c **** ListItem_t const *pxListEnd;
 618              		.loc 1 532 1
 533:lib/freertos/src/event_groups.c **** List_t *pxList;
 619              		.loc 1 533 1
 534:lib/freertos/src/event_groups.c **** EventBits_t uxBitsToClear = 0, uxBitsWaitedFor, uxControlBits;
 620              		.loc 1 534 1
 535:lib/freertos/src/event_groups.c **** EventGroup_t *pxEventBits = ( EventGroup_t * ) xEventGroup;
 621              		.loc 1 535 1
 536:lib/freertos/src/event_groups.c **** BaseType_t xMatchFound = pdFALSE;
 622              		.loc 1 536 1
 537:lib/freertos/src/event_groups.c **** 
 623              		.loc 1 537 1
 541:lib/freertos/src/event_groups.c **** 	configASSERT( ( uxBitsToSet & eventEVENT_BITS_CONTROL_BYTES ) == 0 );
 624              		.loc 1 541 2
 625 0000 01E5     		bne	a0,zero,.L60
GAS LISTING C:\Users\kasie\AppData\Local\Temp\ccsLLl8U.s 			page 27


 541:lib/freertos/src/event_groups.c **** 	configASSERT( ( uxBitsToSet & eventEVENT_BITS_CONTROL_BYTES ) == 0 );
 626              		.loc 1 541 2 discriminator 3
 627              	.LBB46:
 541:lib/freertos/src/event_groups.c **** 	configASSERT( ( uxBitsToSet & eventEVENT_BITS_CONTROL_BYTES ) == 0 );
 628              		.loc 1 541 2 discriminator 3
 541:lib/freertos/src/event_groups.c **** 	configASSERT( ( uxBitsToSet & eventEVENT_BITS_CONTROL_BYTES ) == 0 );
 629              		.loc 1 541 2 discriminator 3
 541:lib/freertos/src/event_groups.c **** 	configASSERT( ( uxBitsToSet & eventEVENT_BITS_CONTROL_BYTES ) == 0 );
 630              		.loc 1 541 2 discriminator 3
 631              	 #APP
 632              	# 541 "lib/freertos/src/event_groups.c" 1
 633              		csrrc a5, mstatus, 8
 634              	# 0 "" 2
 635              	.LVL56:
 541:lib/freertos/src/event_groups.c **** 	configASSERT( ( uxBitsToSet & eventEVENT_BITS_CONTROL_BYTES ) == 0 );
 636              		.loc 1 541 2 discriminator 3
 637              	 #NO_APP
 638              	.L61:
 639              	.LBE46:
 541:lib/freertos/src/event_groups.c **** 	configASSERT( ( uxBitsToSet & eventEVENT_BITS_CONTROL_BYTES ) == 0 );
 640              		.loc 1 541 2 discriminator 1
 541:lib/freertos/src/event_groups.c **** 	configASSERT( ( uxBitsToSet & eventEVENT_BITS_CONTROL_BYTES ) == 0 );
 641              		.loc 1 541 2 discriminator 1
 541:lib/freertos/src/event_groups.c **** 	configASSERT( ( uxBitsToSet & eventEVENT_BITS_CONTROL_BYTES ) == 0 );
 642              		.loc 1 541 2 discriminator 1
 643 0006 01A0     		j	.L61
 644              	.L60:
 541:lib/freertos/src/event_groups.c **** 	configASSERT( ( uxBitsToSet & eventEVENT_BITS_CONTROL_BYTES ) == 0 );
 645              		.loc 1 541 29 discriminator 2
 542:lib/freertos/src/event_groups.c **** 
 646              		.loc 1 542 2 discriminator 2
 531:lib/freertos/src/event_groups.c **** ListItem_t *pxListItem, *pxNext;
 647              		.loc 1 531 1 is_stmt 0 discriminator 2
 648 0008 0111     		addi	sp,sp,-32
 649              	.LCFI9:
 650              		.cfi_def_cfa_offset 32
 651 000a 26CA     		sw	s1,20(sp)
 652              		.cfi_offset 9, -12
 542:lib/freertos/src/event_groups.c **** 
 653              		.loc 1 542 2 discriminator 2
 654 000c B70400FF 		li	s1,-16777216
 531:lib/freertos/src/event_groups.c **** ListItem_t *pxListItem, *pxNext;
 655              		.loc 1 531 1 discriminator 2
 656 0010 06CE     		sw	ra,28(sp)
 657 0012 22CC     		sw	s0,24(sp)
 658 0014 4AC8     		sw	s2,16(sp)
 659 0016 4EC6     		sw	s3,12(sp)
 660 0018 52C4     		sw	s4,8(sp)
 661 001a 56C2     		sw	s5,4(sp)
 662              		.cfi_offset 1, -4
 663              		.cfi_offset 8, -8
 664              		.cfi_offset 18, -16
 665              		.cfi_offset 19, -20
 666              		.cfi_offset 20, -24
 667              		.cfi_offset 21, -28
 542:lib/freertos/src/event_groups.c **** 
 668              		.loc 1 542 2 discriminator 2
GAS LISTING C:\Users\kasie\AppData\Local\Temp\ccsLLl8U.s 			page 28


 669 001c ED8C     		and	s1,a1,s1
 670 001e 81C4     		beq	s1,zero,.L62
 542:lib/freertos/src/event_groups.c **** 
 671              		.loc 1 542 2 is_stmt 1 discriminator 3
 672              	.LBB47:
 542:lib/freertos/src/event_groups.c **** 
 673              		.loc 1 542 2 discriminator 3
 542:lib/freertos/src/event_groups.c **** 
 674              		.loc 1 542 2 discriminator 3
 542:lib/freertos/src/event_groups.c **** 
 675              		.loc 1 542 2 discriminator 3
 676              	 #APP
 677              	# 542 "lib/freertos/src/event_groups.c" 1
 678              		csrrc a5, mstatus, 8
 679              	# 0 "" 2
 680              	.LVL57:
 542:lib/freertos/src/event_groups.c **** 
 681              		.loc 1 542 2 discriminator 3
 682              	 #NO_APP
 683              	.L63:
 684              	.LBE47:
 542:lib/freertos/src/event_groups.c **** 
 685              		.loc 1 542 2 discriminator 2
 542:lib/freertos/src/event_groups.c **** 
 686              		.loc 1 542 2 discriminator 2
 542:lib/freertos/src/event_groups.c **** 
 687              		.loc 1 542 2 discriminator 2
 688 0024 01A0     		j	.L63
 689              	.L62:
 690 0026 2E89     		mv	s2,a1
 691 0028 2A84     		mv	s0,a0
 692              	.LVL58:
 693              	.LBB48:
 694              	.LBB49:
 542:lib/freertos/src/event_groups.c **** 
 695              		.loc 1 542 70
 544:lib/freertos/src/event_groups.c **** 	pxListEnd = listGET_END_MARKER( pxList ); /*lint !e826 !e740 The mini list structure is used as th
 696              		.loc 1 544 2
 545:lib/freertos/src/event_groups.c **** 	vTaskSuspendAll();
 697              		.loc 1 545 2
 545:lib/freertos/src/event_groups.c **** 	vTaskSuspendAll();
 698              		.loc 1 545 12 is_stmt 0
 699 002a 9309C500 		addi	s3,a0,12
 700              	.LVL59:
 546:lib/freertos/src/event_groups.c **** 	{
 701              		.loc 1 546 2 is_stmt 1
 702 002e 97000000 		call	vTaskSuspendAll
 702      E7800000 
 703              	.LVL60:
 548:lib/freertos/src/event_groups.c **** 
 704              		.loc 1 548 56
 550:lib/freertos/src/event_groups.c **** 
 705              		.loc 1 550 3
 553:lib/freertos/src/event_groups.c **** 
 706              		.loc 1 553 28 is_stmt 0
 707 0036 0C40     		lw	a1,0(s0)
 550:lib/freertos/src/event_groups.c **** 
GAS LISTING C:\Users\kasie\AppData\Local\Temp\ccsLLl8U.s 			page 29


 708              		.loc 1 550 14
 709 0038 0848     		lw	a0,16(s0)
 710              	.LVL61:
 553:lib/freertos/src/event_groups.c **** 
 711              		.loc 1 553 3 is_stmt 1
 605:lib/freertos/src/event_groups.c **** 			}
 712              		.loc 1 605 14 is_stmt 0
 713 003a 370A0002 		li	s4,33554432
 553:lib/freertos/src/event_groups.c **** 
 714              		.loc 1 553 28
 715 003e B3E52501 		or	a1,a1,s2
 564:lib/freertos/src/event_groups.c **** 
 716              		.loc 1 564 20
 717 0042 37090001 		li	s2,16777216
 718              	.LVL62:
 553:lib/freertos/src/event_groups.c **** 
 719              		.loc 1 553 28
 720 0046 0CC0     		sw	a1,0(s0)
 556:lib/freertos/src/event_groups.c **** 		{
 721              		.loc 1 556 3 is_stmt 1
 564:lib/freertos/src/event_groups.c **** 
 722              		.loc 1 564 20 is_stmt 0
 723 0048 7D19     		addi	s2,s2,-1
 724              	.LVL63:
 725              	.L64:
 726 004a 0C40     		lw	a1,0(s0)
 556:lib/freertos/src/event_groups.c **** 		{
 727              		.loc 1 556 8
 728 004c 6394A902 		bne	s3,a0,.L69
 616:lib/freertos/src/event_groups.c **** 	}
 729              		.loc 1 616 3 is_stmt 1
 616:lib/freertos/src/event_groups.c **** 	}
 730              		.loc 1 616 31 is_stmt 0
 731 0050 93C4F4FF 		not	s1,s1
 732              	.LVL64:
 616:lib/freertos/src/event_groups.c **** 	}
 733              		.loc 1 616 28
 734 0054 ED8C     		and	s1,s1,a1
 735              	.LVL65:
 736 0056 04C0     		sw	s1,0(s0)
 618:lib/freertos/src/event_groups.c **** 
 737              		.loc 1 618 2 is_stmt 1
 618:lib/freertos/src/event_groups.c **** 
 738              		.loc 1 618 11 is_stmt 0
 739 0058 97000000 		call	xTaskResumeAll
 739      E7800000 
 740              	.LVL66:
 620:lib/freertos/src/event_groups.c **** }
 741              		.loc 1 620 2 is_stmt 1
 742              	.LBE49:
 743              	.LBE48:
 621:lib/freertos/src/event_groups.c **** /*-----------------------------------------------------------*/
 744              		.loc 1 621 1 is_stmt 0
 745 0060 0840     		lw	a0,0(s0)
 746 0062 F240     		lw	ra,28(sp)
 747              		.cfi_remember_state
 748              		.cfi_restore 1
GAS LISTING C:\Users\kasie\AppData\Local\Temp\ccsLLl8U.s 			page 30


 749 0064 6244     		lw	s0,24(sp)
 750              		.cfi_restore 8
 751              	.LVL67:
 752 0066 D244     		lw	s1,20(sp)
 753              		.cfi_restore 9
 754 0068 4249     		lw	s2,16(sp)
 755              		.cfi_restore 18
 756 006a B249     		lw	s3,12(sp)
 757              		.cfi_restore 19
 758              	.LVL68:
 759 006c 224A     		lw	s4,8(sp)
 760              		.cfi_restore 20
 761 006e 924A     		lw	s5,4(sp)
 762              		.cfi_restore 21
 763 0070 0561     		addi	sp,sp,32
 764              	.LCFI10:
 765              		.cfi_def_cfa_offset 0
 766 0072 8280     		jr	ra
 767              	.LVL69:
 768              	.L69:
 769              	.LCFI11:
 770              		.cfi_restore_state
 771              	.LBB52:
 772              	.LBB50:
 558:lib/freertos/src/event_groups.c **** 			uxBitsWaitedFor = listGET_LIST_ITEM_VALUE( pxListItem );
 773              		.loc 1 558 4 is_stmt 1
 559:lib/freertos/src/event_groups.c **** 			xMatchFound = pdFALSE;
 774              		.loc 1 559 20 is_stmt 0
 775 0074 1841     		lw	a4,0(a0)
 558:lib/freertos/src/event_groups.c **** 			uxBitsWaitedFor = listGET_LIST_ITEM_VALUE( pxListItem );
 776              		.loc 1 558 11
 777 0076 832A4500 		lw	s5,4(a0)
 778              	.LVL70:
 559:lib/freertos/src/event_groups.c **** 			xMatchFound = pdFALSE;
 779              		.loc 1 559 4 is_stmt 1
 560:lib/freertos/src/event_groups.c **** 
 780              		.loc 1 560 4
 563:lib/freertos/src/event_groups.c **** 			uxBitsWaitedFor &= ~eventEVENT_BITS_CONTROL_BYTES;
 781              		.loc 1 563 4
 564:lib/freertos/src/event_groups.c **** 
 782              		.loc 1 564 4
 564:lib/freertos/src/event_groups.c **** 
 783              		.loc 1 564 20 is_stmt 0
 784 007a B3772701 		and	a5,a4,s2
 785              	.LVL71:
 566:lib/freertos/src/event_groups.c **** 			{
 786              		.loc 1 566 4 is_stmt 1
 566:lib/freertos/src/event_groups.c **** 			{
 787              		.loc 1 566 6 is_stmt 0
 788 007e 13165700 		slli	a2,a4,5
 789 0082 B3F6B700 		and	a3,a5,a1
 790 0086 63450600 		blt	a2,zero,.L65
 569:lib/freertos/src/event_groups.c **** 				{
 791              		.loc 1 569 5 is_stmt 1
 569:lib/freertos/src/event_groups.c **** 				{
 792              		.loc 1 569 7 is_stmt 0
 793 008a 89E6     		bne	a3,zero,.L66
GAS LISTING C:\Users\kasie\AppData\Local\Temp\ccsLLl8U.s 			page 31


 794              	.LVL72:
 795              	.L67:
 796              	.LBE50:
 797              	.LBE52:
 531:lib/freertos/src/event_groups.c **** ListItem_t *pxListItem, *pxNext;
 798              		.loc 1 531 1
 799 008c 5685     		mv	a0,s5
 800 008e 75BF     		j	.L64
 801              	.LVL73:
 802              	.L65:
 803              	.LBB53:
 804              	.LBB51:
 578:lib/freertos/src/event_groups.c **** 			{
 805              		.loc 1 578 9 is_stmt 1
 578:lib/freertos/src/event_groups.c **** 			{
 806              		.loc 1 578 11 is_stmt 0
 807 0090 E39ED7FE 		bne	a5,a3,.L67
 808              	.L66:
 591:lib/freertos/src/event_groups.c **** 				{
 809              		.loc 1 591 5 is_stmt 1
 591:lib/freertos/src/event_groups.c **** 				{
 810              		.loc 1 591 7 is_stmt 0
 811 0094 93167700 		slli	a3,a4,7
 812 0098 63D30600 		bge	a3,zero,.L68
 593:lib/freertos/src/event_groups.c **** 				}
 813              		.loc 1 593 6 is_stmt 1
 593:lib/freertos/src/event_groups.c **** 				}
 814              		.loc 1 593 20 is_stmt 0
 815 009c DD8C     		or	s1,s1,a5
 816              	.LVL74:
 817              	.L68:
 597:lib/freertos/src/event_groups.c **** 				}
 818              		.loc 1 597 30 is_stmt 1
 605:lib/freertos/src/event_groups.c **** 			}
 819              		.loc 1 605 5
 605:lib/freertos/src/event_groups.c **** 			}
 820              		.loc 1 605 14 is_stmt 0
 821 009e B3E54501 		or	a1,a1,s4
 822 00a2 97000000 		call	xTaskRemoveFromUnorderedEventList
 822      E7800000 
 823              	.LVL75:
 824 00aa CDB7     		j	.L67
 825              	.LBE51:
 826              	.LBE53:
 827              		.cfi_endproc
 828              	.LFE8:
 830              		.section	.text.xEventGroupSync,"ax",@progbits
 831              		.align	1
 832              		.globl	xEventGroupSync
 834              	xEventGroupSync:
 835              	.LFB3:
 209:lib/freertos/src/event_groups.c **** EventBits_t uxOriginalBitValue, uxReturn;
 836              		.loc 1 209 1 is_stmt 1
 837              		.cfi_startproc
 838              	.LVL76:
 210:lib/freertos/src/event_groups.c **** EventGroup_t *pxEventBits = ( EventGroup_t * ) xEventGroup;
 839              		.loc 1 210 1
GAS LISTING C:\Users\kasie\AppData\Local\Temp\ccsLLl8U.s 			page 32


 211:lib/freertos/src/event_groups.c **** BaseType_t xAlreadyYielded;
 840              		.loc 1 211 1
 212:lib/freertos/src/event_groups.c **** BaseType_t xTimeoutOccurred = pdFALSE;
 841              		.loc 1 212 1
 213:lib/freertos/src/event_groups.c **** 
 842              		.loc 1 213 1
 215:lib/freertos/src/event_groups.c **** 	configASSERT( uxBitsToWaitFor != 0 );
 843              		.loc 1 215 2
 844 0000 B70700FF 		li	a5,-16777216
 845 0004 F18F     		and	a5,a2,a5
 846 0006 81C7     		beq	a5,zero,.L76
 215:lib/freertos/src/event_groups.c **** 	configASSERT( uxBitsToWaitFor != 0 );
 847              		.loc 1 215 2 discriminator 3
 848              	.LBB54:
 215:lib/freertos/src/event_groups.c **** 	configASSERT( uxBitsToWaitFor != 0 );
 849              		.loc 1 215 2 discriminator 3
 215:lib/freertos/src/event_groups.c **** 	configASSERT( uxBitsToWaitFor != 0 );
 850              		.loc 1 215 2 discriminator 3
 215:lib/freertos/src/event_groups.c **** 	configASSERT( uxBitsToWaitFor != 0 );
 851              		.loc 1 215 2 discriminator 3
 852              	 #APP
 853              	# 215 "lib/freertos/src/event_groups.c" 1
 854              		csrrc a5, mstatus, 8
 855              	# 0 "" 2
 856              	.LVL77:
 215:lib/freertos/src/event_groups.c **** 	configASSERT( uxBitsToWaitFor != 0 );
 857              		.loc 1 215 2 discriminator 3
 858              	 #NO_APP
 859              	.L77:
 860              	.LBE54:
 215:lib/freertos/src/event_groups.c **** 	configASSERT( uxBitsToWaitFor != 0 );
 861              		.loc 1 215 2 discriminator 1
 215:lib/freertos/src/event_groups.c **** 	configASSERT( uxBitsToWaitFor != 0 );
 862              		.loc 1 215 2 discriminator 1
 215:lib/freertos/src/event_groups.c **** 	configASSERT( uxBitsToWaitFor != 0 );
 863              		.loc 1 215 2 discriminator 1
 864 000c 01A0     		j	.L77
 865              	.L76:
 209:lib/freertos/src/event_groups.c **** EventBits_t uxOriginalBitValue, uxReturn;
 866              		.loc 1 209 1 is_stmt 0 discriminator 2
 867 000e 0111     		addi	sp,sp,-32
 868              	.LCFI12:
 869              		.cfi_def_cfa_offset 32
 870 0010 26CA     		sw	s1,20(sp)
 871 0012 06CE     		sw	ra,28(sp)
 872 0014 22CC     		sw	s0,24(sp)
 873 0016 4AC8     		sw	s2,16(sp)
 874 0018 4EC6     		sw	s3,12(sp)
 875 001a 52C4     		sw	s4,8(sp)
 876              		.cfi_offset 9, -12
 877              		.cfi_offset 1, -4
 878              		.cfi_offset 8, -8
 879              		.cfi_offset 18, -16
 880              		.cfi_offset 19, -20
 881              		.cfi_offset 20, -24
 882 001c B284     		mv	s1,a2
 215:lib/freertos/src/event_groups.c **** 	configASSERT( uxBitsToWaitFor != 0 );
GAS LISTING C:\Users\kasie\AppData\Local\Temp\ccsLLl8U.s 			page 33


 883              		.loc 1 215 74 is_stmt 1 discriminator 2
 216:lib/freertos/src/event_groups.c **** 	#if ( ( INCLUDE_xTaskGetSchedulerState == 1 ) || ( configUSE_TIMERS == 1 ) )
 884              		.loc 1 216 2 discriminator 2
 885 001e 01E6     		bne	a2,zero,.L78
 886              	.LVL78:
 216:lib/freertos/src/event_groups.c **** 	#if ( ( INCLUDE_xTaskGetSchedulerState == 1 ) || ( configUSE_TIMERS == 1 ) )
 887              		.loc 1 216 2 discriminator 3
 888              	.LBB55:
 216:lib/freertos/src/event_groups.c **** 	#if ( ( INCLUDE_xTaskGetSchedulerState == 1 ) || ( configUSE_TIMERS == 1 ) )
 889              		.loc 1 216 2 discriminator 3
 216:lib/freertos/src/event_groups.c **** 	#if ( ( INCLUDE_xTaskGetSchedulerState == 1 ) || ( configUSE_TIMERS == 1 ) )
 890              		.loc 1 216 2 discriminator 3
 216:lib/freertos/src/event_groups.c **** 	#if ( ( INCLUDE_xTaskGetSchedulerState == 1 ) || ( configUSE_TIMERS == 1 ) )
 891              		.loc 1 216 2 discriminator 3
 892              	 #APP
 893              	# 216 "lib/freertos/src/event_groups.c" 1
 894              		csrrc a5, mstatus, 8
 895              	# 0 "" 2
 896              	.LVL79:
 216:lib/freertos/src/event_groups.c **** 	#if ( ( INCLUDE_xTaskGetSchedulerState == 1 ) || ( configUSE_TIMERS == 1 ) )
 897              		.loc 1 216 2 discriminator 3
 898              	 #NO_APP
 899              	.L79:
 900              	.LBE55:
 216:lib/freertos/src/event_groups.c **** 	#if ( ( INCLUDE_xTaskGetSchedulerState == 1 ) || ( configUSE_TIMERS == 1 ) )
 901              		.loc 1 216 2 discriminator 2
 216:lib/freertos/src/event_groups.c **** 	#if ( ( INCLUDE_xTaskGetSchedulerState == 1 ) || ( configUSE_TIMERS == 1 ) )
 902              		.loc 1 216 2 discriminator 2
 216:lib/freertos/src/event_groups.c **** 	#if ( ( INCLUDE_xTaskGetSchedulerState == 1 ) || ( configUSE_TIMERS == 1 ) )
 903              		.loc 1 216 2 discriminator 2
 904 0024 01A0     		j	.L79
 905              	.L78:
 906 0026 2A89     		mv	s2,a0
 907 0028 2E8A     		mv	s4,a1
 908 002a B689     		mv	s3,a3
 216:lib/freertos/src/event_groups.c **** 	#if ( ( INCLUDE_xTaskGetSchedulerState == 1 ) || ( configUSE_TIMERS == 1 ) )
 909              		.loc 1 216 38 discriminator 2
 219:lib/freertos/src/event_groups.c **** 	}
 910              		.loc 1 219 3 discriminator 2
 911 002c 97000000 		call	xTaskGetSchedulerState
 911      E7800000 
 912              	.LVL80:
 913 0034 11E5     		bne	a0,zero,.L80
 914 0036 63850900 		beq	s3,zero,.L80
 219:lib/freertos/src/event_groups.c **** 	}
 915              		.loc 1 219 3
 916              	.LBB56:
 219:lib/freertos/src/event_groups.c **** 	}
 917              		.loc 1 219 3
 219:lib/freertos/src/event_groups.c **** 	}
 918              		.loc 1 219 3
 219:lib/freertos/src/event_groups.c **** 	}
 919              		.loc 1 219 3
 920              	 #APP
 921              	# 219 "lib/freertos/src/event_groups.c" 1
 922              		csrrc a5, mstatus, 8
 923              	# 0 "" 2
GAS LISTING C:\Users\kasie\AppData\Local\Temp\ccsLLl8U.s 			page 34


 924              	.LVL81:
 219:lib/freertos/src/event_groups.c **** 	}
 925              		.loc 1 219 3
 926              	 #NO_APP
 927              	.L81:
 928              	.LBE56:
 219:lib/freertos/src/event_groups.c **** 	}
 929              		.loc 1 219 3 discriminator 3
 219:lib/freertos/src/event_groups.c **** 	}
 930              		.loc 1 219 3 discriminator 3
 219:lib/freertos/src/event_groups.c **** 	}
 931              		.loc 1 219 3 discriminator 3
 932 003e 01A0     		j	.L81
 933              	.L80:
 219:lib/freertos/src/event_groups.c **** 	}
 934              		.loc 1 219 104 discriminator 8
 223:lib/freertos/src/event_groups.c **** 	{
 935              		.loc 1 223 2 discriminator 8
 936 0040 97000000 		call	vTaskSuspendAll
 936      E7800000 
 937              	.LVL82:
 225:lib/freertos/src/event_groups.c **** 
 938              		.loc 1 225 3 discriminator 8
 225:lib/freertos/src/event_groups.c **** 
 939              		.loc 1 225 22 is_stmt 0 discriminator 8
 940 0048 03240900 		lw	s0,0(s2)
 941              	.LVL83:
 227:lib/freertos/src/event_groups.c **** 
 942              		.loc 1 227 3 is_stmt 1 discriminator 8
 227:lib/freertos/src/event_groups.c **** 
 943              		.loc 1 227 12 is_stmt 0 discriminator 8
 944 004c D285     		mv	a1,s4
 945 004e 4A85     		mv	a0,s2
 946 0050 97000000 		call	xEventGroupSetBits
 946      E7800000 
 947              	.LVL84:
 229:lib/freertos/src/event_groups.c **** 		{
 948              		.loc 1 229 3 is_stmt 1 discriminator 8
 229:lib/freertos/src/event_groups.c **** 		{
 949              		.loc 1 229 30 is_stmt 0 discriminator 8
 950 0058 33644401 		or	s0,s0,s4
 951              	.LVL85:
 229:lib/freertos/src/event_groups.c **** 		{
 952              		.loc 1 229 46 discriminator 8
 953 005c B3779400 		and	a5,s0,s1
 229:lib/freertos/src/event_groups.c **** 		{
 954              		.loc 1 229 5 discriminator 8
 955 0060 639C9706 		bne	a5,s1,.L82
 232:lib/freertos/src/event_groups.c **** 
 956              		.loc 1 232 4 is_stmt 1
 957              	.LVL86:
 236:lib/freertos/src/event_groups.c **** 
 958              		.loc 1 236 4
 236:lib/freertos/src/event_groups.c **** 
 959              		.loc 1 236 29 is_stmt 0
 960 0064 03270900 		lw	a4,0(s2)
 236:lib/freertos/src/event_groups.c **** 
GAS LISTING C:\Users\kasie\AppData\Local\Temp\ccsLLl8U.s 			page 35


 961              		.loc 1 236 32
 962 0068 93C7F4FF 		not	a5,s1
 238:lib/freertos/src/event_groups.c **** 		}
 963              		.loc 1 238 17
 964 006c 8149     		li	s3,0
 965              	.LVL87:
 236:lib/freertos/src/event_groups.c **** 
 966              		.loc 1 236 29
 967 006e F98F     		and	a5,a4,a5
 968 0070 2320F900 		sw	a5,0(s2)
 238:lib/freertos/src/event_groups.c **** 		}
 969              		.loc 1 238 4 is_stmt 1
 970              	.LVL88:
 971              	.L83:
 265:lib/freertos/src/event_groups.c **** 
 972              		.loc 1 265 2
 265:lib/freertos/src/event_groups.c **** 
 973              		.loc 1 265 20 is_stmt 0
 974 0074 97000000 		call	xTaskResumeAll
 974      E7800000 
 975              	.LVL89:
 267:lib/freertos/src/event_groups.c **** 	{
 976              		.loc 1 267 2 is_stmt 1
 267:lib/freertos/src/event_groups.c **** 	{
 977              		.loc 1 267 4 is_stmt 0
 978 007c 63850904 		beq	s3,zero,.L75
 269:lib/freertos/src/event_groups.c **** 		{
 979              		.loc 1 269 3 is_stmt 1
 269:lib/freertos/src/event_groups.c **** 		{
 980              		.loc 1 269 5 is_stmt 0
 981 0080 09E5     		bne	a0,zero,.L86
 271:lib/freertos/src/event_groups.c **** 		}
 982              		.loc 1 271 4 is_stmt 1
 983              	.LBB57:
 271:lib/freertos/src/event_groups.c **** 		}
 984              		.loc 1 271 4
 985 0082 13068002 		li	a2,40
 271:lib/freertos/src/event_groups.c **** 		}
 986              		.loc 1 271 4
 987              	 #APP
 988              	# 271 "lib/freertos/src/event_groups.c" 1
 271:lib/freertos/src/event_groups.c **** 		}
 989              		ecall
 990              	# 0 "" 2
 991              		.loc 1 271 4
 992              	 #NO_APP
 993              	.LBE57:
 271:lib/freertos/src/event_groups.c **** 		}
 994              		.loc 1 271 26
 995              	.L86:
 275:lib/freertos/src/event_groups.c **** 		}
 996              		.loc 1 275 28
 282:lib/freertos/src/event_groups.c **** 
 997              		.loc 1 282 3
 282:lib/freertos/src/event_groups.c **** 
 998              		.loc 1 282 14 is_stmt 0
 999 008a 97000000 		call	uxTaskResetEventItemValue
GAS LISTING C:\Users\kasie\AppData\Local\Temp\ccsLLl8U.s 			page 36


 999      E7800000 
 1000              	.LVL90:
 284:lib/freertos/src/event_groups.c **** 		{
 1001              		.loc 1 284 5
 1002 0092 93176500 		slli	a5,a0,6
 282:lib/freertos/src/event_groups.c **** 
 1003              		.loc 1 282 14
 1004 0096 2A84     		mv	s0,a0
 1005              	.LVL91:
 284:lib/freertos/src/event_groups.c **** 		{
 1006              		.loc 1 284 3 is_stmt 1
 284:lib/freertos/src/event_groups.c **** 		{
 1007              		.loc 1 284 5 is_stmt 0
 1008 0098 63C50702 		blt	a5,zero,.L87
 287:lib/freertos/src/event_groups.c **** 			{
 1009              		.loc 1 287 4 is_stmt 1
 1010 009c 97000000 		call	vPortEnterCritical
 1010      E7800000 
 1011              	.LVL92:
 289:lib/freertos/src/event_groups.c **** 
 1012              		.loc 1 289 5
 289:lib/freertos/src/event_groups.c **** 
 1013              		.loc 1 289 14 is_stmt 0
 1014 00a4 03240900 		lw	s0,0(s2)
 295:lib/freertos/src/event_groups.c **** 				{
 1015              		.loc 1 295 5 is_stmt 1
 295:lib/freertos/src/event_groups.c **** 				{
 1016              		.loc 1 295 20 is_stmt 0
 1017 00a8 B3F78400 		and	a5,s1,s0
 295:lib/freertos/src/event_groups.c **** 				{
 1018              		.loc 1 295 7
 1019 00ac 63979700 		bne	a5,s1,.L88
 297:lib/freertos/src/event_groups.c **** 				}
 1020              		.loc 1 297 6 is_stmt 1
 297:lib/freertos/src/event_groups.c **** 				}
 1021              		.loc 1 297 34 is_stmt 0
 1022 00b0 93C4F4FF 		not	s1,s1
 1023              	.LVL93:
 297:lib/freertos/src/event_groups.c **** 				}
 1024              		.loc 1 297 31
 1025 00b4 E18C     		and	s1,s1,s0
 1026              	.LVL94:
 1027 00b6 23209900 		sw	s1,0(s2)
 1028              	.LVL95:
 1029              	.L88:
 301:lib/freertos/src/event_groups.c **** 				}
 1030              		.loc 1 301 30 is_stmt 1
 304:lib/freertos/src/event_groups.c **** 
 1031              		.loc 1 304 4
 1032 00ba 97000000 		call	vPortExitCritical
 1032      E7800000 
 1033              	.LVL96:
 306:lib/freertos/src/event_groups.c **** 		}
 1034              		.loc 1 306 4
 1035              	.L87:
 311:lib/freertos/src/event_groups.c **** 
 1036              		.loc 1 311 3
GAS LISTING C:\Users\kasie\AppData\Local\Temp\ccsLLl8U.s 			page 37


 315:lib/freertos/src/event_groups.c **** 	}
 1037              		.loc 1 315 3
 315:lib/freertos/src/event_groups.c **** 	}
 1038              		.loc 1 315 12 is_stmt 0
 1039 00c2 2204     		slli	s0,s0,8
 1040              	.LVL97:
 1041 00c4 2180     		srli	s0,s0,8
 318:lib/freertos/src/event_groups.c **** 
 1042              		.loc 1 318 2 is_stmt 1
 320:lib/freertos/src/event_groups.c **** }
 1043              		.loc 1 320 2
 1044              	.L75:
 321:lib/freertos/src/event_groups.c **** /*-----------------------------------------------------------*/
 1045              		.loc 1 321 1 is_stmt 0
 1046 00c6 2285     		mv	a0,s0
 1047 00c8 F240     		lw	ra,28(sp)
 1048              		.cfi_remember_state
 1049              		.cfi_restore 1
 1050 00ca 6244     		lw	s0,24(sp)
 1051              		.cfi_restore 8
 1052 00cc D244     		lw	s1,20(sp)
 1053              		.cfi_restore 9
 1054 00ce 4249     		lw	s2,16(sp)
 1055              		.cfi_restore 18
 1056              	.LVL98:
 1057 00d0 B249     		lw	s3,12(sp)
 1058              		.cfi_restore 19
 1059 00d2 224A     		lw	s4,8(sp)
 1060              		.cfi_restore 20
 1061              	.LVL99:
 1062 00d4 0561     		addi	sp,sp,32
 1063              	.LCFI13:
 1064              		.cfi_def_cfa_offset 0
 1065 00d6 8280     		jr	ra
 1066              	.LVL100:
 1067              	.L82:
 1068              	.LCFI14:
 1069              		.cfi_restore_state
 242:lib/freertos/src/event_groups.c **** 			{
 1070              		.loc 1 242 4 is_stmt 1
 242:lib/freertos/src/event_groups.c **** 			{
 1071              		.loc 1 242 6 is_stmt 0
 1072 00d8 638E0900 		beq	s3,zero,.L84
 244:lib/freertos/src/event_groups.c **** 
 1073              		.loc 1 244 77 is_stmt 1
 249:lib/freertos/src/event_groups.c **** 
 1074              		.loc 1 249 5
 1075 00dc B7050005 		li	a1,83886080
 1076 00e0 4E86     		mv	a2,s3
 1077 00e2 C58D     		or	a1,s1,a1
 1078 00e4 13054900 		addi	a0,s2,4
 1079 00e8 97000000 		call	vTaskPlaceOnUnorderedEventList
 1079      E7800000 
 1080              	.LVL101:
 255:lib/freertos/src/event_groups.c **** 			}
 1081              		.loc 1 255 5
 255:lib/freertos/src/event_groups.c **** 			}
GAS LISTING C:\Users\kasie\AppData\Local\Temp\ccsLLl8U.s 			page 38


 1082              		.loc 1 255 14 is_stmt 0
 1083 00f0 0144     		li	s0,0
 1084 00f2 49B7     		j	.L83
 1085              	.LVL102:
 1086              	.L84:
 261:lib/freertos/src/event_groups.c **** 			}
 1087              		.loc 1 261 5 is_stmt 1
 261:lib/freertos/src/event_groups.c **** 			}
 1088              		.loc 1 261 14 is_stmt 0
 1089 00f4 03240900 		lw	s0,0(s2)
 1090              	.LVL103:
 1091 00f8 B5BF     		j	.L83
 1092              		.cfi_endproc
 1093              	.LFE3:
 1095              		.section	.text.vEventGroupSetBitsCallback,"ax",@progbits
 1096              		.align	1
 1097              		.globl	vEventGroupSetBitsCallback
 1099              	vEventGroupSetBitsCallback:
 1100              	.LFB10:
 669:lib/freertos/src/event_groups.c **** 	( void ) xEventGroupSetBits( pvEventGroup, ( EventBits_t ) ulBitsToSet );
 1101              		.loc 1 669 1 is_stmt 1
 1102              		.cfi_startproc
 1103              	.LVL104:
 670:lib/freertos/src/event_groups.c **** }
 1104              		.loc 1 670 2
 670:lib/freertos/src/event_groups.c **** }
 1105              		.loc 1 670 11 is_stmt 0
 1106 0000 17030000 		tail	xEventGroupSetBits
 1106      67000300 
 1107              	.LVL105:
 1108              		.cfi_endproc
 1109              	.LFE10:
 1111              		.section	.text.vEventGroupDelete,"ax",@progbits
 1112              		.align	1
 1113              		.globl	vEventGroupDelete
 1115              	vEventGroupDelete:
 1116              	.LFB9:
 625:lib/freertos/src/event_groups.c **** EventGroup_t *pxEventBits = ( EventGroup_t * ) xEventGroup;
 1117              		.loc 1 625 1 is_stmt 1
 1118              		.cfi_startproc
 1119              	.LVL106:
 626:lib/freertos/src/event_groups.c **** const List_t *pxTasksWaitingForBits = &( pxEventBits->xTasksWaitingForBits );
 1120              		.loc 1 626 1
 625:lib/freertos/src/event_groups.c **** EventGroup_t *pxEventBits = ( EventGroup_t * ) xEventGroup;
 1121              		.loc 1 625 1 is_stmt 0
 1122 0000 4111     		addi	sp,sp,-16
 1123              	.LCFI15:
 1124              		.cfi_def_cfa_offset 16
 1125 0002 22C4     		sw	s0,8(sp)
 1126              		.cfi_offset 8, -8
 1127 0004 2A84     		mv	s0,a0
 1128              	.LVL107:
 627:lib/freertos/src/event_groups.c **** 
 1129              		.loc 1 627 1 is_stmt 1
 629:lib/freertos/src/event_groups.c **** 	{
 1130              		.loc 1 629 2
 625:lib/freertos/src/event_groups.c **** EventGroup_t *pxEventBits = ( EventGroup_t * ) xEventGroup;
GAS LISTING C:\Users\kasie\AppData\Local\Temp\ccsLLl8U.s 			page 39


 1131              		.loc 1 625 1 is_stmt 0
 1132 0006 26C2     		sw	s1,4(sp)
 1133 0008 06C6     		sw	ra,12(sp)
 1134              		.cfi_offset 9, -12
 1135              		.cfi_offset 1, -4
 637:lib/freertos/src/event_groups.c **** 			( void ) xTaskRemoveFromUnorderedEventList( pxTasksWaitingForBits->xListEnd.pxNext, eventUNBLOCK
 1136              		.loc 1 637 4
 1137 000a 9304C400 		addi	s1,s0,12
 629:lib/freertos/src/event_groups.c **** 	{
 1138              		.loc 1 629 2
 1139 000e 97000000 		call	vTaskSuspendAll
 1139      E7800000 
 1140              	.LVL108:
 631:lib/freertos/src/event_groups.c **** 
 1141              		.loc 1 631 41 is_stmt 1
 633:lib/freertos/src/event_groups.c **** 		{
 1142              		.loc 1 633 3
 1143              	.L99:
 633:lib/freertos/src/event_groups.c **** 		{
 1144              		.loc 1 633 8 is_stmt 0
 1145 0016 5C40     		lw	a5,4(s0)
 1146 0018 91EF     		bne	a5,zero,.L102
 645:lib/freertos/src/event_groups.c **** 		}
 1147              		.loc 1 645 4 is_stmt 1
 1148 001a 2285     		mv	a0,s0
 1149 001c 97000000 		call	vPortFree
 1149      E7800000 
 1150              	.LVL109:
 662:lib/freertos/src/event_groups.c **** }
 1151              		.loc 1 662 2
 663:lib/freertos/src/event_groups.c **** /*-----------------------------------------------------------*/
 1152              		.loc 1 663 1 is_stmt 0
 1153 0024 2244     		lw	s0,8(sp)
 1154              		.cfi_remember_state
 1155              		.cfi_restore 8
 1156              	.LVL110:
 1157 0026 B240     		lw	ra,12(sp)
 1158              		.cfi_restore 1
 1159 0028 9244     		lw	s1,4(sp)
 1160              		.cfi_restore 9
 1161              	.LVL111:
 1162 002a 4101     		addi	sp,sp,16
 1163              	.LCFI16:
 1164              		.cfi_def_cfa_offset 0
 662:lib/freertos/src/event_groups.c **** }
 1165              		.loc 1 662 11
 1166 002c 17030000 		tail	xTaskResumeAll
 1166      67000300 
 1167              	.LVL112:
 1168              	.L102:
 1169              	.LCFI17:
 1170              		.cfi_restore_state
 637:lib/freertos/src/event_groups.c **** 			( void ) xTaskRemoveFromUnorderedEventList( pxTasksWaitingForBits->xListEnd.pxNext, eventUNBLOCK
 1171              		.loc 1 637 4 is_stmt 1
 1172 0034 0848     		lw	a0,16(s0)
 1173 0036 63159500 		bne	a0,s1,.L100
 637:lib/freertos/src/event_groups.c **** 			( void ) xTaskRemoveFromUnorderedEventList( pxTasksWaitingForBits->xListEnd.pxNext, eventUNBLOCK
GAS LISTING C:\Users\kasie\AppData\Local\Temp\ccsLLl8U.s 			page 40


 1174              		.loc 1 637 4 discriminator 3
 1175              	.LBB58:
 637:lib/freertos/src/event_groups.c **** 			( void ) xTaskRemoveFromUnorderedEventList( pxTasksWaitingForBits->xListEnd.pxNext, eventUNBLOCK
 1176              		.loc 1 637 4 discriminator 3
 637:lib/freertos/src/event_groups.c **** 			( void ) xTaskRemoveFromUnorderedEventList( pxTasksWaitingForBits->xListEnd.pxNext, eventUNBLOCK
 1177              		.loc 1 637 4 discriminator 3
 637:lib/freertos/src/event_groups.c **** 			( void ) xTaskRemoveFromUnorderedEventList( pxTasksWaitingForBits->xListEnd.pxNext, eventUNBLOCK
 1178              		.loc 1 637 4 discriminator 3
 1179              	 #APP
 1180              	# 637 "lib/freertos/src/event_groups.c" 1
 1181              		csrrc a5, mstatus, 8
 1182              	# 0 "" 2
 1183              	.LVL113:
 637:lib/freertos/src/event_groups.c **** 			( void ) xTaskRemoveFromUnorderedEventList( pxTasksWaitingForBits->xListEnd.pxNext, eventUNBLOCK
 1184              		.loc 1 637 4 discriminator 3
 1185              	 #NO_APP
 1186              	.L101:
 1187              	.LBE58:
 637:lib/freertos/src/event_groups.c **** 			( void ) xTaskRemoveFromUnorderedEventList( pxTasksWaitingForBits->xListEnd.pxNext, eventUNBLOCK
 1188              		.loc 1 637 4 discriminator 1
 637:lib/freertos/src/event_groups.c **** 			( void ) xTaskRemoveFromUnorderedEventList( pxTasksWaitingForBits->xListEnd.pxNext, eventUNBLOCK
 1189              		.loc 1 637 4 discriminator 1
 637:lib/freertos/src/event_groups.c **** 			( void ) xTaskRemoveFromUnorderedEventList( pxTasksWaitingForBits->xListEnd.pxNext, eventUNBLOCK
 1190              		.loc 1 637 4 discriminator 1
 1191 003e 01A0     		j	.L101
 1192              	.L100:
 637:lib/freertos/src/event_groups.c **** 			( void ) xTaskRemoveFromUnorderedEventList( pxTasksWaitingForBits->xListEnd.pxNext, eventUNBLOCK
 1193              		.loc 1 637 115 discriminator 2
 638:lib/freertos/src/event_groups.c **** 		}
 1194              		.loc 1 638 4 discriminator 2
 638:lib/freertos/src/event_groups.c **** 		}
 1195              		.loc 1 638 13 is_stmt 0 discriminator 2
 1196 0040 B7050002 		li	a1,33554432
 1197 0044 97000000 		call	xTaskRemoveFromUnorderedEventList
 1197      E7800000 
 1198              	.LVL114:
 1199 004c E9B7     		j	.L99
 1200              		.cfi_endproc
 1201              	.LFE9:
 1203              		.section	.text.xEventGroupSetBitsFromISR,"ax",@progbits
 1204              		.align	1
 1205              		.globl	xEventGroupSetBitsFromISR
 1207              	xEventGroupSetBitsFromISR:
 1208              	.LFB13:
 704:lib/freertos/src/event_groups.c **** 		{
 705:lib/freertos/src/event_groups.c **** 			xWaitConditionMet = pdTRUE;
 706:lib/freertos/src/event_groups.c **** 		}
 707:lib/freertos/src/event_groups.c **** 		else
 708:lib/freertos/src/event_groups.c **** 		{
 709:lib/freertos/src/event_groups.c **** 			mtCOVERAGE_TEST_MARKER();
 710:lib/freertos/src/event_groups.c **** 		}
 711:lib/freertos/src/event_groups.c **** 	}
 712:lib/freertos/src/event_groups.c **** 
 713:lib/freertos/src/event_groups.c **** 	return xWaitConditionMet;
 714:lib/freertos/src/event_groups.c **** }
 715:lib/freertos/src/event_groups.c **** /*-----------------------------------------------------------*/
 716:lib/freertos/src/event_groups.c **** 
GAS LISTING C:\Users\kasie\AppData\Local\Temp\ccsLLl8U.s 			page 41


 717:lib/freertos/src/event_groups.c **** #if ( ( configUSE_TRACE_FACILITY == 1 ) && ( INCLUDE_xTimerPendFunctionCall == 1 ) && ( configUSE_T
 718:lib/freertos/src/event_groups.c **** 
 719:lib/freertos/src/event_groups.c **** 	BaseType_t xEventGroupSetBitsFromISR( EventGroupHandle_t xEventGroup, const EventBits_t uxBitsToSe
 720:lib/freertos/src/event_groups.c **** 	{
 1209              		.loc 1 720 2 is_stmt 1
 1210              		.cfi_startproc
 1211              	.LVL115:
 721:lib/freertos/src/event_groups.c **** 	BaseType_t xReturn;
 1212              		.loc 1 721 2
 722:lib/freertos/src/event_groups.c **** 
 723:lib/freertos/src/event_groups.c **** 		traceEVENT_GROUP_SET_BITS_FROM_ISR( xEventGroup, uxBitsToSet );
 1213              		.loc 1 723 65
 724:lib/freertos/src/event_groups.c **** 		xReturn = xTimerPendFunctionCallFromISR( vEventGroupSetBitsCallback, ( void * ) xEventGroup, ( ui
 1214              		.loc 1 724 3
 1215              		.loc 1 724 13 is_stmt 0
 1216 0000 B286     		mv	a3,a2
 1217 0002 2E86     		mv	a2,a1
 1218              	.LVL116:
 1219 0004 AA85     		mv	a1,a0
 1220              	.LVL117:
 1221 0006 37050000 		lui	a0,%hi(vEventGroupSetBitsCallback)
 1222              	.LVL118:
 1223 000a 13050500 		addi	a0,a0,%lo(vEventGroupSetBitsCallback)
 1224 000e 17030000 		tail	xTimerPendFunctionCallFromISR
 1224      67000300 
 1225              	.LVL119:
 1226              		.cfi_endproc
 1227              	.LFE13:
 1229              		.section	.text.uxEventGroupGetNumber,"ax",@progbits
 1230              		.align	1
 1231              		.globl	uxEventGroupGetNumber
 1233              	uxEventGroupGetNumber:
 1234              	.LFB14:
 725:lib/freertos/src/event_groups.c **** 
 726:lib/freertos/src/event_groups.c **** 		return xReturn;
 727:lib/freertos/src/event_groups.c **** 	}
 728:lib/freertos/src/event_groups.c **** 
 729:lib/freertos/src/event_groups.c **** #endif
 730:lib/freertos/src/event_groups.c **** /*-----------------------------------------------------------*/
 731:lib/freertos/src/event_groups.c **** 
 732:lib/freertos/src/event_groups.c **** #if (configUSE_TRACE_FACILITY == 1)
 733:lib/freertos/src/event_groups.c **** 
 734:lib/freertos/src/event_groups.c **** 	UBaseType_t uxEventGroupGetNumber( void* xEventGroup )
 735:lib/freertos/src/event_groups.c **** 	{
 1235              		.loc 1 735 2 is_stmt 1
 1236              		.cfi_startproc
 1237              	.LVL120:
 736:lib/freertos/src/event_groups.c **** 	UBaseType_t xReturn;
 1238              		.loc 1 736 2
 737:lib/freertos/src/event_groups.c **** 	EventGroup_t *pxEventBits = ( EventGroup_t * ) xEventGroup;
 1239              		.loc 1 737 2
 738:lib/freertos/src/event_groups.c **** 
 739:lib/freertos/src/event_groups.c **** 		if( xEventGroup == NULL )
 1240              		.loc 1 739 3
 1241              		.loc 1 739 5 is_stmt 0
 1242 0000 19C1     		beq	a0,zero,.L107
 740:lib/freertos/src/event_groups.c **** 		{
GAS LISTING C:\Users\kasie\AppData\Local\Temp\ccsLLl8U.s 			page 42


 741:lib/freertos/src/event_groups.c **** 			xReturn = 0;
 742:lib/freertos/src/event_groups.c **** 		}
 743:lib/freertos/src/event_groups.c **** 		else
 744:lib/freertos/src/event_groups.c **** 		{
 745:lib/freertos/src/event_groups.c **** 			xReturn = pxEventBits->uxEventGroupNumber;
 1243              		.loc 1 745 4 is_stmt 1
 1244              		.loc 1 745 12 is_stmt 0
 1245 0002 084D     		lw	a0,24(a0)
 1246              	.LVL121:
 1247 0004 8280     		ret
 1248              	.LVL122:
 1249              	.L107:
 741:lib/freertos/src/event_groups.c **** 		}
 1250              		.loc 1 741 12
 1251 0006 0145     		li	a0,0
 1252              	.LVL123:
 746:lib/freertos/src/event_groups.c **** 		}
 747:lib/freertos/src/event_groups.c **** 
 748:lib/freertos/src/event_groups.c **** 		return xReturn;
 1253              		.loc 1 748 3 is_stmt 1
 749:lib/freertos/src/event_groups.c **** 	}
 1254              		.loc 1 749 2 is_stmt 0
 1255 0008 8280     		ret
 1256              		.cfi_endproc
 1257              	.LFE14:
 1259              		.text
 1260              	.Letext0:
 1261              		.file 2 "c:\\hukas\\code\\repositories\\kth-hi1025-operativsystem\\compiler\\lib\\gcc\\riscv64-unk
 1262              		.file 3 "c:\\hukas\\code\\repositories\\kth-hi1025-operativsystem\\compiler\\riscv64-unknown-elf\\
 1263              		.file 4 "c:\\hukas\\code\\repositories\\kth-hi1025-operativsystem\\compiler\\riscv64-unknown-elf\\
 1264              		.file 5 "c:\\hukas\\code\\repositories\\kth-hi1025-operativsystem\\compiler\\riscv64-unknown-elf\\
 1265              		.file 6 "c:\\hukas\\code\\repositories\\kth-hi1025-operativsystem\\compiler\\riscv64-unknown-elf\\
 1266              		.file 7 "c:\\hukas\\code\\repositories\\kth-hi1025-operativsystem\\compiler\\riscv64-unknown-elf\\
 1267              		.file 8 "c:\\hukas\\code\\repositories\\kth-hi1025-operativsystem\\compiler\\riscv64-unknown-elf\\
 1268              		.file 9 "./../../firmware/GD32VF103_standard_peripheral/system_gd32vf103.h"
 1269              		.file 10 "lib/freertos/include/portmacro.h"
 1270              		.file 11 "lib/freertos/include/list.h"
 1271              		.file 12 "lib/freertos/include/event_groups.h"
 1272              		.file 13 "lib/freertos/include/timers.h"
 1273              		.file 14 "lib/freertos/include/task.h"
 1274              		.file 15 "lib/freertos/include/portable.h"
GAS LISTING C:\Users\kasie\AppData\Local\Temp\ccsLLl8U.s 			page 43

