GAS LISTING C:\Users\kasie\AppData\Local\Temp\cc7xk2tk.s 			page 1


   1              		.file	"heap_4.c"
   2              		.option nopic
   3              		.attribute arch, "rv32i2p0_m2p0_a2p0_c2p0"
   4              		.attribute unaligned_access, 0
   5              		.attribute stack_align, 16
   6              		.text
   7              	.Ltext0:
   8              		.cfi_sections	.debug_frame
   9              		.section	.text.prvInsertBlockIntoFreeList,"ax",@progbits
  10              		.align	1
  12              	prvInsertBlockIntoFreeList:
  13              	.LFB8:
  14              		.file 1 "lib/freertos/src/heap_4.c"
   1:lib/freertos/src/heap_4.c **** /*
   2:lib/freertos/src/heap_4.c ****     FreeRTOS V9.0.0 - Copyright (C) 2016 Real Time Engineers Ltd.
   3:lib/freertos/src/heap_4.c ****     All rights reserved
   4:lib/freertos/src/heap_4.c **** 
   5:lib/freertos/src/heap_4.c ****     VISIT http://www.FreeRTOS.org TO ENSURE YOU ARE USING THE LATEST VERSION.
   6:lib/freertos/src/heap_4.c **** 
   7:lib/freertos/src/heap_4.c ****     This file is part of the FreeRTOS distribution.
   8:lib/freertos/src/heap_4.c **** 
   9:lib/freertos/src/heap_4.c ****     FreeRTOS is free software; you can redistribute it and/or modify it under
  10:lib/freertos/src/heap_4.c ****     the terms of the GNU General Public License (version 2) as published by the
  11:lib/freertos/src/heap_4.c ****     Free Software Foundation >>>> AND MODIFIED BY <<<< the FreeRTOS exception.
  12:lib/freertos/src/heap_4.c **** 
  13:lib/freertos/src/heap_4.c ****     ***************************************************************************
  14:lib/freertos/src/heap_4.c ****     >>!   NOTE: The modification to the GPL is included to allow you to     !<<
  15:lib/freertos/src/heap_4.c ****     >>!   distribute a combined work that includes FreeRTOS without being   !<<
  16:lib/freertos/src/heap_4.c ****     >>!   obliged to provide the source code for proprietary components     !<<
  17:lib/freertos/src/heap_4.c ****     >>!   outside of the FreeRTOS kernel.                                   !<<
  18:lib/freertos/src/heap_4.c ****     ***************************************************************************
  19:lib/freertos/src/heap_4.c **** 
  20:lib/freertos/src/heap_4.c ****     FreeRTOS is distributed in the hope that it will be useful, but WITHOUT ANY
  21:lib/freertos/src/heap_4.c ****     WARRANTY; without even the implied warranty of MERCHANTABILITY or FITNESS
  22:lib/freertos/src/heap_4.c ****     FOR A PARTICULAR PURPOSE.  Full license text is available on the following
  23:lib/freertos/src/heap_4.c ****     link: http://www.freertos.org/a00114.html
  24:lib/freertos/src/heap_4.c **** 
  25:lib/freertos/src/heap_4.c ****     ***************************************************************************
  26:lib/freertos/src/heap_4.c ****      *                                                                       *
  27:lib/freertos/src/heap_4.c ****      *    FreeRTOS provides completely free yet professionally developed,    *
  28:lib/freertos/src/heap_4.c ****      *    robust, strictly quality controlled, supported, and cross          *
  29:lib/freertos/src/heap_4.c ****      *    platform software that is more than just the market leader, it     *
  30:lib/freertos/src/heap_4.c ****      *    is the industry's de facto standard.                               *
  31:lib/freertos/src/heap_4.c ****      *                                                                       *
  32:lib/freertos/src/heap_4.c ****      *    Help yourself get started quickly while simultaneously helping     *
  33:lib/freertos/src/heap_4.c ****      *    to support the FreeRTOS project by purchasing a FreeRTOS           *
  34:lib/freertos/src/heap_4.c ****      *    tutorial book, reference manual, or both:                          *
  35:lib/freertos/src/heap_4.c ****      *    http://www.FreeRTOS.org/Documentation                              *
  36:lib/freertos/src/heap_4.c ****      *                                                                       *
  37:lib/freertos/src/heap_4.c ****     ***************************************************************************
  38:lib/freertos/src/heap_4.c **** 
  39:lib/freertos/src/heap_4.c ****     http://www.FreeRTOS.org/FAQHelp.html - Having a problem?  Start by reading
  40:lib/freertos/src/heap_4.c ****     the FAQ page "My application does not run, what could be wrong?".  Have you
  41:lib/freertos/src/heap_4.c ****     defined configASSERT()?
  42:lib/freertos/src/heap_4.c **** 
  43:lib/freertos/src/heap_4.c ****     http://www.FreeRTOS.org/support - In return for receiving this top quality
  44:lib/freertos/src/heap_4.c ****     embedded software for free we request you assist our global community by
GAS LISTING C:\Users\kasie\AppData\Local\Temp\cc7xk2tk.s 			page 2


  45:lib/freertos/src/heap_4.c ****     participating in the support forum.
  46:lib/freertos/src/heap_4.c **** 
  47:lib/freertos/src/heap_4.c ****     http://www.FreeRTOS.org/training - Investing in training allows your team to
  48:lib/freertos/src/heap_4.c ****     be as productive as possible as early as possible.  Now you can receive
  49:lib/freertos/src/heap_4.c ****     FreeRTOS training directly from Richard Barry, CEO of Real Time Engineers
  50:lib/freertos/src/heap_4.c ****     Ltd, and the world's leading authority on the world's leading RTOS.
  51:lib/freertos/src/heap_4.c **** 
  52:lib/freertos/src/heap_4.c ****     http://www.FreeRTOS.org/plus - A selection of FreeRTOS ecosystem products,
  53:lib/freertos/src/heap_4.c ****     including FreeRTOS+Trace - an indispensable productivity tool, a DOS
  54:lib/freertos/src/heap_4.c ****     compatible FAT file system, and our tiny thread aware UDP/IP stack.
  55:lib/freertos/src/heap_4.c **** 
  56:lib/freertos/src/heap_4.c ****     http://www.FreeRTOS.org/labs - Where new FreeRTOS products go to incubate.
  57:lib/freertos/src/heap_4.c ****     Come and try FreeRTOS+TCP, our new open source TCP/IP stack for FreeRTOS.
  58:lib/freertos/src/heap_4.c **** 
  59:lib/freertos/src/heap_4.c ****     http://www.OpenRTOS.com - Real Time Engineers ltd. license FreeRTOS to High
  60:lib/freertos/src/heap_4.c ****     Integrity Systems ltd. to sell under the OpenRTOS brand.  Low cost OpenRTOS
  61:lib/freertos/src/heap_4.c ****     licenses offer ticketed support, indemnification and commercial middleware.
  62:lib/freertos/src/heap_4.c **** 
  63:lib/freertos/src/heap_4.c ****     http://www.SafeRTOS.com - High Integrity Systems also provide a safety
  64:lib/freertos/src/heap_4.c ****     engineered and independently SIL3 certified version for use in safety and
  65:lib/freertos/src/heap_4.c ****     mission critical applications that require provable dependability.
  66:lib/freertos/src/heap_4.c **** 
  67:lib/freertos/src/heap_4.c ****     1 tab == 4 spaces!
  68:lib/freertos/src/heap_4.c **** */
  69:lib/freertos/src/heap_4.c **** 
  70:lib/freertos/src/heap_4.c **** /*
  71:lib/freertos/src/heap_4.c ****  * A sample implementation of pvPortMalloc() and vPortFree() that combines
  72:lib/freertos/src/heap_4.c ****  * (coalescences) adjacent memory blocks as they are freed, and in so doing
  73:lib/freertos/src/heap_4.c ****  * limits memory fragmentation.
  74:lib/freertos/src/heap_4.c ****  *
  75:lib/freertos/src/heap_4.c ****  * See heap_1.c, heap_2.c and heap_3.c for alternative implementations, and the
  76:lib/freertos/src/heap_4.c ****  * memory management pages of http://www.FreeRTOS.org for more information.
  77:lib/freertos/src/heap_4.c ****  */
  78:lib/freertos/src/heap_4.c **** #include <stdlib.h>
  79:lib/freertos/src/heap_4.c **** 
  80:lib/freertos/src/heap_4.c **** /* Defining MPU_WRAPPERS_INCLUDED_FROM_API_FILE prevents task.h from redefining
  81:lib/freertos/src/heap_4.c **** all the API functions to use the MPU wrappers.  That should only be done when
  82:lib/freertos/src/heap_4.c **** task.h is included from an application file. */
  83:lib/freertos/src/heap_4.c **** #define MPU_WRAPPERS_INCLUDED_FROM_API_FILE
  84:lib/freertos/src/heap_4.c **** 
  85:lib/freertos/src/heap_4.c **** #include "FreeRTOS.h"
  86:lib/freertos/src/heap_4.c **** #include "task.h"
  87:lib/freertos/src/heap_4.c **** 
  88:lib/freertos/src/heap_4.c **** #undef MPU_WRAPPERS_INCLUDED_FROM_API_FILE
  89:lib/freertos/src/heap_4.c **** 
  90:lib/freertos/src/heap_4.c **** #if( configSUPPORT_DYNAMIC_ALLOCATION == 0 )
  91:lib/freertos/src/heap_4.c **** 	#error This file must not be used if configSUPPORT_DYNAMIC_ALLOCATION is 0
  92:lib/freertos/src/heap_4.c **** #endif
  93:lib/freertos/src/heap_4.c **** 
  94:lib/freertos/src/heap_4.c **** /* Block sizes must not get too small. */
  95:lib/freertos/src/heap_4.c **** #define heapMINIMUM_BLOCK_SIZE	( ( size_t ) ( xHeapStructSize << 1 ) )
  96:lib/freertos/src/heap_4.c **** 
  97:lib/freertos/src/heap_4.c **** /* Assumes 8bit bytes! */
  98:lib/freertos/src/heap_4.c **** #define heapBITS_PER_BYTE		( ( size_t ) 8 )
  99:lib/freertos/src/heap_4.c **** 
 100:lib/freertos/src/heap_4.c **** /* Allocate the memory for the heap. */
 101:lib/freertos/src/heap_4.c **** #if( configAPPLICATION_ALLOCATED_HEAP == 1 )
GAS LISTING C:\Users\kasie\AppData\Local\Temp\cc7xk2tk.s 			page 3


 102:lib/freertos/src/heap_4.c **** 	/* The application writer has already defined the array used for the RTOS
 103:lib/freertos/src/heap_4.c **** 	heap - probably so it can be placed in a special segment or address. */
 104:lib/freertos/src/heap_4.c **** 	extern uint8_t ucHeap[ configTOTAL_HEAP_SIZE ];
 105:lib/freertos/src/heap_4.c **** #else
 106:lib/freertos/src/heap_4.c **** 	static uint8_t ucHeap[ configTOTAL_HEAP_SIZE ];
 107:lib/freertos/src/heap_4.c **** #endif /* configAPPLICATION_ALLOCATED_HEAP */
 108:lib/freertos/src/heap_4.c **** 
 109:lib/freertos/src/heap_4.c **** /* Define the linked list structure.  This is used to link free blocks in order
 110:lib/freertos/src/heap_4.c **** of their memory address. */
 111:lib/freertos/src/heap_4.c **** typedef struct A_BLOCK_LINK
 112:lib/freertos/src/heap_4.c **** {
 113:lib/freertos/src/heap_4.c **** 	struct A_BLOCK_LINK *pxNextFreeBlock;	/*<< The next free block in the list. */
 114:lib/freertos/src/heap_4.c **** 	size_t xBlockSize;						/*<< The size of the free block. */
 115:lib/freertos/src/heap_4.c **** } BlockLink_t;
 116:lib/freertos/src/heap_4.c **** 
 117:lib/freertos/src/heap_4.c **** /*-----------------------------------------------------------*/
 118:lib/freertos/src/heap_4.c **** 
 119:lib/freertos/src/heap_4.c **** /*
 120:lib/freertos/src/heap_4.c ****  * Inserts a block of memory that is being freed into the correct position in
 121:lib/freertos/src/heap_4.c ****  * the list of free memory blocks.  The block being freed will be merged with
 122:lib/freertos/src/heap_4.c ****  * the block in front it and/or the block behind it if the memory blocks are
 123:lib/freertos/src/heap_4.c ****  * adjacent to each other.
 124:lib/freertos/src/heap_4.c ****  */
 125:lib/freertos/src/heap_4.c **** static void prvInsertBlockIntoFreeList( BlockLink_t *pxBlockToInsert );
 126:lib/freertos/src/heap_4.c **** 
 127:lib/freertos/src/heap_4.c **** /*
 128:lib/freertos/src/heap_4.c ****  * Called automatically to setup the required heap structures the first time
 129:lib/freertos/src/heap_4.c ****  * pvPortMalloc() is called.
 130:lib/freertos/src/heap_4.c ****  */
 131:lib/freertos/src/heap_4.c **** static void prvHeapInit( void );
 132:lib/freertos/src/heap_4.c **** 
 133:lib/freertos/src/heap_4.c **** /*-----------------------------------------------------------*/
 134:lib/freertos/src/heap_4.c **** 
 135:lib/freertos/src/heap_4.c **** /* The size of the structure placed at the beginning of each allocated memory
 136:lib/freertos/src/heap_4.c **** block must by correctly byte aligned. */
 137:lib/freertos/src/heap_4.c **** static const size_t xHeapStructSize	= ( sizeof( BlockLink_t ) + ( ( size_t ) ( portBYTE_ALIGNMENT -
 138:lib/freertos/src/heap_4.c **** 
 139:lib/freertos/src/heap_4.c **** /* Create a couple of list links to mark the start and end of the list. */
 140:lib/freertos/src/heap_4.c **** static BlockLink_t xStart, *pxEnd = NULL;
 141:lib/freertos/src/heap_4.c **** 
 142:lib/freertos/src/heap_4.c **** /* Keeps track of the number of free bytes remaining, but says nothing about
 143:lib/freertos/src/heap_4.c **** fragmentation. */
 144:lib/freertos/src/heap_4.c **** static size_t xFreeBytesRemaining = 0U;
 145:lib/freertos/src/heap_4.c **** static size_t xMinimumEverFreeBytesRemaining = 0U;
 146:lib/freertos/src/heap_4.c **** 
 147:lib/freertos/src/heap_4.c **** /* Gets set to the top bit of an size_t type.  When this bit in the xBlockSize
 148:lib/freertos/src/heap_4.c **** member of an BlockLink_t structure is set then the block belongs to the
 149:lib/freertos/src/heap_4.c **** application.  When the bit is free the block is still part of the free heap
 150:lib/freertos/src/heap_4.c **** space. */
 151:lib/freertos/src/heap_4.c **** static size_t xBlockAllocatedBit = 0;
 152:lib/freertos/src/heap_4.c **** 
 153:lib/freertos/src/heap_4.c **** /*-----------------------------------------------------------*/
 154:lib/freertos/src/heap_4.c **** 
 155:lib/freertos/src/heap_4.c **** void *pvPortMalloc( size_t xWantedSize )
 156:lib/freertos/src/heap_4.c **** {
 157:lib/freertos/src/heap_4.c **** BlockLink_t *pxBlock, *pxPreviousBlock, *pxNewBlockLink;
 158:lib/freertos/src/heap_4.c **** void *pvReturn = NULL;
GAS LISTING C:\Users\kasie\AppData\Local\Temp\cc7xk2tk.s 			page 4


 159:lib/freertos/src/heap_4.c **** 
 160:lib/freertos/src/heap_4.c **** 	vTaskSuspendAll();
 161:lib/freertos/src/heap_4.c **** 	{
 162:lib/freertos/src/heap_4.c **** 		/* If this is the first call to malloc then the heap will require
 163:lib/freertos/src/heap_4.c **** 		initialisation to setup the list of free blocks. */
 164:lib/freertos/src/heap_4.c **** 		if( pxEnd == NULL )
 165:lib/freertos/src/heap_4.c **** 		{
 166:lib/freertos/src/heap_4.c **** 			prvHeapInit();
 167:lib/freertos/src/heap_4.c **** 		}
 168:lib/freertos/src/heap_4.c **** 		else
 169:lib/freertos/src/heap_4.c **** 		{
 170:lib/freertos/src/heap_4.c **** 			mtCOVERAGE_TEST_MARKER();
 171:lib/freertos/src/heap_4.c **** 		}
 172:lib/freertos/src/heap_4.c **** 
 173:lib/freertos/src/heap_4.c **** 		/* Check the requested block size is not so large that the top bit is
 174:lib/freertos/src/heap_4.c **** 		set.  The top bit of the block size member of the BlockLink_t structure
 175:lib/freertos/src/heap_4.c **** 		is used to determine who owns the block - the application or the
 176:lib/freertos/src/heap_4.c **** 		kernel, so it must be free. */
 177:lib/freertos/src/heap_4.c **** 		if( ( xWantedSize & xBlockAllocatedBit ) == 0 )
 178:lib/freertos/src/heap_4.c **** 		{
 179:lib/freertos/src/heap_4.c **** 			/* The wanted size is increased so it can contain a BlockLink_t
 180:lib/freertos/src/heap_4.c **** 			structure in addition to the requested amount of bytes. */
 181:lib/freertos/src/heap_4.c **** 			if( xWantedSize > 0 )
 182:lib/freertos/src/heap_4.c **** 			{
 183:lib/freertos/src/heap_4.c **** 				xWantedSize += xHeapStructSize;
 184:lib/freertos/src/heap_4.c **** 
 185:lib/freertos/src/heap_4.c **** 				/* Ensure that blocks are always aligned to the required number
 186:lib/freertos/src/heap_4.c **** 				of bytes. */
 187:lib/freertos/src/heap_4.c **** 				if( ( xWantedSize & portBYTE_ALIGNMENT_MASK ) != 0x00 )
 188:lib/freertos/src/heap_4.c **** 				{
 189:lib/freertos/src/heap_4.c **** 					/* Byte alignment required. */
 190:lib/freertos/src/heap_4.c **** 					xWantedSize += ( portBYTE_ALIGNMENT - ( xWantedSize & portBYTE_ALIGNMENT_MASK ) );
 191:lib/freertos/src/heap_4.c **** 					configASSERT( ( xWantedSize & portBYTE_ALIGNMENT_MASK ) == 0 );
 192:lib/freertos/src/heap_4.c **** 				}
 193:lib/freertos/src/heap_4.c **** 				else
 194:lib/freertos/src/heap_4.c **** 				{
 195:lib/freertos/src/heap_4.c **** 					mtCOVERAGE_TEST_MARKER();
 196:lib/freertos/src/heap_4.c **** 				}
 197:lib/freertos/src/heap_4.c **** 			}
 198:lib/freertos/src/heap_4.c **** 			else
 199:lib/freertos/src/heap_4.c **** 			{
 200:lib/freertos/src/heap_4.c **** 				mtCOVERAGE_TEST_MARKER();
 201:lib/freertos/src/heap_4.c **** 			}
 202:lib/freertos/src/heap_4.c **** 
 203:lib/freertos/src/heap_4.c **** 			if( ( xWantedSize > 0 ) && ( xWantedSize <= xFreeBytesRemaining ) )
 204:lib/freertos/src/heap_4.c **** 			{
 205:lib/freertos/src/heap_4.c **** 				/* Traverse the list from the start	(lowest address) block until
 206:lib/freertos/src/heap_4.c **** 				one	of adequate size is found. */
 207:lib/freertos/src/heap_4.c **** 				pxPreviousBlock = &xStart;
 208:lib/freertos/src/heap_4.c **** 				pxBlock = xStart.pxNextFreeBlock;
 209:lib/freertos/src/heap_4.c **** 				while( ( pxBlock->xBlockSize < xWantedSize ) && ( pxBlock->pxNextFreeBlock != NULL ) )
 210:lib/freertos/src/heap_4.c **** 				{
 211:lib/freertos/src/heap_4.c **** 					pxPreviousBlock = pxBlock;
 212:lib/freertos/src/heap_4.c **** 					pxBlock = pxBlock->pxNextFreeBlock;
 213:lib/freertos/src/heap_4.c **** 				}
 214:lib/freertos/src/heap_4.c **** 
 215:lib/freertos/src/heap_4.c **** 				/* If the end marker was reached then a block of adequate size
GAS LISTING C:\Users\kasie\AppData\Local\Temp\cc7xk2tk.s 			page 5


 216:lib/freertos/src/heap_4.c **** 				was	not found. */
 217:lib/freertos/src/heap_4.c **** 				if( pxBlock != pxEnd )
 218:lib/freertos/src/heap_4.c **** 				{
 219:lib/freertos/src/heap_4.c **** 					/* Return the memory space pointed to - jumping over the
 220:lib/freertos/src/heap_4.c **** 					BlockLink_t structure at its start. */
 221:lib/freertos/src/heap_4.c **** 					pvReturn = ( void * ) ( ( ( uint8_t * ) pxPreviousBlock->pxNextFreeBlock ) + xHeapStructSize )
 222:lib/freertos/src/heap_4.c **** 
 223:lib/freertos/src/heap_4.c **** 					/* This block is being returned for use so must be taken out
 224:lib/freertos/src/heap_4.c **** 					of the list of free blocks. */
 225:lib/freertos/src/heap_4.c **** 					pxPreviousBlock->pxNextFreeBlock = pxBlock->pxNextFreeBlock;
 226:lib/freertos/src/heap_4.c **** 
 227:lib/freertos/src/heap_4.c **** 					/* If the block is larger than required it can be split into
 228:lib/freertos/src/heap_4.c **** 					two. */
 229:lib/freertos/src/heap_4.c **** 					if( ( pxBlock->xBlockSize - xWantedSize ) > heapMINIMUM_BLOCK_SIZE )
 230:lib/freertos/src/heap_4.c **** 					{
 231:lib/freertos/src/heap_4.c **** 						/* This block is to be split into two.  Create a new
 232:lib/freertos/src/heap_4.c **** 						block following the number of bytes requested. The void
 233:lib/freertos/src/heap_4.c **** 						cast is used to prevent byte alignment warnings from the
 234:lib/freertos/src/heap_4.c **** 						compiler. */
 235:lib/freertos/src/heap_4.c **** 						pxNewBlockLink = ( void * ) ( ( ( uint8_t * ) pxBlock ) + xWantedSize );
 236:lib/freertos/src/heap_4.c **** 						configASSERT( ( ( ( size_t ) pxNewBlockLink ) & portBYTE_ALIGNMENT_MASK ) == 0 );
 237:lib/freertos/src/heap_4.c **** 
 238:lib/freertos/src/heap_4.c **** 						/* Calculate the sizes of two blocks split from the
 239:lib/freertos/src/heap_4.c **** 						single block. */
 240:lib/freertos/src/heap_4.c **** 						pxNewBlockLink->xBlockSize = pxBlock->xBlockSize - xWantedSize;
 241:lib/freertos/src/heap_4.c **** 						pxBlock->xBlockSize = xWantedSize;
 242:lib/freertos/src/heap_4.c **** 
 243:lib/freertos/src/heap_4.c **** 						/* Insert the new block into the list of free blocks. */
 244:lib/freertos/src/heap_4.c **** 						prvInsertBlockIntoFreeList( pxNewBlockLink );
 245:lib/freertos/src/heap_4.c **** 					}
 246:lib/freertos/src/heap_4.c **** 					else
 247:lib/freertos/src/heap_4.c **** 					{
 248:lib/freertos/src/heap_4.c **** 						mtCOVERAGE_TEST_MARKER();
 249:lib/freertos/src/heap_4.c **** 					}
 250:lib/freertos/src/heap_4.c **** 
 251:lib/freertos/src/heap_4.c **** 					xFreeBytesRemaining -= pxBlock->xBlockSize;
 252:lib/freertos/src/heap_4.c **** 
 253:lib/freertos/src/heap_4.c **** 					if( xFreeBytesRemaining < xMinimumEverFreeBytesRemaining )
 254:lib/freertos/src/heap_4.c **** 					{
 255:lib/freertos/src/heap_4.c **** 						xMinimumEverFreeBytesRemaining = xFreeBytesRemaining;
 256:lib/freertos/src/heap_4.c **** 					}
 257:lib/freertos/src/heap_4.c **** 					else
 258:lib/freertos/src/heap_4.c **** 					{
 259:lib/freertos/src/heap_4.c **** 						mtCOVERAGE_TEST_MARKER();
 260:lib/freertos/src/heap_4.c **** 					}
 261:lib/freertos/src/heap_4.c **** 
 262:lib/freertos/src/heap_4.c **** 					/* The block is being returned - it is allocated and owned
 263:lib/freertos/src/heap_4.c **** 					by the application and has no "next" block. */
 264:lib/freertos/src/heap_4.c **** 					pxBlock->xBlockSize |= xBlockAllocatedBit;
 265:lib/freertos/src/heap_4.c **** 					pxBlock->pxNextFreeBlock = NULL;
 266:lib/freertos/src/heap_4.c **** 				}
 267:lib/freertos/src/heap_4.c **** 				else
 268:lib/freertos/src/heap_4.c **** 				{
 269:lib/freertos/src/heap_4.c **** 					mtCOVERAGE_TEST_MARKER();
 270:lib/freertos/src/heap_4.c **** 				}
 271:lib/freertos/src/heap_4.c **** 			}
 272:lib/freertos/src/heap_4.c **** 			else
GAS LISTING C:\Users\kasie\AppData\Local\Temp\cc7xk2tk.s 			page 6


 273:lib/freertos/src/heap_4.c **** 			{
 274:lib/freertos/src/heap_4.c **** 				mtCOVERAGE_TEST_MARKER();
 275:lib/freertos/src/heap_4.c **** 			}
 276:lib/freertos/src/heap_4.c **** 		}
 277:lib/freertos/src/heap_4.c **** 		else
 278:lib/freertos/src/heap_4.c **** 		{
 279:lib/freertos/src/heap_4.c **** 			mtCOVERAGE_TEST_MARKER();
 280:lib/freertos/src/heap_4.c **** 		}
 281:lib/freertos/src/heap_4.c **** 
 282:lib/freertos/src/heap_4.c **** 		traceMALLOC( pvReturn, xWantedSize );
 283:lib/freertos/src/heap_4.c **** 	}
 284:lib/freertos/src/heap_4.c **** 	( void ) xTaskResumeAll();
 285:lib/freertos/src/heap_4.c **** 
 286:lib/freertos/src/heap_4.c **** 	#if( configUSE_MALLOC_FAILED_HOOK == 1 )
 287:lib/freertos/src/heap_4.c **** 	{
 288:lib/freertos/src/heap_4.c **** 		if( pvReturn == NULL )
 289:lib/freertos/src/heap_4.c **** 		{
 290:lib/freertos/src/heap_4.c **** 			extern void vApplicationMallocFailedHook( void );
 291:lib/freertos/src/heap_4.c **** 			vApplicationMallocFailedHook();
 292:lib/freertos/src/heap_4.c **** 		}
 293:lib/freertos/src/heap_4.c **** 		else
 294:lib/freertos/src/heap_4.c **** 		{
 295:lib/freertos/src/heap_4.c **** 			mtCOVERAGE_TEST_MARKER();
 296:lib/freertos/src/heap_4.c **** 		}
 297:lib/freertos/src/heap_4.c **** 	}
 298:lib/freertos/src/heap_4.c **** 	#endif
 299:lib/freertos/src/heap_4.c **** 
 300:lib/freertos/src/heap_4.c **** 	configASSERT( ( ( ( size_t ) pvReturn ) & ( size_t ) portBYTE_ALIGNMENT_MASK ) == 0 );
 301:lib/freertos/src/heap_4.c **** 	return pvReturn;
 302:lib/freertos/src/heap_4.c **** }
 303:lib/freertos/src/heap_4.c **** /*-----------------------------------------------------------*/
 304:lib/freertos/src/heap_4.c **** 
 305:lib/freertos/src/heap_4.c **** void vPortFree( void *pv )
 306:lib/freertos/src/heap_4.c **** {
 307:lib/freertos/src/heap_4.c **** uint8_t *puc = ( uint8_t * ) pv;
 308:lib/freertos/src/heap_4.c **** BlockLink_t *pxLink;
 309:lib/freertos/src/heap_4.c **** 
 310:lib/freertos/src/heap_4.c **** 	if( pv != NULL )
 311:lib/freertos/src/heap_4.c **** 	{
 312:lib/freertos/src/heap_4.c **** 		/* The memory being freed will have an BlockLink_t structure immediately
 313:lib/freertos/src/heap_4.c **** 		before it. */
 314:lib/freertos/src/heap_4.c **** 		puc -= xHeapStructSize;
 315:lib/freertos/src/heap_4.c **** 
 316:lib/freertos/src/heap_4.c **** 		/* This casting is to keep the compiler from issuing warnings. */
 317:lib/freertos/src/heap_4.c **** 		pxLink = ( void * ) puc;
 318:lib/freertos/src/heap_4.c **** 
 319:lib/freertos/src/heap_4.c **** 		/* Check the block is actually allocated. */
 320:lib/freertos/src/heap_4.c **** 		configASSERT( ( pxLink->xBlockSize & xBlockAllocatedBit ) != 0 );
 321:lib/freertos/src/heap_4.c **** 		configASSERT( pxLink->pxNextFreeBlock == NULL );
 322:lib/freertos/src/heap_4.c **** 
 323:lib/freertos/src/heap_4.c **** 		if( ( pxLink->xBlockSize & xBlockAllocatedBit ) != 0 )
 324:lib/freertos/src/heap_4.c **** 		{
 325:lib/freertos/src/heap_4.c **** 			if( pxLink->pxNextFreeBlock == NULL )
 326:lib/freertos/src/heap_4.c **** 			{
 327:lib/freertos/src/heap_4.c **** 				/* The block is being returned to the heap - it is no longer
 328:lib/freertos/src/heap_4.c **** 				allocated. */
 329:lib/freertos/src/heap_4.c **** 				pxLink->xBlockSize &= ~xBlockAllocatedBit;
GAS LISTING C:\Users\kasie\AppData\Local\Temp\cc7xk2tk.s 			page 7


 330:lib/freertos/src/heap_4.c **** 
 331:lib/freertos/src/heap_4.c **** 				vTaskSuspendAll();
 332:lib/freertos/src/heap_4.c **** 				{
 333:lib/freertos/src/heap_4.c **** 					/* Add this block to the list of free blocks. */
 334:lib/freertos/src/heap_4.c **** 					xFreeBytesRemaining += pxLink->xBlockSize;
 335:lib/freertos/src/heap_4.c **** 					traceFREE( pv, pxLink->xBlockSize );
 336:lib/freertos/src/heap_4.c **** 					prvInsertBlockIntoFreeList( ( ( BlockLink_t * ) pxLink ) );
 337:lib/freertos/src/heap_4.c **** 				}
 338:lib/freertos/src/heap_4.c **** 				( void ) xTaskResumeAll();
 339:lib/freertos/src/heap_4.c **** 			}
 340:lib/freertos/src/heap_4.c **** 			else
 341:lib/freertos/src/heap_4.c **** 			{
 342:lib/freertos/src/heap_4.c **** 				mtCOVERAGE_TEST_MARKER();
 343:lib/freertos/src/heap_4.c **** 			}
 344:lib/freertos/src/heap_4.c **** 		}
 345:lib/freertos/src/heap_4.c **** 		else
 346:lib/freertos/src/heap_4.c **** 		{
 347:lib/freertos/src/heap_4.c **** 			mtCOVERAGE_TEST_MARKER();
 348:lib/freertos/src/heap_4.c **** 		}
 349:lib/freertos/src/heap_4.c **** 	}
 350:lib/freertos/src/heap_4.c **** }
 351:lib/freertos/src/heap_4.c **** /*-----------------------------------------------------------*/
 352:lib/freertos/src/heap_4.c **** 
 353:lib/freertos/src/heap_4.c **** size_t xPortGetFreeHeapSize( void )
 354:lib/freertos/src/heap_4.c **** {
 355:lib/freertos/src/heap_4.c **** 	return xFreeBytesRemaining;
 356:lib/freertos/src/heap_4.c **** }
 357:lib/freertos/src/heap_4.c **** /*-----------------------------------------------------------*/
 358:lib/freertos/src/heap_4.c **** 
 359:lib/freertos/src/heap_4.c **** size_t xPortGetMinimumEverFreeHeapSize( void )
 360:lib/freertos/src/heap_4.c **** {
 361:lib/freertos/src/heap_4.c **** 	return xMinimumEverFreeBytesRemaining;
 362:lib/freertos/src/heap_4.c **** }
 363:lib/freertos/src/heap_4.c **** /*-----------------------------------------------------------*/
 364:lib/freertos/src/heap_4.c **** 
 365:lib/freertos/src/heap_4.c **** void vPortInitialiseBlocks( void )
 366:lib/freertos/src/heap_4.c **** {
 367:lib/freertos/src/heap_4.c **** 	/* This just exists to keep the linker quiet. */
 368:lib/freertos/src/heap_4.c **** }
 369:lib/freertos/src/heap_4.c **** /*-----------------------------------------------------------*/
 370:lib/freertos/src/heap_4.c **** 
 371:lib/freertos/src/heap_4.c **** static void prvHeapInit( void )
 372:lib/freertos/src/heap_4.c **** {
 373:lib/freertos/src/heap_4.c **** BlockLink_t *pxFirstFreeBlock;
 374:lib/freertos/src/heap_4.c **** uint8_t *pucAlignedHeap;
 375:lib/freertos/src/heap_4.c **** size_t uxAddress;
 376:lib/freertos/src/heap_4.c **** size_t xTotalHeapSize = configTOTAL_HEAP_SIZE;
 377:lib/freertos/src/heap_4.c **** 
 378:lib/freertos/src/heap_4.c **** 	/* Ensure the heap starts on a correctly aligned boundary. */
 379:lib/freertos/src/heap_4.c **** 	uxAddress = ( size_t ) ucHeap;
 380:lib/freertos/src/heap_4.c **** 
 381:lib/freertos/src/heap_4.c **** 	if( ( uxAddress & portBYTE_ALIGNMENT_MASK ) != 0 )
 382:lib/freertos/src/heap_4.c **** 	{
 383:lib/freertos/src/heap_4.c **** 		uxAddress += ( portBYTE_ALIGNMENT - 1 );
 384:lib/freertos/src/heap_4.c **** 		uxAddress &= ~( ( size_t ) portBYTE_ALIGNMENT_MASK );
 385:lib/freertos/src/heap_4.c **** 		xTotalHeapSize -= uxAddress - ( size_t ) ucHeap;
 386:lib/freertos/src/heap_4.c **** 	}
GAS LISTING C:\Users\kasie\AppData\Local\Temp\cc7xk2tk.s 			page 8


 387:lib/freertos/src/heap_4.c **** 
 388:lib/freertos/src/heap_4.c **** 	pucAlignedHeap = ( uint8_t * ) uxAddress;
 389:lib/freertos/src/heap_4.c **** 
 390:lib/freertos/src/heap_4.c **** 	/* xStart is used to hold a pointer to the first item in the list of free
 391:lib/freertos/src/heap_4.c **** 	blocks.  The void cast is used to prevent compiler warnings. */
 392:lib/freertos/src/heap_4.c **** 	xStart.pxNextFreeBlock = ( void * ) pucAlignedHeap;
 393:lib/freertos/src/heap_4.c **** 	xStart.xBlockSize = ( size_t ) 0;
 394:lib/freertos/src/heap_4.c **** 
 395:lib/freertos/src/heap_4.c **** 	/* pxEnd is used to mark the end of the list of free blocks and is inserted
 396:lib/freertos/src/heap_4.c **** 	at the end of the heap space. */
 397:lib/freertos/src/heap_4.c **** 	uxAddress = ( ( size_t ) pucAlignedHeap ) + xTotalHeapSize;
 398:lib/freertos/src/heap_4.c **** 	uxAddress -= xHeapStructSize;
 399:lib/freertos/src/heap_4.c **** 	uxAddress &= ~( ( size_t ) portBYTE_ALIGNMENT_MASK );
 400:lib/freertos/src/heap_4.c **** 	pxEnd = ( void * ) uxAddress;
 401:lib/freertos/src/heap_4.c **** 	pxEnd->xBlockSize = 0;
 402:lib/freertos/src/heap_4.c **** 	pxEnd->pxNextFreeBlock = NULL;
 403:lib/freertos/src/heap_4.c **** 
 404:lib/freertos/src/heap_4.c **** 	/* To start with there is a single free block that is sized to take up the
 405:lib/freertos/src/heap_4.c **** 	entire heap space, minus the space taken by pxEnd. */
 406:lib/freertos/src/heap_4.c **** 	pxFirstFreeBlock = ( void * ) pucAlignedHeap;
 407:lib/freertos/src/heap_4.c **** 	pxFirstFreeBlock->xBlockSize = uxAddress - ( size_t ) pxFirstFreeBlock;
 408:lib/freertos/src/heap_4.c **** 	pxFirstFreeBlock->pxNextFreeBlock = pxEnd;
 409:lib/freertos/src/heap_4.c **** 
 410:lib/freertos/src/heap_4.c **** 	/* Only one block exists - and it covers the entire usable heap space. */
 411:lib/freertos/src/heap_4.c **** 	xMinimumEverFreeBytesRemaining = pxFirstFreeBlock->xBlockSize;
 412:lib/freertos/src/heap_4.c **** 	xFreeBytesRemaining = pxFirstFreeBlock->xBlockSize;
 413:lib/freertos/src/heap_4.c **** 
 414:lib/freertos/src/heap_4.c **** 	/* Work out the position of the top bit in a size_t variable. */
 415:lib/freertos/src/heap_4.c **** 	xBlockAllocatedBit = ( ( size_t ) 1 ) << ( ( sizeof( size_t ) * heapBITS_PER_BYTE ) - 1 );
 416:lib/freertos/src/heap_4.c **** }
 417:lib/freertos/src/heap_4.c **** /*-----------------------------------------------------------*/
 418:lib/freertos/src/heap_4.c **** 
 419:lib/freertos/src/heap_4.c **** static void prvInsertBlockIntoFreeList( BlockLink_t *pxBlockToInsert )
 420:lib/freertos/src/heap_4.c **** {
  15              		.loc 1 420 1
  16              		.cfi_startproc
  17              	.LVL0:
 421:lib/freertos/src/heap_4.c **** BlockLink_t *pxIterator;
  18              		.loc 1 421 1
 422:lib/freertos/src/heap_4.c **** uint8_t *puc;
  19              		.loc 1 422 1
 423:lib/freertos/src/heap_4.c **** 
 424:lib/freertos/src/heap_4.c **** 	/* Iterate through the list until a block is found that has a higher address
 425:lib/freertos/src/heap_4.c **** 	than the block being inserted. */
 426:lib/freertos/src/heap_4.c **** 	for( pxIterator = &xStart; pxIterator->pxNextFreeBlock < pxBlockToInsert; pxIterator = pxIterator-
  20              		.loc 1 426 2
  21              		.loc 1 426 18 is_stmt 0
  22 0000 B7070000 		lui	a5,%hi(.LANCHOR0)
  23 0004 93870700 		addi	a5,a5,%lo(.LANCHOR0)
  24              	.LVL1:
  25              	.L2:
  26              		.loc 1 426 39 discriminator 1
  27 0008 9843     		lw	a4,0(a5)
  28              		.loc 1 426 2 discriminator 1
  29 000a 636FA702 		bltu	a4,a0,.L8
 427:lib/freertos/src/heap_4.c **** 	{
 428:lib/freertos/src/heap_4.c **** 		/* Nothing to do here, just iterate to the right position. */
GAS LISTING C:\Users\kasie\AppData\Local\Temp\cc7xk2tk.s 			page 9


 429:lib/freertos/src/heap_4.c **** 	}
 430:lib/freertos/src/heap_4.c **** 
 431:lib/freertos/src/heap_4.c **** 	/* Do the block being inserted, and the block it is being inserted after
 432:lib/freertos/src/heap_4.c **** 	make a contiguous block of memory? */
 433:lib/freertos/src/heap_4.c **** 	puc = ( uint8_t * ) pxIterator;
  30              		.loc 1 433 2 is_stmt 1
  31              	.LVL2:
 434:lib/freertos/src/heap_4.c **** 	if( ( puc + pxIterator->xBlockSize ) == ( uint8_t * ) pxBlockToInsert )
  32              		.loc 1 434 2
  33              		.loc 1 434 24 is_stmt 0
  34 000e D043     		lw	a2,4(a5)
  35              		.loc 1 434 12
  36 0010 B386C700 		add	a3,a5,a2
  37              		.loc 1 434 4
  38 0014 6316D500 		bne	a0,a3,.L3
 435:lib/freertos/src/heap_4.c **** 	{
 436:lib/freertos/src/heap_4.c **** 		pxIterator->xBlockSize += pxBlockToInsert->xBlockSize;
  39              		.loc 1 436 3 is_stmt 1
  40              		.loc 1 436 26 is_stmt 0
  41 0018 5441     		lw	a3,4(a0)
  42 001a 3E85     		mv	a0,a5
  43              	.LVL3:
  44 001c B296     		add	a3,a3,a2
  45 001e D4C3     		sw	a3,4(a5)
 437:lib/freertos/src/heap_4.c **** 		pxBlockToInsert = pxIterator;
  46              		.loc 1 437 3 is_stmt 1
  47              	.LVL4:
  48              	.L3:
 438:lib/freertos/src/heap_4.c **** 	}
 439:lib/freertos/src/heap_4.c **** 	else
 440:lib/freertos/src/heap_4.c **** 	{
 441:lib/freertos/src/heap_4.c **** 		mtCOVERAGE_TEST_MARKER();
  49              		.loc 1 441 27
 442:lib/freertos/src/heap_4.c **** 	}
 443:lib/freertos/src/heap_4.c **** 
 444:lib/freertos/src/heap_4.c **** 	/* Do the block being inserted, and the block it is being inserted before
 445:lib/freertos/src/heap_4.c **** 	make a contiguous block of memory? */
 446:lib/freertos/src/heap_4.c **** 	puc = ( uint8_t * ) pxBlockToInsert;
  50              		.loc 1 446 2
 447:lib/freertos/src/heap_4.c **** 	if( ( puc + pxBlockToInsert->xBlockSize ) == ( uint8_t * ) pxIterator->pxNextFreeBlock )
  51              		.loc 1 447 2
  52              		.loc 1 447 29 is_stmt 0
  53 0020 5041     		lw	a2,4(a0)
  54              		.loc 1 447 12
  55 0022 B306C500 		add	a3,a0,a2
  56              		.loc 1 447 4
  57 0026 631CD700 		bne	a4,a3,.L4
 448:lib/freertos/src/heap_4.c **** 	{
 449:lib/freertos/src/heap_4.c **** 		if( pxIterator->pxNextFreeBlock != pxEnd )
  58              		.loc 1 449 3 is_stmt 1
  59              		.loc 1 449 35 is_stmt 0
  60 002a B7060000 		lui	a3,%hi(.LANCHOR1)
  61 002e 83A60600 		lw	a3,%lo(.LANCHOR1)(a3)
  62              		.loc 1 449 5
  63 0032 6306D700 		beq	a4,a3,.L4
 450:lib/freertos/src/heap_4.c **** 		{
 451:lib/freertos/src/heap_4.c **** 			/* Form one big block from the two blocks. */
GAS LISTING C:\Users\kasie\AppData\Local\Temp\cc7xk2tk.s 			page 10


 452:lib/freertos/src/heap_4.c **** 			pxBlockToInsert->xBlockSize += pxIterator->pxNextFreeBlock->xBlockSize;
  64              		.loc 1 452 4 is_stmt 1
  65              		.loc 1 452 32 is_stmt 0
  66 0036 5443     		lw	a3,4(a4)
 453:lib/freertos/src/heap_4.c **** 			pxBlockToInsert->pxNextFreeBlock = pxIterator->pxNextFreeBlock->pxNextFreeBlock;
  67              		.loc 1 453 66
  68 0038 1843     		lw	a4,0(a4)
 452:lib/freertos/src/heap_4.c **** 			pxBlockToInsert->pxNextFreeBlock = pxIterator->pxNextFreeBlock->pxNextFreeBlock;
  69              		.loc 1 452 32
  70 003a B296     		add	a3,a3,a2
  71 003c 54C1     		sw	a3,4(a0)
  72              		.loc 1 453 4 is_stmt 1
  73              	.L4:
 454:lib/freertos/src/heap_4.c **** 		}
 455:lib/freertos/src/heap_4.c **** 		else
 456:lib/freertos/src/heap_4.c **** 		{
 457:lib/freertos/src/heap_4.c **** 			pxBlockToInsert->pxNextFreeBlock = pxEnd;
 458:lib/freertos/src/heap_4.c **** 		}
 459:lib/freertos/src/heap_4.c **** 	}
 460:lib/freertos/src/heap_4.c **** 	else
 461:lib/freertos/src/heap_4.c **** 	{
 462:lib/freertos/src/heap_4.c **** 		pxBlockToInsert->pxNextFreeBlock = pxIterator->pxNextFreeBlock;
  74              		.loc 1 462 3
  75              		.loc 1 462 36 is_stmt 0
  76 003e 18C1     		sw	a4,0(a0)
 463:lib/freertos/src/heap_4.c **** 	}
 464:lib/freertos/src/heap_4.c **** 
 465:lib/freertos/src/heap_4.c **** 	/* If the block being inserted plugged a gab, so was merged with the block
 466:lib/freertos/src/heap_4.c **** 	before and the block after, then it's pxNextFreeBlock pointer will have
 467:lib/freertos/src/heap_4.c **** 	already been set, and should not be set here as that would make it point
 468:lib/freertos/src/heap_4.c **** 	to itself. */
 469:lib/freertos/src/heap_4.c **** 	if( pxIterator != pxBlockToInsert )
  77              		.loc 1 469 2 is_stmt 1
  78              		.loc 1 469 4 is_stmt 0
  79 0040 6303F500 		beq	a0,a5,.L1
 470:lib/freertos/src/heap_4.c **** 	{
 471:lib/freertos/src/heap_4.c **** 		pxIterator->pxNextFreeBlock = pxBlockToInsert;
  80              		.loc 1 471 3 is_stmt 1
  81              		.loc 1 471 31 is_stmt 0
  82 0044 88C3     		sw	a0,0(a5)
 472:lib/freertos/src/heap_4.c **** 	}
 473:lib/freertos/src/heap_4.c **** 	else
 474:lib/freertos/src/heap_4.c **** 	{
 475:lib/freertos/src/heap_4.c **** 		mtCOVERAGE_TEST_MARKER();
  83              		.loc 1 475 27 is_stmt 1
  84              	.L1:
 476:lib/freertos/src/heap_4.c **** 	}
 477:lib/freertos/src/heap_4.c **** }
  85              		.loc 1 477 1 is_stmt 0
  86 0046 8280     		ret
  87              	.LVL5:
  88              	.L8:
  89 0048 BA87     		mv	a5,a4
  90              	.LVL6:
  91 004a 7DBF     		j	.L2
  92              		.cfi_endproc
  93              	.LFE8:
GAS LISTING C:\Users\kasie\AppData\Local\Temp\cc7xk2tk.s 			page 11


  95              		.section	.text.pvPortMalloc,"ax",@progbits
  96              		.align	1
  97              		.globl	pvPortMalloc
  99              	pvPortMalloc:
 100              	.LFB2:
 156:lib/freertos/src/heap_4.c **** BlockLink_t *pxBlock, *pxPreviousBlock, *pxNewBlockLink;
 101              		.loc 1 156 1 is_stmt 1
 102              		.cfi_startproc
 103              	.LVL7:
 157:lib/freertos/src/heap_4.c **** void *pvReturn = NULL;
 104              		.loc 1 157 1
 158:lib/freertos/src/heap_4.c **** 
 105              		.loc 1 158 1
 160:lib/freertos/src/heap_4.c **** 	{
 106              		.loc 1 160 2
 156:lib/freertos/src/heap_4.c **** BlockLink_t *pxBlock, *pxPreviousBlock, *pxNewBlockLink;
 107              		.loc 1 156 1 is_stmt 0
 108 0000 7971     		addi	sp,sp,-48
 109              	.LCFI0:
 110              		.cfi_def_cfa_offset 48
 111 0002 2AC6     		sw	a0,12(sp)
 112 0004 06D6     		sw	ra,44(sp)
 113 0006 22D4     		sw	s0,40(sp)
 114 0008 26D2     		sw	s1,36(sp)
 115 000a 4AD0     		sw	s2,32(sp)
 116 000c 4ECE     		sw	s3,28(sp)
 117 000e 52CC     		sw	s4,24(sp)
 118              		.cfi_offset 1, -4
 119              		.cfi_offset 8, -8
 120              		.cfi_offset 9, -12
 121              		.cfi_offset 18, -16
 122              		.cfi_offset 19, -20
 123              		.cfi_offset 20, -24
 160:lib/freertos/src/heap_4.c **** 	{
 124              		.loc 1 160 2
 125 0010 97000000 		call	vTaskSuspendAll
 125      E7800000 
 126              	.LVL8:
 164:lib/freertos/src/heap_4.c **** 		{
 127              		.loc 1 164 3 is_stmt 1
 164:lib/freertos/src/heap_4.c **** 		{
 128              		.loc 1 164 13 is_stmt 0
 129 0018 37060000 		lui	a2,%hi(.LANCHOR1)
 164:lib/freertos/src/heap_4.c **** 		{
 130              		.loc 1 164 5
 131 001c 83270600 		lw	a5,%lo(.LANCHOR1)(a2)
 132 0020 B7060000 		lui	a3,%hi(.LANCHOR4)
 133 0024 13060600 		addi	a2,a2,%lo(.LANCHOR1)
 134 0028 93860600 		addi	a3,a3,%lo(.LANCHOR4)
 135 002c 3245     		lw	a0,12(sp)
 136 002e A9EF     		bne	a5,zero,.L10
 166:lib/freertos/src/heap_4.c **** 		}
 137              		.loc 1 166 4 is_stmt 1
 138              	.LBB6:
 139              	.LBB7:
 373:lib/freertos/src/heap_4.c **** uint8_t *pucAlignedHeap;
 140              		.loc 1 373 1
GAS LISTING C:\Users\kasie\AppData\Local\Temp\cc7xk2tk.s 			page 12


 374:lib/freertos/src/heap_4.c **** size_t uxAddress;
 141              		.loc 1 374 1
 375:lib/freertos/src/heap_4.c **** size_t xTotalHeapSize = configTOTAL_HEAP_SIZE;
 142              		.loc 1 375 1
 376:lib/freertos/src/heap_4.c **** 
 143              		.loc 1 376 1
 144              	.LVL9:
 379:lib/freertos/src/heap_4.c **** 
 145              		.loc 1 379 2
 379:lib/freertos/src/heap_4.c **** 
 146              		.loc 1 379 12 is_stmt 0
 147 0030 37070000 		lui	a4,%hi(ucHeap)
 148 0034 93070700 		addi	a5,a4,%lo(ucHeap)
 149              	.LVL10:
 381:lib/freertos/src/heap_4.c **** 	{
 150              		.loc 1 381 2 is_stmt 1
 381:lib/freertos/src/heap_4.c **** 	{
 151              		.loc 1 381 18 is_stmt 0
 152 0038 93F57700 		andi	a1,a5,7
 381:lib/freertos/src/heap_4.c **** 	{
 153              		.loc 1 381 4
 154 003c 13070700 		addi	a4,a4,%lo(ucHeap)
 155 0040 81C5     		beq	a1,zero,.L11
 383:lib/freertos/src/heap_4.c **** 		uxAddress &= ~( ( size_t ) portBYTE_ALIGNMENT_MASK );
 156              		.loc 1 383 3 is_stmt 1
 383:lib/freertos/src/heap_4.c **** 		uxAddress &= ~( ( size_t ) portBYTE_ALIGNMENT_MASK );
 157              		.loc 1 383 13 is_stmt 0
 158 0042 13877700 		addi	a4,a5,7
 159              	.LVL11:
 384:lib/freertos/src/heap_4.c **** 		xTotalHeapSize -= uxAddress - ( size_t ) ucHeap;
 160              		.loc 1 384 3 is_stmt 1
 384:lib/freertos/src/heap_4.c **** 		xTotalHeapSize -= uxAddress - ( size_t ) ucHeap;
 161              		.loc 1 384 13 is_stmt 0
 162 0046 619B     		andi	a4,a4,-8
 163              	.LVL12:
 385:lib/freertos/src/heap_4.c **** 	}
 164              		.loc 1 385 3 is_stmt 1
 165              	.L11:
 388:lib/freertos/src/heap_4.c **** 
 166              		.loc 1 388 2
 392:lib/freertos/src/heap_4.c **** 	xStart.xBlockSize = ( size_t ) 0;
 167              		.loc 1 392 2
 392:lib/freertos/src/heap_4.c **** 	xStart.xBlockSize = ( size_t ) 0;
 168              		.loc 1 392 25 is_stmt 0
 169 0048 B7050000 		lui	a1,%hi(.LANCHOR0)
 170 004c 93850500 		addi	a1,a1,%lo(.LANCHOR0)
 393:lib/freertos/src/heap_4.c **** 
 171              		.loc 1 393 20
 172 0050 23A20500 		sw	zero,4(a1)
 392:lib/freertos/src/heap_4.c **** 	xStart.xBlockSize = ( size_t ) 0;
 173              		.loc 1 392 25
 174 0054 98C1     		sw	a4,0(a1)
 393:lib/freertos/src/heap_4.c **** 
 175              		.loc 1 393 2 is_stmt 1
 397:lib/freertos/src/heap_4.c **** 	uxAddress -= xHeapStructSize;
 176              		.loc 1 397 2
 177              	.LVL13:
GAS LISTING C:\Users\kasie\AppData\Local\Temp\cc7xk2tk.s 			page 13


 398:lib/freertos/src/heap_4.c **** 	uxAddress &= ~( ( size_t ) portBYTE_ALIGNMENT_MASK );
 178              		.loc 1 398 2
 398:lib/freertos/src/heap_4.c **** 	uxAddress &= ~( ( size_t ) portBYTE_ALIGNMENT_MASK );
 179              		.loc 1 398 12 is_stmt 0
 180 0056 8D65     		li	a1,12288
 181 0058 938585BF 		addi	a1,a1,-1032
 182 005c AE97     		add	a5,a5,a1
 183              	.LVL14:
 399:lib/freertos/src/heap_4.c **** 	pxEnd = ( void * ) uxAddress;
 184              		.loc 1 399 2 is_stmt 1
 399:lib/freertos/src/heap_4.c **** 	pxEnd = ( void * ) uxAddress;
 185              		.loc 1 399 12 is_stmt 0
 186 005e E19B     		andi	a5,a5,-8
 187              	.LVL15:
 400:lib/freertos/src/heap_4.c **** 	pxEnd->xBlockSize = 0;
 188              		.loc 1 400 2 is_stmt 1
 401:lib/freertos/src/heap_4.c **** 	pxEnd->pxNextFreeBlock = NULL;
 189              		.loc 1 401 20 is_stmt 0
 190 0060 23A20700 		sw	zero,4(a5)
 402:lib/freertos/src/heap_4.c **** 
 191              		.loc 1 402 25
 192 0064 23A00700 		sw	zero,0(a5)
 407:lib/freertos/src/heap_4.c **** 	pxFirstFreeBlock->pxNextFreeBlock = pxEnd;
 193              		.loc 1 407 43
 194 0068 B385E740 		sub	a1,a5,a4
 400:lib/freertos/src/heap_4.c **** 	pxEnd->xBlockSize = 0;
 195              		.loc 1 400 8
 196 006c 1CC2     		sw	a5,0(a2)
 401:lib/freertos/src/heap_4.c **** 	pxEnd->pxNextFreeBlock = NULL;
 197              		.loc 1 401 2 is_stmt 1
 402:lib/freertos/src/heap_4.c **** 
 198              		.loc 1 402 2
 406:lib/freertos/src/heap_4.c **** 	pxFirstFreeBlock->xBlockSize = uxAddress - ( size_t ) pxFirstFreeBlock;
 199              		.loc 1 406 2
 200              	.LVL16:
 407:lib/freertos/src/heap_4.c **** 	pxFirstFreeBlock->pxNextFreeBlock = pxEnd;
 201              		.loc 1 407 2
 408:lib/freertos/src/heap_4.c **** 
 202              		.loc 1 408 36 is_stmt 0
 203 006e 1CC3     		sw	a5,0(a4)
 411:lib/freertos/src/heap_4.c **** 	xFreeBytesRemaining = pxFirstFreeBlock->xBlockSize;
 204              		.loc 1 411 33
 205 0070 B7070000 		lui	a5,%hi(.LANCHOR2)
 206              	.LVL17:
 207 0074 23A0B700 		sw	a1,%lo(.LANCHOR2)(a5)
 412:lib/freertos/src/heap_4.c **** 
 208              		.loc 1 412 22
 209 0078 B7070000 		lui	a5,%hi(.LANCHOR3)
 210 007c 23A0B700 		sw	a1,%lo(.LANCHOR3)(a5)
 415:lib/freertos/src/heap_4.c **** }
 211              		.loc 1 415 21
 212 0080 B7070080 		li	a5,-2147483648
 407:lib/freertos/src/heap_4.c **** 	pxFirstFreeBlock->pxNextFreeBlock = pxEnd;
 213              		.loc 1 407 31
 214 0084 4CC3     		sw	a1,4(a4)
 408:lib/freertos/src/heap_4.c **** 
 215              		.loc 1 408 2 is_stmt 1
GAS LISTING C:\Users\kasie\AppData\Local\Temp\cc7xk2tk.s 			page 14


 411:lib/freertos/src/heap_4.c **** 	xFreeBytesRemaining = pxFirstFreeBlock->xBlockSize;
 216              		.loc 1 411 2
 412:lib/freertos/src/heap_4.c **** 
 217              		.loc 1 412 2
 415:lib/freertos/src/heap_4.c **** }
 218              		.loc 1 415 2
 415:lib/freertos/src/heap_4.c **** }
 219              		.loc 1 415 21 is_stmt 0
 220 0086 9CC2     		sw	a5,0(a3)
 221              	.LVL18:
 222              	.L10:
 223              	.LBE7:
 224              	.LBE6:
 170:lib/freertos/src/heap_4.c **** 		}
 225              		.loc 1 170 28 is_stmt 1
 177:lib/freertos/src/heap_4.c **** 		{
 226              		.loc 1 177 3
 177:lib/freertos/src/heap_4.c **** 		{
 227              		.loc 1 177 21 is_stmt 0
 228 0088 03AA0600 		lw	s4,0(a3)
 229 008c B377AA00 		and	a5,s4,a0
 177:lib/freertos/src/heap_4.c **** 		{
 230              		.loc 1 177 5
 231 0090 D5E7     		bne	a5,zero,.L28
 181:lib/freertos/src/heap_4.c **** 			{
 232              		.loc 1 181 4 is_stmt 1
 181:lib/freertos/src/heap_4.c **** 			{
 233              		.loc 1 181 6 is_stmt 0
 234 0092 4DC5     		beq	a0,zero,.L28
 183:lib/freertos/src/heap_4.c **** 
 235              		.loc 1 183 5 is_stmt 1
 183:lib/freertos/src/heap_4.c **** 
 236              		.loc 1 183 17 is_stmt 0
 237 0094 93078500 		addi	a5,a0,8
 238              	.LVL19:
 187:lib/freertos/src/heap_4.c **** 				{
 239              		.loc 1 187 5 is_stmt 1
 187:lib/freertos/src/heap_4.c **** 				{
 240              		.loc 1 187 23 is_stmt 0
 241 0098 13F77700 		andi	a4,a5,7
 187:lib/freertos/src/heap_4.c **** 				{
 242              		.loc 1 187 7
 243 009c 19C3     		beq	a4,zero,.L13
 190:lib/freertos/src/heap_4.c **** 					configASSERT( ( xWantedSize & portBYTE_ALIGNMENT_MASK ) == 0 );
 244              		.loc 1 190 6 is_stmt 1
 190:lib/freertos/src/heap_4.c **** 					configASSERT( ( xWantedSize & portBYTE_ALIGNMENT_MASK ) == 0 );
 245              		.loc 1 190 18 is_stmt 0
 246 009e E19B     		andi	a5,a5,-8
 247              	.LVL20:
 248 00a0 A107     		addi	a5,a5,8
 249              	.LVL21:
 191:lib/freertos/src/heap_4.c **** 				}
 250              		.loc 1 191 6 is_stmt 1
 251              	.L13:
 200:lib/freertos/src/heap_4.c **** 			}
 252              		.loc 1 200 29
 203:lib/freertos/src/heap_4.c **** 			{
GAS LISTING C:\Users\kasie\AppData\Local\Temp\cc7xk2tk.s 			page 15


 253              		.loc 1 203 4
 203:lib/freertos/src/heap_4.c **** 			{
 254              		.loc 1 203 6 is_stmt 0
 255 00a2 C9CF     		beq	a5,zero,.L28
 203:lib/freertos/src/heap_4.c **** 			{
 256              		.loc 1 203 45 discriminator 1
 257 00a4 37070000 		lui	a4,%hi(.LANCHOR3)
 258 00a8 03290700 		lw	s2,%lo(.LANCHOR3)(a4)
 259 00ac 93090700 		addi	s3,a4,%lo(.LANCHOR3)
 203:lib/freertos/src/heap_4.c **** 			{
 260              		.loc 1 203 28 discriminator 1
 261 00b0 6366F908 		bltu	s2,a5,.L28
 207:lib/freertos/src/heap_4.c **** 				pxBlock = xStart.pxNextFreeBlock;
 262              		.loc 1 207 5 is_stmt 1
 263              	.LVL22:
 208:lib/freertos/src/heap_4.c **** 				while( ( pxBlock->xBlockSize < xWantedSize ) && ( pxBlock->pxNextFreeBlock != NULL ) )
 264              		.loc 1 208 5
 208:lib/freertos/src/heap_4.c **** 				while( ( pxBlock->xBlockSize < xWantedSize ) && ( pxBlock->pxNextFreeBlock != NULL ) )
 265              		.loc 1 208 13 is_stmt 0
 266 00b4 37070000 		lui	a4,%hi(.LANCHOR0)
 267 00b8 03240700 		lw	s0,%lo(.LANCHOR0)(a4)
 268              	.LVL23:
 209:lib/freertos/src/heap_4.c **** 				{
 269              		.loc 1 209 5 is_stmt 1
 207:lib/freertos/src/heap_4.c **** 				pxBlock = xStart.pxNextFreeBlock;
 270              		.loc 1 207 21 is_stmt 0
 271 00bc 13070700 		addi	a4,a4,%lo(.LANCHOR0)
 272              	.LVL24:
 273              	.L15:
 209:lib/freertos/src/heap_4.c **** 				{
 274              		.loc 1 209 21
 275 00c0 5440     		lw	a3,4(s0)
 209:lib/freertos/src/heap_4.c **** 				{
 276              		.loc 1 209 10
 277 00c2 63F4F600 		bgeu	a3,a5,.L14
 209:lib/freertos/src/heap_4.c **** 				{
 278              		.loc 1 209 62 discriminator 1
 279 00c6 0C40     		lw	a1,0(s0)
 209:lib/freertos/src/heap_4.c **** 				{
 280              		.loc 1 209 50 discriminator 1
 281 00c8 85E5     		bne	a1,zero,.L27
 282              	.L14:
 217:lib/freertos/src/heap_4.c **** 				{
 283              		.loc 1 217 5 is_stmt 1
 217:lib/freertos/src/heap_4.c **** 				{
 284              		.loc 1 217 7 is_stmt 0
 285 00ca 1042     		lw	a2,0(a2)
 286 00cc 63088606 		beq	a2,s0,.L28
 221:lib/freertos/src/heap_4.c **** 
 287              		.loc 1 221 6 is_stmt 1
 225:lib/freertos/src/heap_4.c **** 
 288              		.loc 1 225 48 is_stmt 0
 289 00d0 1040     		lw	a2,0(s0)
 221:lib/freertos/src/heap_4.c **** 
 290              		.loc 1 221 61
 291 00d2 0443     		lw	s1,0(a4)
 292              	.LVL25:
GAS LISTING C:\Users\kasie\AppData\Local\Temp\cc7xk2tk.s 			page 16


 225:lib/freertos/src/heap_4.c **** 
 293              		.loc 1 225 6 is_stmt 1
 225:lib/freertos/src/heap_4.c **** 
 294              		.loc 1 225 39 is_stmt 0
 295 00d4 10C3     		sw	a2,0(a4)
 229:lib/freertos/src/heap_4.c **** 					{
 296              		.loc 1 229 6 is_stmt 1
 229:lib/freertos/src/heap_4.c **** 					{
 297              		.loc 1 229 32 is_stmt 0
 298 00d6 3387F640 		sub	a4,a3,a5
 299              	.LVL26:
 229:lib/freertos/src/heap_4.c **** 					{
 300              		.loc 1 229 8
 301 00da C146     		li	a3,16
 302 00dc 63F3E602 		bleu	a4,a3,.L16
 235:lib/freertos/src/heap_4.c **** 						configASSERT( ( ( ( size_t ) pxNewBlockLink ) & portBYTE_ALIGNMENT_MASK ) == 0 );
 303              		.loc 1 235 7 is_stmt 1
 235:lib/freertos/src/heap_4.c **** 						configASSERT( ( ( ( size_t ) pxNewBlockLink ) & portBYTE_ALIGNMENT_MASK ) == 0 );
 304              		.loc 1 235 22 is_stmt 0
 305 00e0 3305F400 		add	a0,s0,a5
 306              	.LVL27:
 236:lib/freertos/src/heap_4.c **** 
 307              		.loc 1 236 7 is_stmt 1
 308 00e4 93767500 		andi	a3,a0,7
 309 00e8 99C6     		beq	a3,zero,.L17
 236:lib/freertos/src/heap_4.c **** 
 310              		.loc 1 236 7 discriminator 3
 311              	.LBB8:
 236:lib/freertos/src/heap_4.c **** 
 312              		.loc 1 236 7 discriminator 3
 236:lib/freertos/src/heap_4.c **** 
 313              		.loc 1 236 7 discriminator 3
 236:lib/freertos/src/heap_4.c **** 
 314              		.loc 1 236 7 discriminator 3
 315              	 #APP
 316              	# 236 "lib/freertos/src/heap_4.c" 1
 317              		csrrc a5, mstatus, 8
 318              	# 0 "" 2
 319              	.LVL28:
 236:lib/freertos/src/heap_4.c **** 
 320              		.loc 1 236 7 discriminator 3
 321              	 #NO_APP
 322              	.L18:
 323              	.LBE8:
 236:lib/freertos/src/heap_4.c **** 
 324              		.loc 1 236 7 discriminator 3
 236:lib/freertos/src/heap_4.c **** 
 325              		.loc 1 236 7 discriminator 3
 236:lib/freertos/src/heap_4.c **** 
 326              		.loc 1 236 7 discriminator 3
 327 00ee 01A0     		j	.L18
 328              	.LVL29:
 329              	.L27:
 330 00f0 2287     		mv	a4,s0
 331              	.LVL30:
 332 00f2 2E84     		mv	s0,a1
 333              	.LVL31:
GAS LISTING C:\Users\kasie\AppData\Local\Temp\cc7xk2tk.s 			page 17


 334 00f4 F1B7     		j	.L15
 335              	.LVL32:
 336              	.L17:
 236:lib/freertos/src/heap_4.c **** 
 337              		.loc 1 236 87 discriminator 2
 240:lib/freertos/src/heap_4.c **** 						pxBlock->xBlockSize = xWantedSize;
 338              		.loc 1 240 7 discriminator 2
 240:lib/freertos/src/heap_4.c **** 						pxBlock->xBlockSize = xWantedSize;
 339              		.loc 1 240 34 is_stmt 0 discriminator 2
 340 00f6 58C1     		sw	a4,4(a0)
 241:lib/freertos/src/heap_4.c **** 
 341              		.loc 1 241 7 is_stmt 1 discriminator 2
 241:lib/freertos/src/heap_4.c **** 
 342              		.loc 1 241 27 is_stmt 0 discriminator 2
 343 00f8 5CC0     		sw	a5,4(s0)
 244:lib/freertos/src/heap_4.c **** 					}
 344              		.loc 1 244 7 is_stmt 1 discriminator 2
 345 00fa 97000000 		call	prvInsertBlockIntoFreeList
 345      E7800000 
 346              	.LVL33:
 347              	.L16:
 248:lib/freertos/src/heap_4.c **** 					}
 348              		.loc 1 248 31
 251:lib/freertos/src/heap_4.c **** 
 349              		.loc 1 251 6
 251:lib/freertos/src/heap_4.c **** 
 350              		.loc 1 251 36 is_stmt 0
 351 0102 5440     		lw	a3,4(s0)
 253:lib/freertos/src/heap_4.c **** 					{
 352              		.loc 1 253 30
 353 0104 37070000 		lui	a4,%hi(.LANCHOR2)
 354 0108 13070700 		addi	a4,a4,%lo(.LANCHOR2)
 253:lib/freertos/src/heap_4.c **** 					{
 355              		.loc 1 253 8
 356 010c 1043     		lw	a2,0(a4)
 251:lib/freertos/src/heap_4.c **** 
 357              		.loc 1 251 26
 358 010e B307D940 		sub	a5,s2,a3
 359 0112 23A0F900 		sw	a5,0(s3)
 253:lib/freertos/src/heap_4.c **** 					{
 360              		.loc 1 253 6 is_stmt 1
 253:lib/freertos/src/heap_4.c **** 					{
 361              		.loc 1 253 8 is_stmt 0
 362 0116 63F3C700 		bgeu	a5,a2,.L19
 255:lib/freertos/src/heap_4.c **** 					}
 363              		.loc 1 255 7 is_stmt 1
 255:lib/freertos/src/heap_4.c **** 					}
 364              		.loc 1 255 38 is_stmt 0
 365 011a 1CC3     		sw	a5,0(a4)
 366              	.L19:
 264:lib/freertos/src/heap_4.c **** 					pxBlock->pxNextFreeBlock = NULL;
 367              		.loc 1 264 26
 368 011c B367DA00 		or	a5,s4,a3
 221:lib/freertos/src/heap_4.c **** 
 369              		.loc 1 221 15
 370 0120 A104     		addi	s1,s1,8
 371              	.LVL34:
GAS LISTING C:\Users\kasie\AppData\Local\Temp\cc7xk2tk.s 			page 18


 259:lib/freertos/src/heap_4.c **** 					}
 372              		.loc 1 259 31 is_stmt 1
 264:lib/freertos/src/heap_4.c **** 					pxBlock->pxNextFreeBlock = NULL;
 373              		.loc 1 264 6
 264:lib/freertos/src/heap_4.c **** 					pxBlock->pxNextFreeBlock = NULL;
 374              		.loc 1 264 26 is_stmt 0
 375 0122 5CC0     		sw	a5,4(s0)
 265:lib/freertos/src/heap_4.c **** 				}
 376              		.loc 1 265 6 is_stmt 1
 265:lib/freertos/src/heap_4.c **** 				}
 377              		.loc 1 265 31 is_stmt 0
 378 0124 23200400 		sw	zero,0(s0)
 379              	.LVL35:
 380              	.L12:
 279:lib/freertos/src/heap_4.c **** 		}
 381              		.loc 1 279 28 is_stmt 1
 282:lib/freertos/src/heap_4.c **** 	}
 382              		.loc 1 282 39
 284:lib/freertos/src/heap_4.c **** 
 383              		.loc 1 284 2
 284:lib/freertos/src/heap_4.c **** 
 384              		.loc 1 284 11 is_stmt 0
 385 0128 97000000 		call	xTaskResumeAll
 385      E7800000 
 386              	.LVL36:
 300:lib/freertos/src/heap_4.c **** 	return pvReturn;
 387              		.loc 1 300 2 is_stmt 1
 388 0130 93F77400 		andi	a5,s1,7
 389 0134 91C7     		beq	a5,zero,.L9
 300:lib/freertos/src/heap_4.c **** 	return pvReturn;
 390              		.loc 1 300 2 discriminator 3
 391              	.LBB9:
 300:lib/freertos/src/heap_4.c **** 	return pvReturn;
 392              		.loc 1 300 2 discriminator 3
 300:lib/freertos/src/heap_4.c **** 	return pvReturn;
 393              		.loc 1 300 2 discriminator 3
 300:lib/freertos/src/heap_4.c **** 	return pvReturn;
 394              		.loc 1 300 2 discriminator 3
 395              	 #APP
 396              	# 300 "lib/freertos/src/heap_4.c" 1
 397              		csrrc a5, mstatus, 8
 398              	# 0 "" 2
 399              	.LVL37:
 300:lib/freertos/src/heap_4.c **** 	return pvReturn;
 400              		.loc 1 300 2 discriminator 3
 401              	 #NO_APP
 402              	.L21:
 403              	.LBE9:
 300:lib/freertos/src/heap_4.c **** 	return pvReturn;
 404              		.loc 1 300 2 discriminator 5
 300:lib/freertos/src/heap_4.c **** 	return pvReturn;
 405              		.loc 1 300 2 discriminator 5
 300:lib/freertos/src/heap_4.c **** 	return pvReturn;
 406              		.loc 1 300 2 discriminator 5
 407 013a 01A0     		j	.L21
 408              	.LVL38:
 409              	.L28:
GAS LISTING C:\Users\kasie\AppData\Local\Temp\cc7xk2tk.s 			page 19


 158:lib/freertos/src/heap_4.c **** 
 410              		.loc 1 158 7 is_stmt 0
 411 013c 8144     		li	s1,0
 412 013e EDB7     		j	.L12
 413              	.LVL39:
 414              	.L9:
 302:lib/freertos/src/heap_4.c **** /*-----------------------------------------------------------*/
 415              		.loc 1 302 1
 416 0140 B250     		lw	ra,44(sp)
 417              		.cfi_restore 1
 418 0142 2254     		lw	s0,40(sp)
 419              		.cfi_restore 8
 420 0144 2685     		mv	a0,s1
 421 0146 0259     		lw	s2,32(sp)
 422              		.cfi_restore 18
 423 0148 9254     		lw	s1,36(sp)
 424              		.cfi_restore 9
 425              	.LVL40:
 426 014a F249     		lw	s3,28(sp)
 427              		.cfi_restore 19
 428 014c 624A     		lw	s4,24(sp)
 429              		.cfi_restore 20
 430 014e 4561     		addi	sp,sp,48
 431              	.LCFI1:
 432              		.cfi_def_cfa_offset 0
 433 0150 8280     		jr	ra
 434              		.cfi_endproc
 435              	.LFE2:
 437              		.section	.text.vPortFree,"ax",@progbits
 438              		.align	1
 439              		.globl	vPortFree
 441              	vPortFree:
 442              	.LFB3:
 306:lib/freertos/src/heap_4.c **** uint8_t *puc = ( uint8_t * ) pv;
 443              		.loc 1 306 1 is_stmt 1
 444              		.cfi_startproc
 445              	.LVL41:
 307:lib/freertos/src/heap_4.c **** BlockLink_t *pxLink;
 446              		.loc 1 307 1
 308:lib/freertos/src/heap_4.c **** 
 447              		.loc 1 308 1
 310:lib/freertos/src/heap_4.c **** 	{
 448              		.loc 1 310 2
 310:lib/freertos/src/heap_4.c **** 	{
 449              		.loc 1 310 4 is_stmt 0
 450 0000 35C5     		beq	a0,zero,.L34
 314:lib/freertos/src/heap_4.c **** 
 451              		.loc 1 314 3 is_stmt 1
 452              	.LVL42:
 317:lib/freertos/src/heap_4.c **** 
 453              		.loc 1 317 3
 320:lib/freertos/src/heap_4.c **** 		configASSERT( pxLink->pxNextFreeBlock == NULL );
 454              		.loc 1 320 3
 455 0002 B7070000 		lui	a5,%hi(.LANCHOR4)
 456 0006 0327C5FF 		lw	a4,-4(a0)
 457 000a 83A70700 		lw	a5,%lo(.LANCHOR4)(a5)
 458 000e B376F700 		and	a3,a4,a5
GAS LISTING C:\Users\kasie\AppData\Local\Temp\cc7xk2tk.s 			page 20


 459 0012 81E6     		bne	a3,zero,.L36
 320:lib/freertos/src/heap_4.c **** 		configASSERT( pxLink->pxNextFreeBlock == NULL );
 460              		.loc 1 320 3 discriminator 3
 461              	.LBB10:
 320:lib/freertos/src/heap_4.c **** 		configASSERT( pxLink->pxNextFreeBlock == NULL );
 462              		.loc 1 320 3 discriminator 3
 320:lib/freertos/src/heap_4.c **** 		configASSERT( pxLink->pxNextFreeBlock == NULL );
 463              		.loc 1 320 3 discriminator 3
 320:lib/freertos/src/heap_4.c **** 		configASSERT( pxLink->pxNextFreeBlock == NULL );
 464              		.loc 1 320 3 discriminator 3
 465              	 #APP
 466              	# 320 "lib/freertos/src/heap_4.c" 1
 467              		csrrc a5, mstatus, 8
 468              	# 0 "" 2
 469              	.LVL43:
 320:lib/freertos/src/heap_4.c **** 		configASSERT( pxLink->pxNextFreeBlock == NULL );
 470              		.loc 1 320 3 discriminator 3
 471              	 #NO_APP
 472              	.L37:
 473              	.LBE10:
 320:lib/freertos/src/heap_4.c **** 		configASSERT( pxLink->pxNextFreeBlock == NULL );
 474              		.loc 1 320 3 discriminator 1
 320:lib/freertos/src/heap_4.c **** 		configASSERT( pxLink->pxNextFreeBlock == NULL );
 475              		.loc 1 320 3 discriminator 1
 320:lib/freertos/src/heap_4.c **** 		configASSERT( pxLink->pxNextFreeBlock == NULL );
 476              		.loc 1 320 3 discriminator 1
 477 0018 01A0     		j	.L37
 478              	.L36:
 320:lib/freertos/src/heap_4.c **** 		configASSERT( pxLink->pxNextFreeBlock == NULL );
 479              		.loc 1 320 67 discriminator 2
 321:lib/freertos/src/heap_4.c **** 
 480              		.loc 1 321 3 discriminator 2
 481 001a 832685FF 		lw	a3,-8(a0)
 482 001e 81C6     		beq	a3,zero,.L38
 321:lib/freertos/src/heap_4.c **** 
 483              		.loc 1 321 3 discriminator 3
 484              	.LBB11:
 321:lib/freertos/src/heap_4.c **** 
 485              		.loc 1 321 3 discriminator 3
 321:lib/freertos/src/heap_4.c **** 
 486              		.loc 1 321 3 discriminator 3
 321:lib/freertos/src/heap_4.c **** 
 487              		.loc 1 321 3 discriminator 3
 488              	 #APP
 489              	# 321 "lib/freertos/src/heap_4.c" 1
 490              		csrrc a5, mstatus, 8
 491              	# 0 "" 2
 492              	.LVL44:
 321:lib/freertos/src/heap_4.c **** 
 493              		.loc 1 321 3 discriminator 3
 494              	 #NO_APP
 495              	.L39:
 496              	.LBE11:
 321:lib/freertos/src/heap_4.c **** 
 497              		.loc 1 321 3 discriminator 2
 321:lib/freertos/src/heap_4.c **** 
 498              		.loc 1 321 3 discriminator 2
GAS LISTING C:\Users\kasie\AppData\Local\Temp\cc7xk2tk.s 			page 21


 321:lib/freertos/src/heap_4.c **** 
 499              		.loc 1 321 3 discriminator 2
 500 0024 01A0     		j	.L39
 501              	.L38:
 306:lib/freertos/src/heap_4.c **** uint8_t *puc = ( uint8_t * ) pv;
 502              		.loc 1 306 1 is_stmt 0
 503 0026 4111     		addi	sp,sp,-16
 504              	.LCFI2:
 505              		.cfi_def_cfa_offset 16
 329:lib/freertos/src/heap_4.c **** 
 506              		.loc 1 329 27
 507 0028 93C7F7FF 		not	a5,a5
 306:lib/freertos/src/heap_4.c **** uint8_t *puc = ( uint8_t * ) pv;
 508              		.loc 1 306 1
 509 002c 06C6     		sw	ra,12(sp)
 510 002e 22C4     		sw	s0,8(sp)
 511              		.cfi_offset 1, -4
 512              		.cfi_offset 8, -8
 329:lib/freertos/src/heap_4.c **** 
 513              		.loc 1 329 24
 514 0030 F98F     		and	a5,a5,a4
 515 0032 232EF5FE 		sw	a5,-4(a0)
 516 0036 2A84     		mv	s0,a0
 321:lib/freertos/src/heap_4.c **** 
 517              		.loc 1 321 50 is_stmt 1
 323:lib/freertos/src/heap_4.c **** 		{
 518              		.loc 1 323 3
 325:lib/freertos/src/heap_4.c **** 			{
 519              		.loc 1 325 4
 329:lib/freertos/src/heap_4.c **** 
 520              		.loc 1 329 5
 331:lib/freertos/src/heap_4.c **** 				{
 521              		.loc 1 331 5
 522 0038 97000000 		call	vTaskSuspendAll
 522      E7800000 
 523              	.LVL45:
 334:lib/freertos/src/heap_4.c **** 					traceFREE( pv, pxLink->xBlockSize );
 524              		.loc 1 334 6
 334:lib/freertos/src/heap_4.c **** 					traceFREE( pv, pxLink->xBlockSize );
 525              		.loc 1 334 26 is_stmt 0
 526 0040 B7070000 		lui	a5,%hi(.LANCHOR3)
 527 0044 93870700 		addi	a5,a5,%lo(.LANCHOR3)
 528 0048 0327C4FF 		lw	a4,-4(s0)
 529 004c 9443     		lw	a3,0(a5)
 336:lib/freertos/src/heap_4.c **** 				}
 530              		.loc 1 336 6
 531 004e 130584FF 		addi	a0,s0,-8
 334:lib/freertos/src/heap_4.c **** 					traceFREE( pv, pxLink->xBlockSize );
 532              		.loc 1 334 26
 533 0052 3697     		add	a4,a4,a3
 534 0054 98C3     		sw	a4,0(a5)
 335:lib/freertos/src/heap_4.c **** 					prvInsertBlockIntoFreeList( ( ( BlockLink_t * ) pxLink ) );
 535              		.loc 1 335 41 is_stmt 1
 336:lib/freertos/src/heap_4.c **** 				}
 536              		.loc 1 336 6
 537 0056 97000000 		call	prvInsertBlockIntoFreeList
 537      E7800000 
GAS LISTING C:\Users\kasie\AppData\Local\Temp\cc7xk2tk.s 			page 22


 538              	.LVL46:
 338:lib/freertos/src/heap_4.c **** 			}
 539              		.loc 1 338 5
 350:lib/freertos/src/heap_4.c **** /*-----------------------------------------------------------*/
 540              		.loc 1 350 1 is_stmt 0
 541 005e 2244     		lw	s0,8(sp)
 542              		.cfi_restore 8
 543              	.LVL47:
 544 0060 B240     		lw	ra,12(sp)
 545              		.cfi_restore 1
 546 0062 4101     		addi	sp,sp,16
 547              	.LCFI3:
 548              		.cfi_def_cfa_offset 0
 338:lib/freertos/src/heap_4.c **** 			}
 549              		.loc 1 338 14
 550 0064 17030000 		tail	xTaskResumeAll
 550      67000300 
 551              	.LVL48:
 552              	.L34:
 553 006c 8280     		ret
 554              		.cfi_endproc
 555              	.LFE3:
 557              		.section	.text.xPortGetFreeHeapSize,"ax",@progbits
 558              		.align	1
 559              		.globl	xPortGetFreeHeapSize
 561              	xPortGetFreeHeapSize:
 562              	.LFB4:
 354:lib/freertos/src/heap_4.c **** 	return xFreeBytesRemaining;
 563              		.loc 1 354 1 is_stmt 1
 564              		.cfi_startproc
 355:lib/freertos/src/heap_4.c **** }
 565              		.loc 1 355 2
 356:lib/freertos/src/heap_4.c **** /*-----------------------------------------------------------*/
 566              		.loc 1 356 1 is_stmt 0
 567 0000 B7070000 		lui	a5,%hi(.LANCHOR3)
 568 0004 03A50700 		lw	a0,%lo(.LANCHOR3)(a5)
 569 0008 8280     		ret
 570              		.cfi_endproc
 571              	.LFE4:
 573              		.section	.text.xPortGetMinimumEverFreeHeapSize,"ax",@progbits
 574              		.align	1
 575              		.globl	xPortGetMinimumEverFreeHeapSize
 577              	xPortGetMinimumEverFreeHeapSize:
 578              	.LFB5:
 360:lib/freertos/src/heap_4.c **** 	return xMinimumEverFreeBytesRemaining;
 579              		.loc 1 360 1 is_stmt 1
 580              		.cfi_startproc
 361:lib/freertos/src/heap_4.c **** }
 581              		.loc 1 361 2
 362:lib/freertos/src/heap_4.c **** /*-----------------------------------------------------------*/
 582              		.loc 1 362 1 is_stmt 0
 583 0000 B7070000 		lui	a5,%hi(.LANCHOR2)
 584 0004 03A50700 		lw	a0,%lo(.LANCHOR2)(a5)
 585 0008 8280     		ret
 586              		.cfi_endproc
 587              	.LFE5:
 589              		.section	.text.vPortInitialiseBlocks,"ax",@progbits
GAS LISTING C:\Users\kasie\AppData\Local\Temp\cc7xk2tk.s 			page 23


 590              		.align	1
 591              		.globl	vPortInitialiseBlocks
 593              	vPortInitialiseBlocks:
 594              	.LFB6:
 366:lib/freertos/src/heap_4.c **** 	/* This just exists to keep the linker quiet. */
 595              		.loc 1 366 1 is_stmt 1
 596              		.cfi_startproc
 368:lib/freertos/src/heap_4.c **** /*-----------------------------------------------------------*/
 597              		.loc 1 368 1
 598 0000 8280     		ret
 599              		.cfi_endproc
 600              	.LFE6:
 602              		.section	.bss.ucHeap,"aw",@nobits
 603              		.align	2
 606              	ucHeap:
 607 0000 00000000 		.zero	11264
 607      00000000 
 607      00000000 
 607      00000000 
 607      00000000 
 608              		.section	.sbss.pxEnd,"aw",@nobits
 609              		.align	2
 610              		.set	.LANCHOR1,. + 0
 613              	pxEnd:
 614 0000 00000000 		.zero	4
 615              		.section	.sbss.xBlockAllocatedBit,"aw",@nobits
 616              		.align	2
 617              		.set	.LANCHOR4,. + 0
 620              	xBlockAllocatedBit:
 621 0000 00000000 		.zero	4
 622              		.section	.sbss.xFreeBytesRemaining,"aw",@nobits
 623              		.align	2
 624              		.set	.LANCHOR3,. + 0
 627              	xFreeBytesRemaining:
 628 0000 00000000 		.zero	4
 629              		.section	.sbss.xMinimumEverFreeBytesRemaining,"aw",@nobits
 630              		.align	2
 631              		.set	.LANCHOR2,. + 0
 634              	xMinimumEverFreeBytesRemaining:
 635 0000 00000000 		.zero	4
 636              		.section	.sbss.xStart,"aw",@nobits
 637              		.align	2
 638              		.set	.LANCHOR0,. + 0
 641              	xStart:
 642 0000 00000000 		.zero	8
 642      00000000 
 643              		.text
 644              	.Letext0:
 645              		.file 2 "c:\\hukas\\code\\repositories\\kth-hi1025-operativsystem\\compiler\\lib\\gcc\\riscv64-unk
 646              		.file 3 "c:\\hukas\\code\\repositories\\kth-hi1025-operativsystem\\compiler\\riscv64-unknown-elf\\
 647              		.file 4 "c:\\hukas\\code\\repositories\\kth-hi1025-operativsystem\\compiler\\riscv64-unknown-elf\\
 648              		.file 5 "c:\\hukas\\code\\repositories\\kth-hi1025-operativsystem\\compiler\\riscv64-unknown-elf\\
 649              		.file 6 "c:\\hukas\\code\\repositories\\kth-hi1025-operativsystem\\compiler\\riscv64-unknown-elf\\
 650              		.file 7 "c:\\hukas\\code\\repositories\\kth-hi1025-operativsystem\\compiler\\riscv64-unknown-elf\\
 651              		.file 8 "c:\\hukas\\code\\repositories\\kth-hi1025-operativsystem\\compiler\\riscv64-unknown-elf\\
 652              		.file 9 "./../../firmware/GD32VF103_standard_peripheral/system_gd32vf103.h"
 653              		.file 10 "lib/freertos/include/task.h"
GAS LISTING C:\Users\kasie\AppData\Local\Temp\cc7xk2tk.s 			page 24


GAS LISTING C:\Users\kasie\AppData\Local\Temp\cc7xk2tk.s 			page 25

