GAS LISTING C:\Users\kasie\AppData\Local\Temp\ccL98on0.s 			page 1


   1              		.file	"list.c"
   2              		.option nopic
   3              		.attribute arch, "rv32i2p0_m2p0_a2p0_c2p0"
   4              		.attribute unaligned_access, 0
   5              		.attribute stack_align, 16
   6              		.text
   7              	.Ltext0:
   8              		.cfi_sections	.debug_frame
   9              		.section	.text.vListInitialise,"ax",@progbits
  10              		.align	1
  11              		.globl	vListInitialise
  13              	vListInitialise:
  14              	.LFB2:
  15              		.file 1 "lib/freertos/src/list.c"
   1:lib/freertos/src/list.c **** /*
   2:lib/freertos/src/list.c ****     FreeRTOS V9.0.0 - Copyright (C) 2016 Real Time Engineers Ltd.
   3:lib/freertos/src/list.c ****     All rights reserved
   4:lib/freertos/src/list.c **** 
   5:lib/freertos/src/list.c ****     VISIT http://www.FreeRTOS.org TO ENSURE YOU ARE USING THE LATEST VERSION.
   6:lib/freertos/src/list.c **** 
   7:lib/freertos/src/list.c ****     This file is part of the FreeRTOS distribution.
   8:lib/freertos/src/list.c **** 
   9:lib/freertos/src/list.c ****     FreeRTOS is free software; you can redistribute it and/or modify it under
  10:lib/freertos/src/list.c ****     the terms of the GNU General Public License (version 2) as published by the
  11:lib/freertos/src/list.c ****     Free Software Foundation >>>> AND MODIFIED BY <<<< the FreeRTOS exception.
  12:lib/freertos/src/list.c **** 
  13:lib/freertos/src/list.c ****     ***************************************************************************
  14:lib/freertos/src/list.c ****     >>!   NOTE: The modification to the GPL is included to allow you to     !<<
  15:lib/freertos/src/list.c ****     >>!   distribute a combined work that includes FreeRTOS without being   !<<
  16:lib/freertos/src/list.c ****     >>!   obliged to provide the source code for proprietary components     !<<
  17:lib/freertos/src/list.c ****     >>!   outside of the FreeRTOS kernel.                                   !<<
  18:lib/freertos/src/list.c ****     ***************************************************************************
  19:lib/freertos/src/list.c **** 
  20:lib/freertos/src/list.c ****     FreeRTOS is distributed in the hope that it will be useful, but WITHOUT ANY
  21:lib/freertos/src/list.c ****     WARRANTY; without even the implied warranty of MERCHANTABILITY or FITNESS
  22:lib/freertos/src/list.c ****     FOR A PARTICULAR PURPOSE.  Full license text is available on the following
  23:lib/freertos/src/list.c ****     link: http://www.freertos.org/a00114.html
  24:lib/freertos/src/list.c **** 
  25:lib/freertos/src/list.c ****     ***************************************************************************
  26:lib/freertos/src/list.c ****      *                                                                       *
  27:lib/freertos/src/list.c ****      *    FreeRTOS provides completely free yet professionally developed,    *
  28:lib/freertos/src/list.c ****      *    robust, strictly quality controlled, supported, and cross          *
  29:lib/freertos/src/list.c ****      *    platform software that is more than just the market leader, it     *
  30:lib/freertos/src/list.c ****      *    is the industry's de facto standard.                               *
  31:lib/freertos/src/list.c ****      *                                                                       *
  32:lib/freertos/src/list.c ****      *    Help yourself get started quickly while simultaneously helping     *
  33:lib/freertos/src/list.c ****      *    to support the FreeRTOS project by purchasing a FreeRTOS           *
  34:lib/freertos/src/list.c ****      *    tutorial book, reference manual, or both:                          *
  35:lib/freertos/src/list.c ****      *    http://www.FreeRTOS.org/Documentation                              *
  36:lib/freertos/src/list.c ****      *                                                                       *
  37:lib/freertos/src/list.c ****     ***************************************************************************
  38:lib/freertos/src/list.c **** 
  39:lib/freertos/src/list.c ****     http://www.FreeRTOS.org/FAQHelp.html - Having a problem?  Start by reading
  40:lib/freertos/src/list.c ****     the FAQ page "My application does not run, what could be wrong?".  Have you
  41:lib/freertos/src/list.c ****     defined configASSERT()?
  42:lib/freertos/src/list.c **** 
  43:lib/freertos/src/list.c ****     http://www.FreeRTOS.org/support - In return for receiving this top quality
GAS LISTING C:\Users\kasie\AppData\Local\Temp\ccL98on0.s 			page 2


  44:lib/freertos/src/list.c ****     embedded software for free we request you assist our global community by
  45:lib/freertos/src/list.c ****     participating in the support forum.
  46:lib/freertos/src/list.c **** 
  47:lib/freertos/src/list.c ****     http://www.FreeRTOS.org/training - Investing in training allows your team to
  48:lib/freertos/src/list.c ****     be as productive as possible as early as possible.  Now you can receive
  49:lib/freertos/src/list.c ****     FreeRTOS training directly from Richard Barry, CEO of Real Time Engineers
  50:lib/freertos/src/list.c ****     Ltd, and the world's leading authority on the world's leading RTOS.
  51:lib/freertos/src/list.c **** 
  52:lib/freertos/src/list.c ****     http://www.FreeRTOS.org/plus - A selection of FreeRTOS ecosystem products,
  53:lib/freertos/src/list.c ****     including FreeRTOS+Trace - an indispensable productivity tool, a DOS
  54:lib/freertos/src/list.c ****     compatible FAT file system, and our tiny thread aware UDP/IP stack.
  55:lib/freertos/src/list.c **** 
  56:lib/freertos/src/list.c ****     http://www.FreeRTOS.org/labs - Where new FreeRTOS products go to incubate.
  57:lib/freertos/src/list.c ****     Come and try FreeRTOS+TCP, our new open source TCP/IP stack for FreeRTOS.
  58:lib/freertos/src/list.c **** 
  59:lib/freertos/src/list.c ****     http://www.OpenRTOS.com - Real Time Engineers ltd. license FreeRTOS to High
  60:lib/freertos/src/list.c ****     Integrity Systems ltd. to sell under the OpenRTOS brand.  Low cost OpenRTOS
  61:lib/freertos/src/list.c ****     licenses offer ticketed support, indemnification and commercial middleware.
  62:lib/freertos/src/list.c **** 
  63:lib/freertos/src/list.c ****     http://www.SafeRTOS.com - High Integrity Systems also provide a safety
  64:lib/freertos/src/list.c ****     engineered and independently SIL3 certified version for use in safety and
  65:lib/freertos/src/list.c ****     mission critical applications that require provable dependability.
  66:lib/freertos/src/list.c **** 
  67:lib/freertos/src/list.c ****     1 tab == 4 spaces!
  68:lib/freertos/src/list.c **** */
  69:lib/freertos/src/list.c **** 
  70:lib/freertos/src/list.c **** 
  71:lib/freertos/src/list.c **** #include <stdlib.h>
  72:lib/freertos/src/list.c **** #include "FreeRTOS.h"
  73:lib/freertos/src/list.c **** #include "list.h"
  74:lib/freertos/src/list.c **** 
  75:lib/freertos/src/list.c **** /*-----------------------------------------------------------
  76:lib/freertos/src/list.c ****  * PUBLIC LIST API documented in list.h
  77:lib/freertos/src/list.c ****  *----------------------------------------------------------*/
  78:lib/freertos/src/list.c **** 
  79:lib/freertos/src/list.c **** void vListInitialise( List_t * const pxList )
  80:lib/freertos/src/list.c **** {
  16              		.loc 1 80 1
  17              		.cfi_startproc
  18              	.LVL0:
  81:lib/freertos/src/list.c **** 	/* The list structure contains a list item which is used to mark the
  82:lib/freertos/src/list.c **** 	end of the list.  To initialise the list the list end is inserted
  83:lib/freertos/src/list.c **** 	as the only list entry. */
  84:lib/freertos/src/list.c **** 	pxList->pxIndex = ( ListItem_t * ) &( pxList->xListEnd );			/*lint !e826 !e740 The mini list struc
  19              		.loc 1 84 2
  20              		.loc 1 84 37 is_stmt 0
  21 0000 93078500 		addi	a5,a0,8
  85:lib/freertos/src/list.c **** 
  86:lib/freertos/src/list.c **** 	/* The list end value is the highest possible value in the list to
  87:lib/freertos/src/list.c **** 	ensure it remains at the end of the list. */
  88:lib/freertos/src/list.c **** 	pxList->xListEnd.xItemValue = portMAX_DELAY;
  22              		.loc 1 88 30
  23 0004 7D57     		li	a4,-1
  84:lib/freertos/src/list.c **** 
  24              		.loc 1 84 18
  25 0006 5CC1     		sw	a5,4(a0)
  26              		.loc 1 88 2 is_stmt 1
GAS LISTING C:\Users\kasie\AppData\Local\Temp\ccL98on0.s 			page 3


  27              		.loc 1 88 30 is_stmt 0
  28 0008 18C5     		sw	a4,8(a0)
  89:lib/freertos/src/list.c **** 
  90:lib/freertos/src/list.c **** 	/* The list end next and previous pointers point to itself so we know
  91:lib/freertos/src/list.c **** 	when the list is empty. */
  92:lib/freertos/src/list.c **** 	pxList->xListEnd.pxNext = ( ListItem_t * ) &( pxList->xListEnd );	/*lint !e826 !e740 The mini list
  29              		.loc 1 92 2 is_stmt 1
  30              		.loc 1 92 26 is_stmt 0
  31 000a 5CC5     		sw	a5,12(a0)
  93:lib/freertos/src/list.c **** 	pxList->xListEnd.pxPrevious = ( ListItem_t * ) &( pxList->xListEnd );/*lint !e826 !e740 The mini l
  32              		.loc 1 93 2 is_stmt 1
  33              		.loc 1 93 30 is_stmt 0
  34 000c 1CC9     		sw	a5,16(a0)
  94:lib/freertos/src/list.c **** 
  95:lib/freertos/src/list.c **** 	pxList->uxNumberOfItems = ( UBaseType_t ) 0U;
  35              		.loc 1 95 2 is_stmt 1
  36              		.loc 1 95 26 is_stmt 0
  37 000e 23200500 		sw	zero,0(a0)
  96:lib/freertos/src/list.c **** 
  97:lib/freertos/src/list.c **** 	/* Write known values into the list if
  98:lib/freertos/src/list.c **** 	configUSE_LIST_DATA_INTEGRITY_CHECK_BYTES is set to 1. */
  99:lib/freertos/src/list.c **** 	listSET_LIST_INTEGRITY_CHECK_1_VALUE( pxList );
  38              		.loc 1 99 48 is_stmt 1
 100:lib/freertos/src/list.c **** 	listSET_LIST_INTEGRITY_CHECK_2_VALUE( pxList );
  39              		.loc 1 100 48
 101:lib/freertos/src/list.c **** }
  40              		.loc 1 101 1 is_stmt 0
  41 0012 8280     		ret
  42              		.cfi_endproc
  43              	.LFE2:
  45              		.section	.text.vListInitialiseItem,"ax",@progbits
  46              		.align	1
  47              		.globl	vListInitialiseItem
  49              	vListInitialiseItem:
  50              	.LFB3:
 102:lib/freertos/src/list.c **** /*-----------------------------------------------------------*/
 103:lib/freertos/src/list.c **** 
 104:lib/freertos/src/list.c **** void vListInitialiseItem( ListItem_t * const pxItem )
 105:lib/freertos/src/list.c **** {
  51              		.loc 1 105 1 is_stmt 1
  52              		.cfi_startproc
  53              	.LVL1:
 106:lib/freertos/src/list.c **** 	/* Make sure the list item is not recorded as being on a list. */
 107:lib/freertos/src/list.c **** 	pxItem->pvContainer = NULL;
  54              		.loc 1 107 2
  55              		.loc 1 107 22 is_stmt 0
  56 0000 23280500 		sw	zero,16(a0)
 108:lib/freertos/src/list.c **** 
 109:lib/freertos/src/list.c **** 	/* Write known values into the list item if
 110:lib/freertos/src/list.c **** 	configUSE_LIST_DATA_INTEGRITY_CHECK_BYTES is set to 1. */
 111:lib/freertos/src/list.c **** 	listSET_FIRST_LIST_ITEM_INTEGRITY_CHECK_VALUE( pxItem );
  57              		.loc 1 111 57 is_stmt 1
 112:lib/freertos/src/list.c **** 	listSET_SECOND_LIST_ITEM_INTEGRITY_CHECK_VALUE( pxItem );
  58              		.loc 1 112 58
 113:lib/freertos/src/list.c **** }
  59              		.loc 1 113 1 is_stmt 0
  60 0004 8280     		ret
GAS LISTING C:\Users\kasie\AppData\Local\Temp\ccL98on0.s 			page 4


  61              		.cfi_endproc
  62              	.LFE3:
  64              		.section	.text.vListInsertEnd,"ax",@progbits
  65              		.align	1
  66              		.globl	vListInsertEnd
  68              	vListInsertEnd:
  69              	.LFB4:
 114:lib/freertos/src/list.c **** /*-----------------------------------------------------------*/
 115:lib/freertos/src/list.c **** 
 116:lib/freertos/src/list.c **** void vListInsertEnd( List_t * const pxList, ListItem_t * const pxNewListItem )
 117:lib/freertos/src/list.c **** {
  70              		.loc 1 117 1 is_stmt 1
  71              		.cfi_startproc
  72              	.LVL2:
 118:lib/freertos/src/list.c **** ListItem_t * const pxIndex = pxList->pxIndex;
  73              		.loc 1 118 1
  74              		.loc 1 118 20 is_stmt 0
  75 0000 5C41     		lw	a5,4(a0)
  76              	.LVL3:
 119:lib/freertos/src/list.c **** 
 120:lib/freertos/src/list.c **** 	/* Only effective when configASSERT() is also defined, these tests may catch
 121:lib/freertos/src/list.c **** 	the list data structures being overwritten in memory.  They will not catch
 122:lib/freertos/src/list.c **** 	data errors caused by incorrect configuration or use of FreeRTOS. */
 123:lib/freertos/src/list.c **** 	listTEST_LIST_INTEGRITY( pxList );
  77              		.loc 1 123 35 is_stmt 1
 124:lib/freertos/src/list.c **** 	listTEST_LIST_ITEM_INTEGRITY( pxNewListItem );
  78              		.loc 1 124 47
 125:lib/freertos/src/list.c **** 
 126:lib/freertos/src/list.c **** 	/* Insert a new list item into pxList, but rather than sort the list,
 127:lib/freertos/src/list.c **** 	makes the new list item the last item to be removed by a call to
 128:lib/freertos/src/list.c **** 	listGET_OWNER_OF_NEXT_ENTRY(). */
 129:lib/freertos/src/list.c **** 	pxNewListItem->pxNext = pxIndex;
  79              		.loc 1 129 2
 130:lib/freertos/src/list.c **** 	pxNewListItem->pxPrevious = pxIndex->pxPrevious;
  80              		.loc 1 130 37 is_stmt 0
  81 0002 9847     		lw	a4,8(a5)
 129:lib/freertos/src/list.c **** 	pxNewListItem->pxPrevious = pxIndex->pxPrevious;
  82              		.loc 1 129 24
  83 0004 DCC1     		sw	a5,4(a1)
  84              		.loc 1 130 2 is_stmt 1
  85              		.loc 1 130 28 is_stmt 0
  86 0006 98C5     		sw	a4,8(a1)
 131:lib/freertos/src/list.c **** 
 132:lib/freertos/src/list.c **** 	/* Only used during decision coverage testing. */
 133:lib/freertos/src/list.c **** 	mtCOVERAGE_TEST_DELAY();
  87              		.loc 1 133 25 is_stmt 1
 134:lib/freertos/src/list.c **** 
 135:lib/freertos/src/list.c **** 	pxIndex->pxPrevious->pxNext = pxNewListItem;
  88              		.loc 1 135 2
  89              		.loc 1 135 30 is_stmt 0
  90 0008 9847     		lw	a4,8(a5)
  91 000a 4CC3     		sw	a1,4(a4)
 136:lib/freertos/src/list.c **** 	pxIndex->pxPrevious = pxNewListItem;
  92              		.loc 1 136 2 is_stmt 1
  93              		.loc 1 136 22 is_stmt 0
  94 000c 8CC7     		sw	a1,8(a5)
 137:lib/freertos/src/list.c **** 
GAS LISTING C:\Users\kasie\AppData\Local\Temp\ccL98on0.s 			page 5


 138:lib/freertos/src/list.c **** 	/* Remember which list the item is in. */
 139:lib/freertos/src/list.c **** 	pxNewListItem->pvContainer = ( void * ) pxList;
  95              		.loc 1 139 2 is_stmt 1
 140:lib/freertos/src/list.c **** 
 141:lib/freertos/src/list.c **** 	( pxList->uxNumberOfItems )++;
  96              		.loc 1 141 29 is_stmt 0
  97 000e 1C41     		lw	a5,0(a0)
  98              	.LVL4:
 139:lib/freertos/src/list.c **** 
  99              		.loc 1 139 29
 100 0010 88C9     		sw	a0,16(a1)
 101              		.loc 1 141 2 is_stmt 1
 102              		.loc 1 141 29 is_stmt 0
 103 0012 8507     		addi	a5,a5,1
 104 0014 1CC1     		sw	a5,0(a0)
 142:lib/freertos/src/list.c **** }
 105              		.loc 1 142 1
 106 0016 8280     		ret
 107              		.cfi_endproc
 108              	.LFE4:
 110              		.section	.text.vListInsert,"ax",@progbits
 111              		.align	1
 112              		.globl	vListInsert
 114              	vListInsert:
 115              	.LFB5:
 143:lib/freertos/src/list.c **** /*-----------------------------------------------------------*/
 144:lib/freertos/src/list.c **** 
 145:lib/freertos/src/list.c **** void vListInsert( List_t * const pxList, ListItem_t * const pxNewListItem )
 146:lib/freertos/src/list.c **** {
 116              		.loc 1 146 1 is_stmt 1
 117              		.cfi_startproc
 118              	.LVL5:
 147:lib/freertos/src/list.c **** ListItem_t *pxIterator;
 119              		.loc 1 147 1
 148:lib/freertos/src/list.c **** const TickType_t xValueOfInsertion = pxNewListItem->xItemValue;
 120              		.loc 1 148 1
 121              		.loc 1 148 18 is_stmt 0
 122 0000 9841     		lw	a4,0(a1)
 123              	.LVL6:
 149:lib/freertos/src/list.c **** 
 150:lib/freertos/src/list.c **** 	/* Only effective when configASSERT() is also defined, these tests may catch
 151:lib/freertos/src/list.c **** 	the list data structures being overwritten in memory.  They will not catch
 152:lib/freertos/src/list.c **** 	data errors caused by incorrect configuration or use of FreeRTOS. */
 153:lib/freertos/src/list.c **** 	listTEST_LIST_INTEGRITY( pxList );
 124              		.loc 1 153 35 is_stmt 1
 154:lib/freertos/src/list.c **** 	listTEST_LIST_ITEM_INTEGRITY( pxNewListItem );
 125              		.loc 1 154 47
 155:lib/freertos/src/list.c **** 
 156:lib/freertos/src/list.c **** 	/* Insert the new list item into the list, sorted in xItemValue order.
 157:lib/freertos/src/list.c **** 
 158:lib/freertos/src/list.c **** 	If the list already contains a list item with the same item value then the
 159:lib/freertos/src/list.c **** 	new list item should be placed after it.  This ensures that TCB's which are
 160:lib/freertos/src/list.c **** 	stored in ready lists (all of which have the same xItemValue value) get a
 161:lib/freertos/src/list.c **** 	share of the CPU.  However, if the xItemValue is the same as the back marker
 162:lib/freertos/src/list.c **** 	the iteration loop below will not end.  Therefore the value is checked
 163:lib/freertos/src/list.c **** 	first, and the algorithm slightly modified if necessary. */
 164:lib/freertos/src/list.c **** 	if( xValueOfInsertion == portMAX_DELAY )
GAS LISTING C:\Users\kasie\AppData\Local\Temp\ccL98on0.s 			page 6


 126              		.loc 1 164 2
 127              		.loc 1 164 4 is_stmt 0
 128 0002 FD56     		li	a3,-1
 165:lib/freertos/src/list.c **** 	{
 166:lib/freertos/src/list.c **** 		pxIterator = pxList->xListEnd.pxPrevious;
 167:lib/freertos/src/list.c **** 	}
 168:lib/freertos/src/list.c **** 	else
 169:lib/freertos/src/list.c **** 	{
 170:lib/freertos/src/list.c **** 		/* *** NOTE ***********************************************************
 171:lib/freertos/src/list.c **** 		If you find your application is crashing here then likely causes are
 172:lib/freertos/src/list.c **** 		listed below.  In addition see http://www.freertos.org/FAQHelp.html for
 173:lib/freertos/src/list.c **** 		more tips, and ensure configASSERT() is defined!
 174:lib/freertos/src/list.c **** 		http://www.freertos.org/a00110.html#configASSERT
 175:lib/freertos/src/list.c **** 
 176:lib/freertos/src/list.c **** 			1) Stack overflow -
 177:lib/freertos/src/list.c **** 			   see http://www.freertos.org/Stacks-and-stack-overflow-checking.html
 178:lib/freertos/src/list.c **** 			2) Incorrect interrupt priority assignment, especially on Cortex-M
 179:lib/freertos/src/list.c **** 			   parts where numerically high priority values denote low actual
 180:lib/freertos/src/list.c **** 			   interrupt priorities, which can seem counter intuitive.  See
 181:lib/freertos/src/list.c **** 			   http://www.freertos.org/RTOS-Cortex-M3-M4.html and the definition
 182:lib/freertos/src/list.c **** 			   of configMAX_SYSCALL_INTERRUPT_PRIORITY on
 183:lib/freertos/src/list.c **** 			   http://www.freertos.org/a00110.html
 184:lib/freertos/src/list.c **** 			3) Calling an API function from within a critical section or when
 185:lib/freertos/src/list.c **** 			   the scheduler is suspended, or calling an API function that does
 186:lib/freertos/src/list.c **** 			   not end in "FromISR" from an interrupt.
 187:lib/freertos/src/list.c **** 			4) Using a queue or semaphore before it has been initialised or
 188:lib/freertos/src/list.c **** 			   before the scheduler has been started (are interrupts firing
 189:lib/freertos/src/list.c **** 			   before vTaskStartScheduler() has been called?).
 190:lib/freertos/src/list.c **** 		**********************************************************************/
 191:lib/freertos/src/list.c **** 
 192:lib/freertos/src/list.c **** 		for( pxIterator = ( ListItem_t * ) &( pxList->xListEnd ); pxIterator->pxNext->xItemValue <= xValu
 129              		.loc 1 192 19
 130 0004 93078500 		addi	a5,a0,8
 164:lib/freertos/src/list.c **** 	{
 131              		.loc 1 164 4
 132 0008 631ED700 		bne	a4,a3,.L7
 166:lib/freertos/src/list.c **** 	}
 133              		.loc 1 166 3 is_stmt 1
 166:lib/freertos/src/list.c **** 	}
 134              		.loc 1 166 14 is_stmt 0
 135 000c 1C49     		lw	a5,16(a0)
 136              	.LVL7:
 137              	.L6:
 193:lib/freertos/src/list.c **** 		{
 194:lib/freertos/src/list.c **** 			/* There is nothing to do here, just iterating to the wanted
 195:lib/freertos/src/list.c **** 			insertion position. */
 196:lib/freertos/src/list.c **** 		}
 197:lib/freertos/src/list.c **** 	}
 198:lib/freertos/src/list.c **** 
 199:lib/freertos/src/list.c **** 	pxNewListItem->pxNext = pxIterator->pxNext;
 138              		.loc 1 199 2 is_stmt 1
 139              		.loc 1 199 36 is_stmt 0
 140 000e D843     		lw	a4,4(a5)
 141              	.LVL8:
 142              		.loc 1 199 24
 143 0010 D8C1     		sw	a4,4(a1)
 200:lib/freertos/src/list.c **** 	pxNewListItem->pxNext->pxPrevious = pxNewListItem;
GAS LISTING C:\Users\kasie\AppData\Local\Temp\ccL98on0.s 			page 7


 144              		.loc 1 200 2 is_stmt 1
 145              		.loc 1 200 36 is_stmt 0
 146 0012 0CC7     		sw	a1,8(a4)
 201:lib/freertos/src/list.c **** 	pxNewListItem->pxPrevious = pxIterator;
 147              		.loc 1 201 2 is_stmt 1
 148              		.loc 1 201 28 is_stmt 0
 149 0014 9CC5     		sw	a5,8(a1)
 202:lib/freertos/src/list.c **** 	pxIterator->pxNext = pxNewListItem;
 150              		.loc 1 202 2 is_stmt 1
 151              		.loc 1 202 21 is_stmt 0
 152 0016 CCC3     		sw	a1,4(a5)
 203:lib/freertos/src/list.c **** 
 204:lib/freertos/src/list.c **** 	/* Remember which list the item is in.  This allows fast removal of the
 205:lib/freertos/src/list.c **** 	item later. */
 206:lib/freertos/src/list.c **** 	pxNewListItem->pvContainer = ( void * ) pxList;
 153              		.loc 1 206 2 is_stmt 1
 207:lib/freertos/src/list.c **** 
 208:lib/freertos/src/list.c **** 	( pxList->uxNumberOfItems )++;
 154              		.loc 1 208 29 is_stmt 0
 155 0018 1C41     		lw	a5,0(a0)
 156              	.LVL9:
 206:lib/freertos/src/list.c **** 
 157              		.loc 1 206 29
 158 001a 88C9     		sw	a0,16(a1)
 159              		.loc 1 208 2 is_stmt 1
 160              		.loc 1 208 29 is_stmt 0
 161 001c 8507     		addi	a5,a5,1
 162 001e 1CC1     		sw	a5,0(a0)
 209:lib/freertos/src/list.c **** }
 163              		.loc 1 209 1
 164 0020 8280     		ret
 165              	.LVL10:
 166              	.L8:
 167 0022 B687     		mv	a5,a3
 168              	.LVL11:
 169              	.L7:
 192:lib/freertos/src/list.c **** 		{
 170              		.loc 1 192 71 discriminator 1
 171 0024 D443     		lw	a3,4(a5)
 192:lib/freertos/src/list.c **** 		{
 172              		.loc 1 192 79 discriminator 1
 173 0026 9042     		lw	a2,0(a3)
 192:lib/freertos/src/list.c **** 		{
 174              		.loc 1 192 3 discriminator 1
 175 0028 E37DC7FE 		bleu	a2,a4,.L8
 176 002c CDB7     		j	.L6
 177              		.cfi_endproc
 178              	.LFE5:
 180              		.section	.text.uxListRemove,"ax",@progbits
 181              		.align	1
 182              		.globl	uxListRemove
 184              	uxListRemove:
 185              	.LFB6:
 210:lib/freertos/src/list.c **** /*-----------------------------------------------------------*/
 211:lib/freertos/src/list.c **** 
 212:lib/freertos/src/list.c **** UBaseType_t uxListRemove( ListItem_t * const pxItemToRemove )
 213:lib/freertos/src/list.c **** {
GAS LISTING C:\Users\kasie\AppData\Local\Temp\ccL98on0.s 			page 8


 186              		.loc 1 213 1 is_stmt 1
 187              		.cfi_startproc
 188              	.LVL12:
 214:lib/freertos/src/list.c **** /* The list item knows which list it is in.  Obtain the list from the list
 215:lib/freertos/src/list.c **** item. */
 216:lib/freertos/src/list.c **** List_t * const pxList = ( List_t * ) pxItemToRemove->pvContainer;
 189              		.loc 1 216 1
 217:lib/freertos/src/list.c **** 
 218:lib/freertos/src/list.c **** 	pxItemToRemove->pxNext->pxPrevious = pxItemToRemove->pxPrevious;
 190              		.loc 1 218 16 is_stmt 0
 191 0000 5441     		lw	a3,4(a0)
 192              		.loc 1 218 53
 193 0002 1845     		lw	a4,8(a0)
 216:lib/freertos/src/list.c **** 
 194              		.loc 1 216 16
 195 0004 1C49     		lw	a5,16(a0)
 196              	.LVL13:
 197              		.loc 1 218 2 is_stmt 1
 198              		.loc 1 218 37 is_stmt 0
 199 0006 98C6     		sw	a4,8(a3)
 219:lib/freertos/src/list.c **** 	pxItemToRemove->pxPrevious->pxNext = pxItemToRemove->pxNext;
 200              		.loc 1 219 2 is_stmt 1
 201              		.loc 1 219 37 is_stmt 0
 202 0008 54C3     		sw	a3,4(a4)
 220:lib/freertos/src/list.c **** 
 221:lib/freertos/src/list.c **** 	/* Only used during decision coverage testing. */
 222:lib/freertos/src/list.c **** 	mtCOVERAGE_TEST_DELAY();
 203              		.loc 1 222 25 is_stmt 1
 223:lib/freertos/src/list.c **** 
 224:lib/freertos/src/list.c **** 	/* Make sure the index is left pointing to a valid item. */
 225:lib/freertos/src/list.c **** 	if( pxList->pxIndex == pxItemToRemove )
 204              		.loc 1 225 2
 205              		.loc 1 225 4 is_stmt 0
 206 000a D443     		lw	a3,4(a5)
 207 000c 6393A600 		bne	a3,a0,.L11
 226:lib/freertos/src/list.c **** 	{
 227:lib/freertos/src/list.c **** 		pxList->pxIndex = pxItemToRemove->pxPrevious;
 208              		.loc 1 227 3 is_stmt 1
 209              		.loc 1 227 19 is_stmt 0
 210 0010 D8C3     		sw	a4,4(a5)
 211              	.L11:
 228:lib/freertos/src/list.c **** 	}
 229:lib/freertos/src/list.c **** 	else
 230:lib/freertos/src/list.c **** 	{
 231:lib/freertos/src/list.c **** 		mtCOVERAGE_TEST_MARKER();
 212              		.loc 1 231 27 is_stmt 1
 232:lib/freertos/src/list.c **** 	}
 233:lib/freertos/src/list.c **** 
 234:lib/freertos/src/list.c **** 	pxItemToRemove->pvContainer = NULL;
 213              		.loc 1 234 2
 214              		.loc 1 234 30 is_stmt 0
 215 0012 23280500 		sw	zero,16(a0)
 235:lib/freertos/src/list.c **** 	( pxList->uxNumberOfItems )--;
 216              		.loc 1 235 2 is_stmt 1
 217              		.loc 1 235 29 is_stmt 0
 218 0016 8843     		lw	a0,0(a5)
 219              	.LVL14:
GAS LISTING C:\Users\kasie\AppData\Local\Temp\ccL98on0.s 			page 9


 220 0018 7D15     		addi	a0,a0,-1
 221 001a 88C3     		sw	a0,0(a5)
 236:lib/freertos/src/list.c **** 
 237:lib/freertos/src/list.c **** 	return pxList->uxNumberOfItems;
 222              		.loc 1 237 2 is_stmt 1
 238:lib/freertos/src/list.c **** }
 223              		.loc 1 238 1 is_stmt 0
 224 001c 8280     		ret
 225              		.cfi_endproc
 226              	.LFE6:
 228              		.text
 229              	.Letext0:
 230              		.file 2 "c:\\hukas\\code\\repositories\\kth-hi1025-operativsystem\\compiler\\lib\\gcc\\riscv64-unk
 231              		.file 3 "c:\\hukas\\code\\repositories\\kth-hi1025-operativsystem\\compiler\\riscv64-unknown-elf\\
 232              		.file 4 "c:\\hukas\\code\\repositories\\kth-hi1025-operativsystem\\compiler\\riscv64-unknown-elf\\
 233              		.file 5 "c:\\hukas\\code\\repositories\\kth-hi1025-operativsystem\\compiler\\riscv64-unknown-elf\\
 234              		.file 6 "c:\\hukas\\code\\repositories\\kth-hi1025-operativsystem\\compiler\\riscv64-unknown-elf\\
 235              		.file 7 "c:\\hukas\\code\\repositories\\kth-hi1025-operativsystem\\compiler\\riscv64-unknown-elf\\
 236              		.file 8 "c:\\hukas\\code\\repositories\\kth-hi1025-operativsystem\\compiler\\riscv64-unknown-elf\\
 237              		.file 9 "./../../firmware/GD32VF103_standard_peripheral/system_gd32vf103.h"
 238              		.file 10 "lib/freertos/include/portmacro.h"
 239              		.file 11 "lib/freertos/include/list.h"
GAS LISTING C:\Users\kasie\AppData\Local\Temp\ccL98on0.s 			page 10


DEFINED SYMBOLS
                            *ABS*:0000000000000000 list.c
C:\Users\kasie\AppData\Local\Temp\ccL98on0.s:13     .text.vListInitialise:0000000000000000 vListInitialise
C:\Users\kasie\AppData\Local\Temp\ccL98on0.s:17     .text.vListInitialise:0000000000000000 .L0 
C:\Users\kasie\AppData\Local\Temp\ccL98on0.s:19     .text.vListInitialise:0000000000000000 .L0 
C:\Users\kasie\AppData\Local\Temp\ccL98on0.s:20     .text.vListInitialise:0000000000000000 .L0 
C:\Users\kasie\AppData\Local\Temp\ccL98on0.s:21     .text.vListInitialise:0000000000000000 .L0 
C:\Users\kasie\AppData\Local\Temp\ccL98on0.s:23     .text.vListInitialise:0000000000000004 .L0 
C:\Users\kasie\AppData\Local\Temp\ccL98on0.s:25     .text.vListInitialise:0000000000000006 .L0 
C:\Users\kasie\AppData\Local\Temp\ccL98on0.s:27     .text.vListInitialise:0000000000000008 .L0 
C:\Users\kasie\AppData\Local\Temp\ccL98on0.s:28     .text.vListInitialise:0000000000000008 .L0 
C:\Users\kasie\AppData\Local\Temp\ccL98on0.s:30     .text.vListInitialise:000000000000000a .L0 
C:\Users\kasie\AppData\Local\Temp\ccL98on0.s:31     .text.vListInitialise:000000000000000a .L0 
C:\Users\kasie\AppData\Local\Temp\ccL98on0.s:33     .text.vListInitialise:000000000000000c .L0 
C:\Users\kasie\AppData\Local\Temp\ccL98on0.s:34     .text.vListInitialise:000000000000000c .L0 
C:\Users\kasie\AppData\Local\Temp\ccL98on0.s:36     .text.vListInitialise:000000000000000e .L0 
C:\Users\kasie\AppData\Local\Temp\ccL98on0.s:37     .text.vListInitialise:000000000000000e .L0 
C:\Users\kasie\AppData\Local\Temp\ccL98on0.s:39     .text.vListInitialise:0000000000000012 .L0 
C:\Users\kasie\AppData\Local\Temp\ccL98on0.s:40     .text.vListInitialise:0000000000000012 .L0 
C:\Users\kasie\AppData\Local\Temp\ccL98on0.s:41     .text.vListInitialise:0000000000000012 .L0 
C:\Users\kasie\AppData\Local\Temp\ccL98on0.s:42     .text.vListInitialise:0000000000000014 .L0 
C:\Users\kasie\AppData\Local\Temp\ccL98on0.s:49     .text.vListInitialiseItem:0000000000000000 vListInitialiseItem
C:\Users\kasie\AppData\Local\Temp\ccL98on0.s:52     .text.vListInitialiseItem:0000000000000000 .L0 
C:\Users\kasie\AppData\Local\Temp\ccL98on0.s:54     .text.vListInitialiseItem:0000000000000000 .L0 
C:\Users\kasie\AppData\Local\Temp\ccL98on0.s:55     .text.vListInitialiseItem:0000000000000000 .L0 
C:\Users\kasie\AppData\Local\Temp\ccL98on0.s:56     .text.vListInitialiseItem:0000000000000000 .L0 
C:\Users\kasie\AppData\Local\Temp\ccL98on0.s:58     .text.vListInitialiseItem:0000000000000004 .L0 
C:\Users\kasie\AppData\Local\Temp\ccL98on0.s:59     .text.vListInitialiseItem:0000000000000004 .L0 
C:\Users\kasie\AppData\Local\Temp\ccL98on0.s:60     .text.vListInitialiseItem:0000000000000004 .L0 
C:\Users\kasie\AppData\Local\Temp\ccL98on0.s:61     .text.vListInitialiseItem:0000000000000006 .L0 
C:\Users\kasie\AppData\Local\Temp\ccL98on0.s:68     .text.vListInsertEnd:0000000000000000 vListInsertEnd
C:\Users\kasie\AppData\Local\Temp\ccL98on0.s:71     .text.vListInsertEnd:0000000000000000 .L0 
C:\Users\kasie\AppData\Local\Temp\ccL98on0.s:73     .text.vListInsertEnd:0000000000000000 .L0 
C:\Users\kasie\AppData\Local\Temp\ccL98on0.s:74     .text.vListInsertEnd:0000000000000000 .L0 
C:\Users\kasie\AppData\Local\Temp\ccL98on0.s:75     .text.vListInsertEnd:0000000000000000 .L0 
C:\Users\kasie\AppData\Local\Temp\ccL98on0.s:78     .text.vListInsertEnd:0000000000000002 .L0 
C:\Users\kasie\AppData\Local\Temp\ccL98on0.s:79     .text.vListInsertEnd:0000000000000002 .L0 
C:\Users\kasie\AppData\Local\Temp\ccL98on0.s:80     .text.vListInsertEnd:0000000000000002 .L0 
C:\Users\kasie\AppData\Local\Temp\ccL98on0.s:81     .text.vListInsertEnd:0000000000000002 .L0 
C:\Users\kasie\AppData\Local\Temp\ccL98on0.s:83     .text.vListInsertEnd:0000000000000004 .L0 
C:\Users\kasie\AppData\Local\Temp\ccL98on0.s:85     .text.vListInsertEnd:0000000000000006 .L0 
C:\Users\kasie\AppData\Local\Temp\ccL98on0.s:86     .text.vListInsertEnd:0000000000000006 .L0 
C:\Users\kasie\AppData\Local\Temp\ccL98on0.s:88     .text.vListInsertEnd:0000000000000008 .L0 
C:\Users\kasie\AppData\Local\Temp\ccL98on0.s:89     .text.vListInsertEnd:0000000000000008 .L0 
C:\Users\kasie\AppData\Local\Temp\ccL98on0.s:90     .text.vListInsertEnd:0000000000000008 .L0 
C:\Users\kasie\AppData\Local\Temp\ccL98on0.s:93     .text.vListInsertEnd:000000000000000c .L0 
C:\Users\kasie\AppData\Local\Temp\ccL98on0.s:94     .text.vListInsertEnd:000000000000000c .L0 
C:\Users\kasie\AppData\Local\Temp\ccL98on0.s:96     .text.vListInsertEnd:000000000000000e .L0 
C:\Users\kasie\AppData\Local\Temp\ccL98on0.s:97     .text.vListInsertEnd:000000000000000e .L0 
C:\Users\kasie\AppData\Local\Temp\ccL98on0.s:100    .text.vListInsertEnd:0000000000000010 .L0 
C:\Users\kasie\AppData\Local\Temp\ccL98on0.s:102    .text.vListInsertEnd:0000000000000012 .L0 
C:\Users\kasie\AppData\Local\Temp\ccL98on0.s:103    .text.vListInsertEnd:0000000000000012 .L0 
C:\Users\kasie\AppData\Local\Temp\ccL98on0.s:106    .text.vListInsertEnd:0000000000000016 .L0 
C:\Users\kasie\AppData\Local\Temp\ccL98on0.s:107    .text.vListInsertEnd:0000000000000018 .L0 
C:\Users\kasie\AppData\Local\Temp\ccL98on0.s:114    .text.vListInsert:0000000000000000 vListInsert
C:\Users\kasie\AppData\Local\Temp\ccL98on0.s:117    .text.vListInsert:0000000000000000 .L0 
C:\Users\kasie\AppData\Local\Temp\ccL98on0.s:119    .text.vListInsert:0000000000000000 .L0 
GAS LISTING C:\Users\kasie\AppData\Local\Temp\ccL98on0.s 			page 11


C:\Users\kasie\AppData\Local\Temp\ccL98on0.s:120    .text.vListInsert:0000000000000000 .L0 
C:\Users\kasie\AppData\Local\Temp\ccL98on0.s:121    .text.vListInsert:0000000000000000 .L0 
C:\Users\kasie\AppData\Local\Temp\ccL98on0.s:122    .text.vListInsert:0000000000000000 .L0 
C:\Users\kasie\AppData\Local\Temp\ccL98on0.s:125    .text.vListInsert:0000000000000002 .L0 
C:\Users\kasie\AppData\Local\Temp\ccL98on0.s:126    .text.vListInsert:0000000000000002 .L0 
C:\Users\kasie\AppData\Local\Temp\ccL98on0.s:127    .text.vListInsert:0000000000000002 .L0 
C:\Users\kasie\AppData\Local\Temp\ccL98on0.s:128    .text.vListInsert:0000000000000002 .L0 
C:\Users\kasie\AppData\Local\Temp\ccL98on0.s:130    .text.vListInsert:0000000000000004 .L0 
C:\Users\kasie\AppData\Local\Temp\ccL98on0.s:132    .text.vListInsert:0000000000000008 .L0 
C:\Users\kasie\AppData\Local\Temp\ccL98on0.s:134    .text.vListInsert:000000000000000c .L0 
C:\Users\kasie\AppData\Local\Temp\ccL98on0.s:135    .text.vListInsert:000000000000000c .L0 
C:\Users\kasie\AppData\Local\Temp\ccL98on0.s:139    .text.vListInsert:000000000000000e .L0 
C:\Users\kasie\AppData\Local\Temp\ccL98on0.s:140    .text.vListInsert:000000000000000e .L0 
C:\Users\kasie\AppData\Local\Temp\ccL98on0.s:143    .text.vListInsert:0000000000000010 .L0 
C:\Users\kasie\AppData\Local\Temp\ccL98on0.s:145    .text.vListInsert:0000000000000012 .L0 
C:\Users\kasie\AppData\Local\Temp\ccL98on0.s:146    .text.vListInsert:0000000000000012 .L0 
C:\Users\kasie\AppData\Local\Temp\ccL98on0.s:148    .text.vListInsert:0000000000000014 .L0 
C:\Users\kasie\AppData\Local\Temp\ccL98on0.s:149    .text.vListInsert:0000000000000014 .L0 
C:\Users\kasie\AppData\Local\Temp\ccL98on0.s:151    .text.vListInsert:0000000000000016 .L0 
C:\Users\kasie\AppData\Local\Temp\ccL98on0.s:152    .text.vListInsert:0000000000000016 .L0 
C:\Users\kasie\AppData\Local\Temp\ccL98on0.s:154    .text.vListInsert:0000000000000018 .L0 
C:\Users\kasie\AppData\Local\Temp\ccL98on0.s:155    .text.vListInsert:0000000000000018 .L0 
C:\Users\kasie\AppData\Local\Temp\ccL98on0.s:158    .text.vListInsert:000000000000001a .L0 
C:\Users\kasie\AppData\Local\Temp\ccL98on0.s:160    .text.vListInsert:000000000000001c .L0 
C:\Users\kasie\AppData\Local\Temp\ccL98on0.s:161    .text.vListInsert:000000000000001c .L0 
C:\Users\kasie\AppData\Local\Temp\ccL98on0.s:164    .text.vListInsert:0000000000000020 .L0 
C:\Users\kasie\AppData\Local\Temp\ccL98on0.s:171    .text.vListInsert:0000000000000024 .L0 
C:\Users\kasie\AppData\Local\Temp\ccL98on0.s:173    .text.vListInsert:0000000000000026 .L0 
C:\Users\kasie\AppData\Local\Temp\ccL98on0.s:175    .text.vListInsert:0000000000000028 .L0 
C:\Users\kasie\AppData\Local\Temp\ccL98on0.s:177    .text.vListInsert:000000000000002e .L0 
C:\Users\kasie\AppData\Local\Temp\ccL98on0.s:184    .text.uxListRemove:0000000000000000 uxListRemove
C:\Users\kasie\AppData\Local\Temp\ccL98on0.s:187    .text.uxListRemove:0000000000000000 .L0 
C:\Users\kasie\AppData\Local\Temp\ccL98on0.s:189    .text.uxListRemove:0000000000000000 .L0 
C:\Users\kasie\AppData\Local\Temp\ccL98on0.s:190    .text.uxListRemove:0000000000000000 .L0 
C:\Users\kasie\AppData\Local\Temp\ccL98on0.s:191    .text.uxListRemove:0000000000000000 .L0 
C:\Users\kasie\AppData\Local\Temp\ccL98on0.s:193    .text.uxListRemove:0000000000000002 .L0 
C:\Users\kasie\AppData\Local\Temp\ccL98on0.s:195    .text.uxListRemove:0000000000000004 .L0 
C:\Users\kasie\AppData\Local\Temp\ccL98on0.s:198    .text.uxListRemove:0000000000000006 .L0 
C:\Users\kasie\AppData\Local\Temp\ccL98on0.s:199    .text.uxListRemove:0000000000000006 .L0 
C:\Users\kasie\AppData\Local\Temp\ccL98on0.s:201    .text.uxListRemove:0000000000000008 .L0 
C:\Users\kasie\AppData\Local\Temp\ccL98on0.s:202    .text.uxListRemove:0000000000000008 .L0 
C:\Users\kasie\AppData\Local\Temp\ccL98on0.s:204    .text.uxListRemove:000000000000000a .L0 
C:\Users\kasie\AppData\Local\Temp\ccL98on0.s:205    .text.uxListRemove:000000000000000a .L0 
C:\Users\kasie\AppData\Local\Temp\ccL98on0.s:206    .text.uxListRemove:000000000000000a .L0 
C:\Users\kasie\AppData\Local\Temp\ccL98on0.s:209    .text.uxListRemove:0000000000000010 .L0 
C:\Users\kasie\AppData\Local\Temp\ccL98on0.s:210    .text.uxListRemove:0000000000000010 .L0 
C:\Users\kasie\AppData\Local\Temp\ccL98on0.s:213    .text.uxListRemove:0000000000000012 .L0 
C:\Users\kasie\AppData\Local\Temp\ccL98on0.s:214    .text.uxListRemove:0000000000000012 .L0 
C:\Users\kasie\AppData\Local\Temp\ccL98on0.s:215    .text.uxListRemove:0000000000000012 .L0 
C:\Users\kasie\AppData\Local\Temp\ccL98on0.s:217    .text.uxListRemove:0000000000000016 .L0 
C:\Users\kasie\AppData\Local\Temp\ccL98on0.s:218    .text.uxListRemove:0000000000000016 .L0 
C:\Users\kasie\AppData\Local\Temp\ccL98on0.s:223    .text.uxListRemove:000000000000001c .L0 
C:\Users\kasie\AppData\Local\Temp\ccL98on0.s:224    .text.uxListRemove:000000000000001c .L0 
C:\Users\kasie\AppData\Local\Temp\ccL98on0.s:225    .text.uxListRemove:000000000000001e .L0 
C:\Users\kasie\AppData\Local\Temp\ccL98on0.s:45     .text.vListInitialise:0000000000000014 .L0 
C:\Users\kasie\AppData\Local\Temp\ccL98on0.s:64     .text.vListInitialiseItem:0000000000000006 .L0 
C:\Users\kasie\AppData\Local\Temp\ccL98on0.s:110    .text.vListInsertEnd:0000000000000018 .L0 
GAS LISTING C:\Users\kasie\AppData\Local\Temp\ccL98on0.s 			page 12


C:\Users\kasie\AppData\Local\Temp\ccL98on0.s:180    .text.vListInsert:000000000000002e .L0 
C:\Users\kasie\AppData\Local\Temp\ccL98on0.s:228    .text.uxListRemove:000000000000001e .L0 
                     .debug_frame:0000000000000000 .L0 
C:\Users\kasie\AppData\Local\Temp\ccL98on0.s:169    .text.vListInsert:0000000000000024 .L7
C:\Users\kasie\AppData\Local\Temp\ccL98on0.s:166    .text.vListInsert:0000000000000022 .L8
C:\Users\kasie\AppData\Local\Temp\ccL98on0.s:137    .text.vListInsert:000000000000000e .L6
C:\Users\kasie\AppData\Local\Temp\ccL98on0.s:211    .text.uxListRemove:0000000000000012 .L11
C:\Users\kasie\AppData\Local\Temp\ccL98on0.s:1984   .debug_abbrev:0000000000000000 .Ldebug_abbrev0
C:\Users\kasie\AppData\Local\Temp\ccL98on0.s:2886   .debug_str:000000000000051d .LASF149
C:\Users\kasie\AppData\Local\Temp\ccL98on0.s:2704   .debug_str:0000000000000167 .LASF150
C:\Users\kasie\AppData\Local\Temp\ccL98on0.s:2750   .debug_str:0000000000000256 .LASF151
C:\Users\kasie\AppData\Local\Temp\ccL98on0.s:2620   .debug_ranges:0000000000000000 .Ldebug_ranges0
C:\Users\kasie\AppData\Local\Temp\ccL98on0.s:2634   .debug_line:0000000000000000 .Ldebug_line0
C:\Users\kasie\AppData\Local\Temp\ccL98on0.s:2876   .debug_str:00000000000004d9 .LASF0
C:\Users\kasie\AppData\Local\Temp\ccL98on0.s:2890   .debug_str:00000000000005ae .LASF1
C:\Users\kasie\AppData\Local\Temp\ccL98on0.s:2702   .debug_str:0000000000000159 .LASF2
C:\Users\kasie\AppData\Local\Temp\ccL98on0.s:2866   .debug_str:00000000000004b2 .LASF3
C:\Users\kasie\AppData\Local\Temp\ccL98on0.s:2798   .debug_str:000000000000036a .LASF8
C:\Users\kasie\AppData\Local\Temp\ccL98on0.s:2676   .debug_str:00000000000000eb .LASF4
C:\Users\kasie\AppData\Local\Temp\ccL98on0.s:2810   .debug_str:00000000000003a9 .LASF5
C:\Users\kasie\AppData\Local\Temp\ccL98on0.s:2638   .debug_str:000000000000000c .LASF6
C:\Users\kasie\AppData\Local\Temp\ccL98on0.s:2692   .debug_str:0000000000000130 .LASF7
C:\Users\kasie\AppData\Local\Temp\ccL98on0.s:2720   .debug_str:00000000000001c9 .LASF9
C:\Users\kasie\AppData\Local\Temp\ccL98on0.s:2746   .debug_str:000000000000023e .LASF10
C:\Users\kasie\AppData\Local\Temp\ccL98on0.s:2656   .debug_str:0000000000000074 .LASF11
C:\Users\kasie\AppData\Local\Temp\ccL98on0.s:2672   .debug_str:00000000000000dd .LASF12
C:\Users\kasie\AppData\Local\Temp\ccL98on0.s:2864   .debug_str:00000000000004aa .LASF13
C:\Users\kasie\AppData\Local\Temp\ccL98on0.s:2914   .debug_str:0000000000000639 .LASF14
C:\Users\kasie\AppData\Local\Temp\ccL98on0.s:2766   .debug_str:00000000000002d8 .LASF15
C:\Users\kasie\AppData\Local\Temp\ccL98on0.s:2736   .debug_str:0000000000000207 .LASF16
C:\Users\kasie\AppData\Local\Temp\ccL98on0.s:2854   .debug_str:000000000000047e .LASF17
C:\Users\kasie\AppData\Local\Temp\ccL98on0.s:2856   .debug_str:0000000000000486 .LASF18
C:\Users\kasie\AppData\Local\Temp\ccL98on0.s:2826   .debug_str:00000000000003ef .LASF19
C:\Users\kasie\AppData\Local\Temp\ccL98on0.s:2894   .debug_str:00000000000005c6 .LASF20
C:\Users\kasie\AppData\Local\Temp\ccL98on0.s:2808   .debug_str:0000000000000397 .LASF21
C:\Users\kasie\AppData\Local\Temp\ccL98on0.s:2816   .debug_str:00000000000003c6 .LASF22
C:\Users\kasie\AppData\Local\Temp\ccL98on0.s:2728   .debug_str:00000000000001ee .LASF27
C:\Users\kasie\AppData\Local\Temp\ccL98on0.s:2730   .debug_str:00000000000001f6 .LASF23
C:\Users\kasie\AppData\Local\Temp\ccL98on0.s:2848   .debug_str:0000000000000469 .LASF24
C:\Users\kasie\AppData\Local\Temp\ccL98on0.s:2722   .debug_str:00000000000001d4 .LASF25
C:\Users\kasie\AppData\Local\Temp\ccL98on0.s:2910   .debug_str:000000000000062e .LASF26
C:\Users\kasie\AppData\Local\Temp\ccL98on0.s:2734   .debug_str:0000000000000202 .LASF28
C:\Users\kasie\AppData\Local\Temp\ccL98on0.s:2670   .debug_str:00000000000000d4 .LASF29
C:\Users\kasie\AppData\Local\Temp\ccL98on0.s:2930   .debug_str:0000000000000685 .LASF30
C:\Users\kasie\AppData\Local\Temp\ccL98on0.s:2682   .debug_str:0000000000000103 .LASF31
C:\Users\kasie\AppData\Local\Temp\ccL98on0.s:2944   .debug_str:00000000000006c4 .LASF32
C:\Users\kasie\AppData\Local\Temp\ccL98on0.s:2786   .debug_str:000000000000032a .LASF33
C:\Users\kasie\AppData\Local\Temp\ccL98on0.s:2776   .debug_str:00000000000002f6 .LASF34
C:\Users\kasie\AppData\Local\Temp\ccL98on0.s:2860   .debug_str:0000000000000494 .LASF35
C:\Users\kasie\AppData\Local\Temp\ccL98on0.s:2818   .debug_str:00000000000003cf .LASF36
C:\Users\kasie\AppData\Local\Temp\ccL98on0.s:2926   .debug_str:000000000000066b .LASF37
C:\Users\kasie\AppData\Local\Temp\ccL98on0.s:2686   .debug_str:0000000000000112 .LASF38
C:\Users\kasie\AppData\Local\Temp\ccL98on0.s:2640   .debug_str:0000000000000016 .LASF39
C:\Users\kasie\AppData\Local\Temp\ccL98on0.s:2636   .debug_str:0000000000000000 .LASF40
C:\Users\kasie\AppData\Local\Temp\ccL98on0.s:2888   .debug_str:00000000000005a5 .LASF41
C:\Users\kasie\AppData\Local\Temp\ccL98on0.s:2696   .debug_str:0000000000000140 .LASF42
C:\Users\kasie\AppData\Local\Temp\ccL98on0.s:2788   .debug_str:0000000000000333 .LASF43
GAS LISTING C:\Users\kasie\AppData\Local\Temp\ccL98on0.s 			page 13


C:\Users\kasie\AppData\Local\Temp\ccL98on0.s:2752   .debug_str:000000000000029a .LASF44
C:\Users\kasie\AppData\Local\Temp\ccL98on0.s:2718   .debug_str:00000000000001c4 .LASF45
C:\Users\kasie\AppData\Local\Temp\ccL98on0.s:2820   .debug_str:00000000000003d9 .LASF46
C:\Users\kasie\AppData\Local\Temp\ccL98on0.s:2680   .debug_str:00000000000000fd .LASF47
C:\Users\kasie\AppData\Local\Temp\ccL98on0.s:2874   .debug_str:00000000000004d3 .LASF48
C:\Users\kasie\AppData\Local\Temp\ccL98on0.s:2828   .debug_str:00000000000003fa .LASF49
C:\Users\kasie\AppData\Local\Temp\ccL98on0.s:2694   .debug_str:0000000000000139 .LASF50
C:\Users\kasie\AppData\Local\Temp\ccL98on0.s:2748   .debug_str:0000000000000250 .LASF51
C:\Users\kasie\AppData\Local\Temp\ccL98on0.s:2658   .debug_str:000000000000008b .LASF52
C:\Users\kasie\AppData\Local\Temp\ccL98on0.s:2688   .debug_str:0000000000000120 .LASF53
C:\Users\kasie\AppData\Local\Temp\ccL98on0.s:2732   .debug_str:00000000000001fc .LASF54
C:\Users\kasie\AppData\Local\Temp\ccL98on0.s:2774   .debug_str:00000000000002ef .LASF55
C:\Users\kasie\AppData\Local\Temp\ccL98on0.s:2858   .debug_str:000000000000048e .LASF56
C:\Users\kasie\AppData\Local\Temp\ccL98on0.s:2674   .debug_str:00000000000000e4 .LASF57
C:\Users\kasie\AppData\Local\Temp\ccL98on0.s:2678   .debug_str:00000000000000f7 .LASF58
C:\Users\kasie\AppData\Local\Temp\ccL98on0.s:2922   .debug_str:000000000000065d .LASF59
C:\Users\kasie\AppData\Local\Temp\ccL98on0.s:2872   .debug_str:00000000000004ca .LASF60
C:\Users\kasie\AppData\Local\Temp\ccL98on0.s:2708   .debug_str:0000000000000187 .LASF61
C:\Users\kasie\AppData\Local\Temp\ccL98on0.s:2754   .debug_str:000000000000029f .LASF62
C:\Users\kasie\AppData\Local\Temp\ccL98on0.s:2770   .debug_str:00000000000002e3 .LASF63
C:\Users\kasie\AppData\Local\Temp\ccL98on0.s:2830   .debug_str:0000000000000402 .LASF64
C:\Users\kasie\AppData\Local\Temp\ccL98on0.s:2822   .debug_str:00000000000003e0 .LASF65
C:\Users\kasie\AppData\Local\Temp\ccL98on0.s:2850   .debug_str:0000000000000471 .LASF66
C:\Users\kasie\AppData\Local\Temp\ccL98on0.s:2868   .debug_str:00000000000004be .LASF67
C:\Users\kasie\AppData\Local\Temp\ccL98on0.s:2698   .debug_str:0000000000000148 .LASF68
C:\Users\kasie\AppData\Local\Temp\ccL98on0.s:2740   .debug_str:000000000000021e .LASF69
C:\Users\kasie\AppData\Local\Temp\ccL98on0.s:2726   .debug_str:00000000000001e6 .LASF70
C:\Users\kasie\AppData\Local\Temp\ccL98on0.s:2836   .debug_str:000000000000041e .LASF71
C:\Users\kasie\AppData\Local\Temp\ccL98on0.s:2646   .debug_str:0000000000000035 .LASF72
C:\Users\kasie\AppData\Local\Temp\ccL98on0.s:2846   .debug_str:0000000000000450 .LASF73
C:\Users\kasie\AppData\Local\Temp\ccL98on0.s:2842   .debug_str:000000000000043e .LASF74
C:\Users\kasie\AppData\Local\Temp\ccL98on0.s:2792   .debug_str:0000000000000345 .LASF75
C:\Users\kasie\AppData\Local\Temp\ccL98on0.s:2844   .debug_str:0000000000000446 .LASF76
C:\Users\kasie\AppData\Local\Temp\ccL98on0.s:2764   .debug_str:00000000000002d0 .LASF77
C:\Users\kasie\AppData\Local\Temp\ccL98on0.s:2700   .debug_str:000000000000014f .LASF78
C:\Users\kasie\AppData\Local\Temp\ccL98on0.s:2938   .debug_str:00000000000006ac .LASF79
C:\Users\kasie\AppData\Local\Temp\ccL98on0.s:2802   .debug_str:0000000000000379 .LASF80
C:\Users\kasie\AppData\Local\Temp\ccL98on0.s:2742   .debug_str:0000000000000226 .LASF81
C:\Users\kasie\AppData\Local\Temp\ccL98on0.s:2706   .debug_str:000000000000017f .LASF82
C:\Users\kasie\AppData\Local\Temp\ccL98on0.s:2768   .debug_str:00000000000002de .LASF83
C:\Users\kasie\AppData\Local\Temp\ccL98on0.s:2648   .debug_str:0000000000000040 .LASF84
C:\Users\kasie\AppData\Local\Temp\ccL98on0.s:2918   .debug_str:000000000000064c .LASF85
C:\Users\kasie\AppData\Local\Temp\ccL98on0.s:2690   .debug_str:0000000000000128 .LASF86
C:\Users\kasie\AppData\Local\Temp\ccL98on0.s:2684   .debug_str:000000000000010d .LASF87
C:\Users\kasie\AppData\Local\Temp\ccL98on0.s:2870   .debug_str:00000000000004c5 .LASF88
C:\Users\kasie\AppData\Local\Temp\ccL98on0.s:2824   .debug_str:00000000000003e8 .LASF89
C:\Users\kasie\AppData\Local\Temp\ccL98on0.s:2912   .debug_str:0000000000000633 .LASF90
C:\Users\kasie\AppData\Local\Temp\ccL98on0.s:2756   .debug_str:00000000000002a5 .LASF91
C:\Users\kasie\AppData\Local\Temp\ccL98on0.s:2812   .debug_str:00000000000003b7 .LASF92
C:\Users\kasie\AppData\Local\Temp\ccL98on0.s:2644   .debug_str:000000000000002d .LASF93
C:\Users\kasie\AppData\Local\Temp\ccL98on0.s:2852   .debug_str:0000000000000478 .LASF94
C:\Users\kasie\AppData\Local\Temp\ccL98on0.s:2772   .debug_str:00000000000002e9 .LASF95
C:\Users\kasie\AppData\Local\Temp\ccL98on0.s:2892   .debug_str:00000000000005c1 .LASF96
C:\Users\kasie\AppData\Local\Temp\ccL98on0.s:2906   .debug_str:0000000000000611 .LASF97
C:\Users\kasie\AppData\Local\Temp\ccL98on0.s:2884   .debug_str:0000000000000510 .LASF98
C:\Users\kasie\AppData\Local\Temp\ccL98on0.s:2762   .debug_str:00000000000002c3 .LASF99
C:\Users\kasie\AppData\Local\Temp\ccL98on0.s:2928   .debug_str:0000000000000676 .LASF100
GAS LISTING C:\Users\kasie\AppData\Local\Temp\ccL98on0.s 			page 14


C:\Users\kasie\AppData\Local\Temp\ccL98on0.s:2794   .debug_str:0000000000000350 .LASF101
C:\Users\kasie\AppData\Local\Temp\ccL98on0.s:2758   .debug_str:00000000000002ac .LASF102
C:\Users\kasie\AppData\Local\Temp\ccL98on0.s:2932   .debug_str:000000000000068e .LASF103
C:\Users\kasie\AppData\Local\Temp\ccL98on0.s:2834   .debug_str:0000000000000411 .LASF104
C:\Users\kasie\AppData\Local\Temp\ccL98on0.s:2936   .debug_str:000000000000069e .LASF105
C:\Users\kasie\AppData\Local\Temp\ccL98on0.s:2668   .debug_str:00000000000000c6 .LASF106
C:\Users\kasie\AppData\Local\Temp\ccL98on0.s:2916   .debug_str:0000000000000642 .LASF107
C:\Users\kasie\AppData\Local\Temp\ccL98on0.s:2760   .debug_str:00000000000002b7 .LASF108
C:\Users\kasie\AppData\Local\Temp\ccL98on0.s:2896   .debug_str:00000000000005ce .LASF109
C:\Users\kasie\AppData\Local\Temp\ccL98on0.s:2716   .debug_str:00000000000001b6 .LASF110
C:\Users\kasie\AppData\Local\Temp\ccL98on0.s:2898   .debug_str:00000000000005db .LASF111
C:\Users\kasie\AppData\Local\Temp\ccL98on0.s:2714   .debug_str:00000000000001a5 .LASF112
C:\Users\kasie\AppData\Local\Temp\ccL98on0.s:2650   .debug_str:0000000000000049 .LASF113
C:\Users\kasie\AppData\Local\Temp\ccL98on0.s:2652   .debug_str:0000000000000058 .LASF114
C:\Users\kasie\AppData\Local\Temp\ccL98on0.s:2814   .debug_str:00000000000003bd .LASF115
C:\Users\kasie\AppData\Local\Temp\ccL98on0.s:2784   .debug_str:0000000000000323 .LASF116
C:\Users\kasie\AppData\Local\Temp\ccL98on0.s:2778   .debug_str:0000000000000300 .LASF117
C:\Users\kasie\AppData\Local\Temp\ccL98on0.s:2924   .debug_str:0000000000000663 .LASF118
C:\Users\kasie\AppData\Local\Temp\ccL98on0.s:2660   .debug_str:0000000000000094 .LASF152
C:\Users\kasie\AppData\Local\Temp\ccL98on0.s:2724   .debug_str:00000000000001da .LASF119
C:\Users\kasie\AppData\Local\Temp\ccL98on0.s:2900   .debug_str:00000000000005ea .LASF120
C:\Users\kasie\AppData\Local\Temp\ccL98on0.s:2790   .debug_str:000000000000033b .LASF121
C:\Users\kasie\AppData\Local\Temp\ccL98on0.s:2902   .debug_str:00000000000005fd .LASF122
C:\Users\kasie\AppData\Local\Temp\ccL98on0.s:2738   .debug_str:000000000000020e .LASF123
C:\Users\kasie\AppData\Local\Temp\ccL98on0.s:2940   .debug_str:00000000000006b1 .LASF124
C:\Users\kasie\AppData\Local\Temp\ccL98on0.s:2782   .debug_str:0000000000000318 .LASF125
C:\Users\kasie\AppData\Local\Temp\ccL98on0.s:2934   .debug_str:0000000000000693 .LASF126
C:\Users\kasie\AppData\Local\Temp\ccL98on0.s:2904   .debug_str:0000000000000606 .LASF127
C:\Users\kasie\AppData\Local\Temp\ccL98on0.s:2920   .debug_str:0000000000000656 .LASF128
C:\Users\kasie\AppData\Local\Temp\ccL98on0.s:2796   .debug_str:000000000000035f .LASF129
C:\Users\kasie\AppData\Local\Temp\ccL98on0.s:2800   .debug_str:0000000000000371 .LASF130
C:\Users\kasie\AppData\Local\Temp\ccL98on0.s:2806   .debug_str:000000000000038b .LASF131
C:\Users\kasie\AppData\Local\Temp\ccL98on0.s:2878   .debug_str:00000000000004e6 .LASF132
C:\Users\kasie\AppData\Local\Temp\ccL98on0.s:2666   .debug_str:00000000000000b6 .LASF133
C:\Users\kasie\AppData\Local\Temp\ccL98on0.s:2642   .debug_str:000000000000001e .LASF134
C:\Users\kasie\AppData\Local\Temp\ccL98on0.s:2832   .debug_str:000000000000040b .LASF135
C:\Users\kasie\AppData\Local\Temp\ccL98on0.s:2744   .debug_str:000000000000022e .LASF136
C:\Users\kasie\AppData\Local\Temp\ccL98on0.s:2804   .debug_str:0000000000000383 .LASF137
C:\Users\kasie\AppData\Local\Temp\ccL98on0.s:2662   .debug_str:000000000000009f .LASF138
C:\Users\kasie\AppData\Local\Temp\ccL98on0.s:2840   .debug_str:0000000000000437 .LASF139
C:\Users\kasie\AppData\Local\Temp\ccL98on0.s:2880   .debug_str:00000000000004f1 .LASF153
C:\Users\kasie\AppData\Local\Temp\ccL98on0.s:185    .text.uxListRemove:0000000000000000 .LFB6
C:\Users\kasie\AppData\Local\Temp\ccL98on0.s:226    .text.uxListRemove:000000000000001e .LFE6
C:\Users\kasie\AppData\Local\Temp\ccL98on0.s:2780   .debug_str:0000000000000309 .LASF140
C:\Users\kasie\AppData\Local\Temp\ccL98on0.s:2541   .debug_loc:0000000000000000 .LLST3
C:\Users\kasie\AppData\Local\Temp\ccL98on0.s:2942   .debug_str:00000000000006bd .LASF141
C:\Users\kasie\AppData\Local\Temp\ccL98on0.s:2862   .debug_str:000000000000049e .LASF145
C:\Users\kasie\AppData\Local\Temp\ccL98on0.s:115    .text.vListInsert:0000000000000000 .LFB5
C:\Users\kasie\AppData\Local\Temp\ccL98on0.s:178    .text.vListInsert:000000000000002e .LFE5
C:\Users\kasie\AppData\Local\Temp\ccL98on0.s:2664   .debug_str:00000000000000a8 .LASF142
C:\Users\kasie\AppData\Local\Temp\ccL98on0.s:2654   .debug_str:0000000000000069 .LASF143
C:\Users\kasie\AppData\Local\Temp\ccL98on0.s:2555   .debug_loc:0000000000000021 .LLST1
C:\Users\kasie\AppData\Local\Temp\ccL98on0.s:2882   .debug_str:00000000000004fe .LASF144
C:\Users\kasie\AppData\Local\Temp\ccL98on0.s:2571   .debug_loc:000000000000004b .LLST2
C:\Users\kasie\AppData\Local\Temp\ccL98on0.s:2712   .debug_str:0000000000000196 .LASF146
C:\Users\kasie\AppData\Local\Temp\ccL98on0.s:69     .text.vListInsertEnd:0000000000000000 .LFB4
C:\Users\kasie\AppData\Local\Temp\ccL98on0.s:108    .text.vListInsertEnd:0000000000000018 .LFE4
GAS LISTING C:\Users\kasie\AppData\Local\Temp\ccL98on0.s 			page 15


C:\Users\kasie\AppData\Local\Temp\ccL98on0.s:2587   .debug_loc:0000000000000075 .LLST0
C:\Users\kasie\AppData\Local\Temp\ccL98on0.s:2838   .debug_str:0000000000000423 .LASF147
C:\Users\kasie\AppData\Local\Temp\ccL98on0.s:50     .text.vListInitialiseItem:0000000000000000 .LFB3
C:\Users\kasie\AppData\Local\Temp\ccL98on0.s:62     .text.vListInitialiseItem:0000000000000006 .LFE3
C:\Users\kasie\AppData\Local\Temp\ccL98on0.s:2710   .debug_str:000000000000018f .LASF148
C:\Users\kasie\AppData\Local\Temp\ccL98on0.s:2908   .debug_str:000000000000061e .LASF154
C:\Users\kasie\AppData\Local\Temp\ccL98on0.s:14     .text.vListInitialise:0000000000000000 .LFB2
C:\Users\kasie\AppData\Local\Temp\ccL98on0.s:43     .text.vListInitialise:0000000000000014 .LFE2
C:\Users\kasie\AppData\Local\Temp\ccL98on0.s:188    .text.uxListRemove:0000000000000000 .LVL12
C:\Users\kasie\AppData\Local\Temp\ccL98on0.s:219    .text.uxListRemove:0000000000000018 .LVL14
C:\Users\kasie\AppData\Local\Temp\ccL98on0.s:136    .text.vListInsert:000000000000000e .LVL7
C:\Users\kasie\AppData\Local\Temp\ccL98on0.s:156    .text.vListInsert:000000000000001a .LVL9
C:\Users\kasie\AppData\Local\Temp\ccL98on0.s:165    .text.vListInsert:0000000000000022 .LVL10
C:\Users\kasie\AppData\Local\Temp\ccL98on0.s:123    .text.vListInsert:0000000000000002 .LVL6
C:\Users\kasie\AppData\Local\Temp\ccL98on0.s:141    .text.vListInsert:0000000000000010 .LVL8
C:\Users\kasie\AppData\Local\Temp\ccL98on0.s:76     .text.vListInsertEnd:0000000000000002 .LVL3
C:\Users\kasie\AppData\Local\Temp\ccL98on0.s:98     .text.vListInsertEnd:0000000000000010 .LVL4
C:\Users\kasie\AppData\Local\Temp\ccL98on0.s:241    .debug_info:0000000000000000 .Ldebug_info0

NO UNDEFINED SYMBOLS
