GAS LISTING C:\Users\kasie\AppData\Local\Temp\cc6bnB9n.s 			page 1


   1              		.file	"main.c"
   2              		.option nopic
   3              		.attribute arch, "rv32i2p0_m2p0_a2p0_c2p0"
   4              		.attribute unaligned_access, 0
   5              		.attribute stack_align, 16
   6              		.text
   7              	.Ltext0:
   8              		.cfi_sections	.debug_frame
   9              		.section	.text.ledPanel,"ax",@progbits
  10              		.align	1
  11              		.globl	ledPanel
  13              	ledPanel:
  14              	.LFB2:
  15              		.file 1 "main.c"
   1:main.c        **** #include "FreeRTOS.h" /* Must come first. */
   2:main.c        **** #include "task.h"     /* RTOS task related API prototypes. */
   3:main.c        **** 
   4:main.c        **** #include "gd32vf103.h" // Main MCU API header
   5:main.c        **** #include "drivers.h"   // LED Panel & Keyboard driver API
   6:main.c        **** // #include "lcd.h"      // LCD Panel driver API
   7:main.c        **** 
   8:main.c        **** void ledPanel(void *pvParameters)
   9:main.c        **** { // The Led Panel Task:
  16              		.loc 1 9 1
  17              		.cfi_startproc
  18              	.LVL0:
  19 0000 4111     		addi	sp,sp,-16
  20              	.LCFI0:
  21              		.cfi_def_cfa_offset 16
  22 0002 06C6     		sw	ra,12(sp)
  23              		.cfi_offset 1, -4
  24              	.LVL1:
  25              	.L2:
  10:main.c        ****     while (1)
  26              		.loc 1 10 5 discriminator 1
  11:main.c        ****     {                     // Led Panel Super Loop...
  12:main.c        ****         l88row(colset()); // ...show next row...
  27              		.loc 1 12 9 discriminator 1
  28 0004 97000000 		call	colset
  28      E7800000 
  29              	.LVL2:
  30 000c 97000000 		call	l88row
  30      E7800000 
  31              	.LVL3:
  13:main.c        ****         vTaskDelay(1);    // ...wait 2ms and repeat!
  32              		.loc 1 13 9 discriminator 1
  33 0014 0545     		li	a0,1
  34 0016 97000000 		call	vTaskDelay
  34      E7800000 
  35              	.LVL4:
  36 001e DDB7     		j	.L2
  37              		.cfi_endproc
  38              	.LFE2:
  40              		.section	.text.startup.main,"ax",@progbits
  41              		.align	1
  42              		.globl	main
  44              	main:
GAS LISTING C:\Users\kasie\AppData\Local\Temp\cc6bnB9n.s 			page 2


  45              	.LFB3:
  14:main.c        ****     } // (Must not terminate)
  15:main.c        **** }
  16:main.c        **** 
  17:main.c        **** int main(void)
  18:main.c        **** {
  46              		.loc 1 18 1
  47              		.cfi_startproc
  19:main.c        ****     int id[4] = {0, 1, 2, 3};
  48              		.loc 1 19 5
  20:main.c        **** 
  21:main.c        ****     // Perform any driver setup necessary...
  22:main.c        ****     colinit(); // Initialize column toolbox
  49              		.loc 1 22 5
  18:main.c        ****     int id[4] = {0, 1, 2, 3};
  50              		.loc 1 18 1 is_stmt 0
  51 0000 4111     		addi	sp,sp,-16
  52              	.LCFI1:
  53              		.cfi_def_cfa_offset 16
  54 0002 06C6     		sw	ra,12(sp)
  55              		.cfi_offset 1, -4
  56              		.loc 1 22 5
  57 0004 97000000 		call	colinit
  57      E7800000 
  58              	.LVL5:
  23:main.c        ****     l88init(); // Initialize 8*8 led toolbox
  59              		.loc 1 23 5 is_stmt 1
  60 000c 97000000 		call	l88init
  60      E7800000 
  61              	.LVL6:
  24:main.c        **** 
  25:main.c        ****     // Create (initially) needed application tasks...
  26:main.c        ****     xTaskCreate(ledPanel, "LED", 512, (void *)NULL, 2, NULL);
  62              		.loc 1 26 5
  63 0014 B7050000 		lui	a1,%hi(.LC1)
  64 0018 37050000 		lui	a0,%hi(ledPanel)
  65 001c 8147     		li	a5,0
  66 001e 0947     		li	a4,2
  67 0020 8146     		li	a3,0
  68 0022 13060020 		li	a2,512
  69 0026 93850500 		addi	a1,a1,%lo(.LC1)
  70 002a 13050500 		addi	a0,a0,%lo(ledPanel)
  71 002e 97000000 		call	xTaskCreate
  71      E7800000 
  72              	.LVL7:
  27:main.c        **** 
  28:main.c        ****     // Start the Scheduler!
  29:main.c        ****     vTaskStartScheduler();
  73              		.loc 1 29 5
  74 0036 97000000 		call	vTaskStartScheduler
  74      E7800000 
  75              	.LVL8:
  76              	.L5:
  30:main.c        ****     // Should not reach here...
  31:main.c        **** 
  32:main.c        ****     while (1)
  77              		.loc 1 32 5 discriminator 1
GAS LISTING C:\Users\kasie\AppData\Local\Temp\cc6bnB9n.s 			page 3


  33:main.c        ****         ; // ...to be sure!
  78              		.loc 1 33 9 discriminator 1
  79 003e 01A0     		j	.L5
  80              		.cfi_endproc
  81              	.LFE3:
  83              		.section	.rodata.main.str1.4,"aMS",@progbits,1
  84              		.align	2
  85              	.LC1:
  86 0000 4C454400 		.string	"LED"
  87              		.text
  88              	.Letext0:
  89              		.file 2 "c:\\hukas\\code\\repositories\\kth-hi1025-operativsystem\\compiler\\riscv64-unknown-elf\\
  90              		.file 3 "c:\\hukas\\code\\repositories\\kth-hi1025-operativsystem\\compiler\\riscv64-unknown-elf\\
  91              		.file 4 "drivers.h"
  92              		.file 5 "lib/freertos/include/task.h"
  93              		.file 6 "./../../firmware/GD32VF103_standard_peripheral/system_gd32vf103.h"
GAS LISTING C:\Users\kasie\AppData\Local\Temp\cc6bnB9n.s 			page 4


DEFINED SYMBOLS
                            *ABS*:0000000000000000 main.c
C:\Users\kasie\AppData\Local\Temp\cc6bnB9n.s:13     .text.ledPanel:0000000000000000 ledPanel
C:\Users\kasie\AppData\Local\Temp\cc6bnB9n.s:17     .text.ledPanel:0000000000000000 .L0 
C:\Users\kasie\AppData\Local\Temp\cc6bnB9n.s:19     .text.ledPanel:0000000000000000 .L0 
C:\Users\kasie\AppData\Local\Temp\cc6bnB9n.s:21     .text.ledPanel:0000000000000002 .L0 
C:\Users\kasie\AppData\Local\Temp\cc6bnB9n.s:23     .text.ledPanel:0000000000000004 .L0 
C:\Users\kasie\AppData\Local\Temp\cc6bnB9n.s:27     .text.ledPanel:0000000000000004 .L0 
C:\Users\kasie\AppData\Local\Temp\cc6bnB9n.s:28     .text.ledPanel:0000000000000004 .L0 
C:\Users\kasie\AppData\Local\Temp\cc6bnB9n.s:33     .text.ledPanel:0000000000000014 .L0 
C:\Users\kasie\AppData\Local\Temp\cc6bnB9n.s:37     .text.ledPanel:0000000000000020 .L0 
C:\Users\kasie\AppData\Local\Temp\cc6bnB9n.s:44     .text.startup.main:0000000000000000 main
C:\Users\kasie\AppData\Local\Temp\cc6bnB9n.s:47     .text.startup.main:0000000000000000 .L0 
C:\Users\kasie\AppData\Local\Temp\cc6bnB9n.s:48     .text.startup.main:0000000000000000 .L0 
C:\Users\kasie\AppData\Local\Temp\cc6bnB9n.s:49     .text.startup.main:0000000000000000 .L0 
C:\Users\kasie\AppData\Local\Temp\cc6bnB9n.s:50     .text.startup.main:0000000000000000 .L0 
C:\Users\kasie\AppData\Local\Temp\cc6bnB9n.s:51     .text.startup.main:0000000000000000 .L0 
C:\Users\kasie\AppData\Local\Temp\cc6bnB9n.s:53     .text.startup.main:0000000000000002 .L0 
C:\Users\kasie\AppData\Local\Temp\cc6bnB9n.s:55     .text.startup.main:0000000000000004 .L0 
C:\Users\kasie\AppData\Local\Temp\cc6bnB9n.s:57     .text.startup.main:0000000000000004 .L0 
C:\Users\kasie\AppData\Local\Temp\cc6bnB9n.s:60     .text.startup.main:000000000000000c .L0 
C:\Users\kasie\AppData\Local\Temp\cc6bnB9n.s:63     .text.startup.main:0000000000000014 .L0 
C:\Users\kasie\AppData\Local\Temp\cc6bnB9n.s:74     .text.startup.main:0000000000000036 .L0 
C:\Users\kasie\AppData\Local\Temp\cc6bnB9n.s:78     .text.startup.main:000000000000003e .L0 
C:\Users\kasie\AppData\Local\Temp\cc6bnB9n.s:79     .text.startup.main:000000000000003e .L0 
C:\Users\kasie\AppData\Local\Temp\cc6bnB9n.s:80     .text.startup.main:0000000000000040 .L0 
C:\Users\kasie\AppData\Local\Temp\cc6bnB9n.s:40     .text.ledPanel:0000000000000020 .L0 
C:\Users\kasie\AppData\Local\Temp\cc6bnB9n.s:83     .text.startup.main:0000000000000040 .L0 
                     .debug_frame:0000000000000000 .L0 
C:\Users\kasie\AppData\Local\Temp\cc6bnB9n.s:25     .text.ledPanel:0000000000000004 .L2
C:\Users\kasie\AppData\Local\Temp\cc6bnB9n.s:85     .rodata.main.str1.4:0000000000000000 .LC1
C:\Users\kasie\AppData\Local\Temp\cc6bnB9n.s:76     .text.startup.main:000000000000003e .L5
C:\Users\kasie\AppData\Local\Temp\cc6bnB9n.s:346    .debug_abbrev:0000000000000000 .Ldebug_abbrev0
C:\Users\kasie\AppData\Local\Temp\cc6bnB9n.s:717    .debug_str:00000000000000d4 .LASF20
C:\Users\kasie\AppData\Local\Temp\cc6bnB9n.s:687    .debug_str:0000000000000022 .LASF21
C:\Users\kasie\AppData\Local\Temp\cc6bnB9n.s:733    .debug_str:00000000000001ac .LASF22
C:\Users\kasie\AppData\Local\Temp\cc6bnB9n.s:671    .debug_ranges:0000000000000000 .Ldebug_ranges0
C:\Users\kasie\AppData\Local\Temp\cc6bnB9n.s:679    .debug_line:0000000000000000 .Ldebug_line0
C:\Users\kasie\AppData\Local\Temp\cc6bnB9n.s:683    .debug_str:000000000000000e .LASF0
C:\Users\kasie\AppData\Local\Temp\cc6bnB9n.s:719    .debug_str:000000000000015c .LASF1
C:\Users\kasie\AppData\Local\Temp\cc6bnB9n.s:681    .debug_str:0000000000000000 .LASF2
C:\Users\kasie\AppData\Local\Temp\cc6bnB9n.s:729    .debug_str:0000000000000196 .LASF3
C:\Users\kasie\AppData\Local\Temp\cc6bnB9n.s:721    .debug_str:000000000000016f .LASF4
C:\Users\kasie\AppData\Local\Temp\cc6bnB9n.s:697    .debug_str:0000000000000064 .LASF5
C:\Users\kasie\AppData\Local\Temp\cc6bnB9n.s:731    .debug_str:00000000000001a2 .LASF6
C:\Users\kasie\AppData\Local\Temp\cc6bnB9n.s:723    .debug_str:000000000000017b .LASF7
C:\Users\kasie\AppData\Local\Temp\cc6bnB9n.s:691    .debug_str:0000000000000030 .LASF10
C:\Users\kasie\AppData\Local\Temp\cc6bnB9n.s:693    .debug_str:000000000000003b .LASF8
C:\Users\kasie\AppData\Local\Temp\cc6bnB9n.s:695    .debug_str:000000000000004d .LASF9
C:\Users\kasie\AppData\Local\Temp\cc6bnB9n.s:707    .debug_str:0000000000000097 .LASF11
C:\Users\kasie\AppData\Local\Temp\cc6bnB9n.s:709    .debug_str:00000000000000a0 .LASF23
C:\Users\kasie\AppData\Local\Temp\cc6bnB9n.s:705    .debug_str:0000000000000092 .LASF12
C:\Users\kasie\AppData\Local\Temp\cc6bnB9n.s:727    .debug_str:0000000000000191 .LASF24
C:\Users\kasie\AppData\Local\Temp\cc6bnB9n.s:45     .text.startup.main:0000000000000000 .LFB3
C:\Users\kasie\AppData\Local\Temp\cc6bnB9n.s:81     .text.startup.main:0000000000000040 .LFE3
C:\Users\kasie\AppData\Local\Temp\cc6bnB9n.s:616    .debug_loc:0000000000000000 .LLST2
C:\Users\kasie\AppData\Local\Temp\cc6bnB9n.s:58     .text.startup.main:000000000000000c .LVL5
GAS LISTING C:\Users\kasie\AppData\Local\Temp\cc6bnB9n.s 			page 5


C:\Users\kasie\AppData\Local\Temp\cc6bnB9n.s:61     .text.startup.main:0000000000000014 .LVL6
C:\Users\kasie\AppData\Local\Temp\cc6bnB9n.s:72     .text.startup.main:0000000000000036 .LVL7
C:\Users\kasie\AppData\Local\Temp\cc6bnB9n.s:75     .text.startup.main:000000000000003e .LVL8
C:\Users\kasie\AppData\Local\Temp\cc6bnB9n.s:701    .debug_str:000000000000007e .LASF25
C:\Users\kasie\AppData\Local\Temp\cc6bnB9n.s:14     .text.ledPanel:0000000000000000 .LFB2
C:\Users\kasie\AppData\Local\Temp\cc6bnB9n.s:38     .text.ledPanel:0000000000000020 .LFE2
C:\Users\kasie\AppData\Local\Temp\cc6bnB9n.s:629    .debug_loc:0000000000000020 .LLST0
C:\Users\kasie\AppData\Local\Temp\cc6bnB9n.s:725    .debug_str:0000000000000184 .LASF26
C:\Users\kasie\AppData\Local\Temp\cc6bnB9n.s:642    .debug_loc:0000000000000040 .LLST1
C:\Users\kasie\AppData\Local\Temp\cc6bnB9n.s:29     .text.ledPanel:000000000000000c .LVL2
C:\Users\kasie\AppData\Local\Temp\cc6bnB9n.s:31     .text.ledPanel:0000000000000014 .LVL3
C:\Users\kasie\AppData\Local\Temp\cc6bnB9n.s:35     .text.ledPanel:000000000000001e .LVL4
C:\Users\kasie\AppData\Local\Temp\cc6bnB9n.s:713    .debug_str:00000000000000c4 .LASF13
C:\Users\kasie\AppData\Local\Temp\cc6bnB9n.s:715    .debug_str:00000000000000cc .LASF14
C:\Users\kasie\AppData\Local\Temp\cc6bnB9n.s:699    .debug_str:0000000000000072 .LASF15
C:\Users\kasie\AppData\Local\Temp\cc6bnB9n.s:711    .debug_str:00000000000000b0 .LASF16
C:\Users\kasie\AppData\Local\Temp\cc6bnB9n.s:685    .debug_str:000000000000001b .LASF17
C:\Users\kasie\AppData\Local\Temp\cc6bnB9n.s:689    .debug_str:0000000000000029 .LASF18
C:\Users\kasie\AppData\Local\Temp\cc6bnB9n.s:703    .debug_str:0000000000000087 .LASF19
C:\Users\kasie\AppData\Local\Temp\cc6bnB9n.s:52     .text.startup.main:0000000000000002 .LCFI1
C:\Users\kasie\AppData\Local\Temp\cc6bnB9n.s:20     .text.ledPanel:0000000000000002 .LCFI0
C:\Users\kasie\AppData\Local\Temp\cc6bnB9n.s:18     .text.ledPanel:0000000000000000 .LVL0
C:\Users\kasie\AppData\Local\Temp\cc6bnB9n.s:24     .text.ledPanel:0000000000000004 .LVL1
C:\Users\kasie\AppData\Local\Temp\cc6bnB9n.s:95     .debug_info:0000000000000000 .Ldebug_info0

UNDEFINED SYMBOLS
colset
l88row
vTaskDelay
colinit
l88init
xTaskCreate
vTaskStartScheduler
