GAS LISTING C:\Users\kasie\AppData\Local\Temp\ccTFtpEf.s 			page 1


   1              		.file	"port.c"
   2              		.option nopic
   3              		.attribute arch, "rv32i2p0_m2p0_a2p0_c2p0"
   4              		.attribute unaligned_access, 0
   5              		.attribute stack_align, 16
   6              		.text
   7              	.Ltext0:
   8              		.cfi_sections	.debug_frame
   9              		.section	.text.prvTaskExitError,"ax",@progbits
  10              		.align	1
  12              	prvTaskExitError:
  13              	.LFB11:
  14              		.file 1 "lib/freertos/src/port.c"
   1:lib/freertos/src/port.c **** /*
   2:lib/freertos/src/port.c ****     FreeRTOS V9.0.0 - Copyright (C) 2016 Real Time Engineers Ltd.
   3:lib/freertos/src/port.c ****     All rights reserved
   4:lib/freertos/src/port.c **** 
   5:lib/freertos/src/port.c ****     VISIT http://www.FreeRTOS.org TO ENSURE YOU ARE USING THE LATEST VERSION.
   6:lib/freertos/src/port.c **** 
   7:lib/freertos/src/port.c ****     This file is part of the FreeRTOS distribution.
   8:lib/freertos/src/port.c **** 
   9:lib/freertos/src/port.c ****     FreeRTOS is free software; you can redistribute it and/or modify it under
  10:lib/freertos/src/port.c ****     the terms of the GNU General Public License (version 2) as published by the
  11:lib/freertos/src/port.c ****     Free Software Foundation >>>> AND MODIFIED BY <<<< the FreeRTOS exception.
  12:lib/freertos/src/port.c **** 
  13:lib/freertos/src/port.c ****     ***************************************************************************
  14:lib/freertos/src/port.c ****     >>!   NOTE: The modification to the GPL is included to allow you to     !<<
  15:lib/freertos/src/port.c ****     >>!   distribute a combined work that includes FreeRTOS without being   !<<
  16:lib/freertos/src/port.c ****     >>!   obliged to provide the source code for proprietary components     !<<
  17:lib/freertos/src/port.c ****     >>!   outside of the FreeRTOS kernel.                                   !<<
  18:lib/freertos/src/port.c ****     ***************************************************************************
  19:lib/freertos/src/port.c **** 
  20:lib/freertos/src/port.c ****     FreeRTOS is distributed in the hope that it will be useful, but WITHOUT ANY
  21:lib/freertos/src/port.c ****     WARRANTY; without even the implied warranty of MERCHANTABILITY or FITNESS
  22:lib/freertos/src/port.c ****     FOR A PARTICULAR PURPOSE.  Full license text is available on the following
  23:lib/freertos/src/port.c ****     link: http://www.freertos.org/a00114.html
  24:lib/freertos/src/port.c **** 
  25:lib/freertos/src/port.c ****     ***************************************************************************
  26:lib/freertos/src/port.c ****      *                                                                       *
  27:lib/freertos/src/port.c ****      *    FreeRTOS provides completely free yet professionally developed,    *
  28:lib/freertos/src/port.c ****      *    robust, strictly quality controlled, supported, and cross          *
  29:lib/freertos/src/port.c ****      *    platform software that is more than just the market leader, it     *
  30:lib/freertos/src/port.c ****      *    is the industry's de facto standard.                               *
  31:lib/freertos/src/port.c ****      *                                                                       *
  32:lib/freertos/src/port.c ****      *    Help yourself get started quickly while simultaneously helping     *
  33:lib/freertos/src/port.c ****      *    to support the FreeRTOS project by purchasing a FreeRTOS           *
  34:lib/freertos/src/port.c ****      *    tutorial book, reference manual, or both:                          *
  35:lib/freertos/src/port.c ****      *    http://www.FreeRTOS.org/Documentation                              *
  36:lib/freertos/src/port.c ****      *                                                                       *
  37:lib/freertos/src/port.c ****     ***************************************************************************
  38:lib/freertos/src/port.c **** 
  39:lib/freertos/src/port.c ****     http://www.FreeRTOS.org/FAQHelp.html - Having a problem?  Start by reading
  40:lib/freertos/src/port.c ****     the FAQ page "My application does not run, what could be wrong?".  Have you
  41:lib/freertos/src/port.c ****     defined configASSERT()?
  42:lib/freertos/src/port.c **** 
  43:lib/freertos/src/port.c ****     http://www.FreeRTOS.org/support - In return for receiving this top quality
  44:lib/freertos/src/port.c ****     embedded software for free we request you assist our global community by
GAS LISTING C:\Users\kasie\AppData\Local\Temp\ccTFtpEf.s 			page 2


  45:lib/freertos/src/port.c ****     participating in the support forum.
  46:lib/freertos/src/port.c **** 
  47:lib/freertos/src/port.c ****     http://www.FreeRTOS.org/training - Investing in training allows your team to
  48:lib/freertos/src/port.c ****     be as productive as possible as early as possible.  Now you can receive
  49:lib/freertos/src/port.c ****     FreeRTOS training directly from Richard Barry, CEO of Real Time Engineers
  50:lib/freertos/src/port.c ****     Ltd, and the world's leading authority on the world's leading RTOS.
  51:lib/freertos/src/port.c **** 
  52:lib/freertos/src/port.c ****     http://www.FreeRTOS.org/plus - A selection of FreeRTOS ecosystem products,
  53:lib/freertos/src/port.c ****     including FreeRTOS+Trace - an indispensable productivity tool, a DOS
  54:lib/freertos/src/port.c ****     compatible FAT file system, and our tiny thread aware UDP/IP stack.
  55:lib/freertos/src/port.c **** 
  56:lib/freertos/src/port.c ****     http://www.FreeRTOS.org/labs - Where new FreeRTOS products go to incubate.
  57:lib/freertos/src/port.c ****     Come and try FreeRTOS+TCP, our new open source TCP/IP stack for FreeRTOS.
  58:lib/freertos/src/port.c **** 
  59:lib/freertos/src/port.c ****     http://www.OpenRTOS.com - Real Time Engineers ltd. license FreeRTOS to High
  60:lib/freertos/src/port.c ****     Integrity Systems ltd. to sell under the OpenRTOS brand.  Low cost OpenRTOS
  61:lib/freertos/src/port.c ****     licenses offer ticketed support, indemnification and commercial middleware.
  62:lib/freertos/src/port.c **** 
  63:lib/freertos/src/port.c ****     http://www.SafeRTOS.com - High Integrity Systems also provide a safety
  64:lib/freertos/src/port.c ****     engineered and independently SIL3 certified version for use in safety and
  65:lib/freertos/src/port.c ****     mission critical applications that require provable dependability.
  66:lib/freertos/src/port.c **** 
  67:lib/freertos/src/port.c ****     1 tab == 4 spaces!
  68:lib/freertos/src/port.c **** */
  69:lib/freertos/src/port.c **** 
  70:lib/freertos/src/port.c **** /*-----------------------------------------------------------
  71:lib/freertos/src/port.c ****  * Implementation of functions defined in portable.h for the ARM CM3 port.
  72:lib/freertos/src/port.c ****  *----------------------------------------------------------*/
  73:lib/freertos/src/port.c **** 
  74:lib/freertos/src/port.c **** /* Scheduler includes. */
  75:lib/freertos/src/port.c **** #include "FreeRTOS.h"
  76:lib/freertos/src/port.c **** #include "task.h"
  77:lib/freertos/src/port.c **** #include "portmacro.h"
  78:lib/freertos/src/port.c **** 
  79:lib/freertos/src/port.c **** 
  80:lib/freertos/src/port.c **** 
  81:lib/freertos/src/port.c **** #include <stdio.h>
  82:lib/freertos/src/port.c **** 
  83:lib/freertos/src/port.c **** #include "n200_func.h"
  84:lib/freertos/src/port.c **** 
  85:lib/freertos/src/port.c **** #include "riscv_encoding.h"
  86:lib/freertos/src/port.c **** #include "n200_timer.h"
  87:lib/freertos/src/port.c **** #include "n200_eclic.h"
  88:lib/freertos/src/port.c **** 
  89:lib/freertos/src/port.c **** /* Standard Includes */
  90:lib/freertos/src/port.c **** #include <stdlib.h>
  91:lib/freertos/src/port.c **** #include <unistd.h>
  92:lib/freertos/src/port.c **** 
  93:lib/freertos/src/port.c **** #define ECLIC_INT_MSIP          3
  94:lib/freertos/src/port.c **** #define ECLIC_INT_MTIP          7
  95:lib/freertos/src/port.c **** #define ECLIC_INT_MEIP          11
  96:lib/freertos/src/port.c **** 
  97:lib/freertos/src/port.c **** /* Each task maintains its own interrupt status in the critical nesting
  98:lib/freertos/src/port.c **** variable. */
  99:lib/freertos/src/port.c **** UBaseType_t uxCriticalNesting = 0xaaaaaaaa;
 100:lib/freertos/src/port.c **** 
 101:lib/freertos/src/port.c **** #if USER_MODE_TASKS
GAS LISTING C:\Users\kasie\AppData\Local\Temp\ccTFtpEf.s 			page 3


 102:lib/freertos/src/port.c **** 	unsigned long MSTATUS_INIT = (MSTATUS_MPIE);
 103:lib/freertos/src/port.c **** #else
 104:lib/freertos/src/port.c **** 	unsigned long MSTATUS_INIT = (MSTATUS_MPP | MSTATUS_MPIE);
 105:lib/freertos/src/port.c **** #endif
 106:lib/freertos/src/port.c **** 
 107:lib/freertos/src/port.c **** 
 108:lib/freertos/src/port.c **** /*
 109:lib/freertos/src/port.c ****  * Used to catch tasks that attempt to return from their implementing function.
 110:lib/freertos/src/port.c ****  */
 111:lib/freertos/src/port.c **** static void prvTaskExitError( void );
 112:lib/freertos/src/port.c **** 
 113:lib/freertos/src/port.c **** 
 114:lib/freertos/src/port.c **** /*-----------------------------------------------------------*/
 115:lib/freertos/src/port.c **** 
 116:lib/freertos/src/port.c **** /* System Call Trap */
 117:lib/freertos/src/port.c **** //ECALL macro stores argument in a2
 118:lib/freertos/src/port.c **** unsigned long ulSynchTrap(unsigned long mcause, unsigned long sp, unsigned long arg1)	{
 119:lib/freertos/src/port.c **** 	
 120:lib/freertos/src/port.c **** 	switch(mcause&0X00000fff)	{
 121:lib/freertos/src/port.c **** 		//on User and Machine ECALL, handler the request
 122:lib/freertos/src/port.c **** 		case 8:
 123:lib/freertos/src/port.c **** 		case 11:
 124:lib/freertos/src/port.c **** 			if(arg1==IRQ_DISABLE)	{
 125:lib/freertos/src/port.c **** 				//zero out mstatus.mpie
 126:lib/freertos/src/port.c **** 				clear_csr(mstatus,MSTATUS_MPIE);
 127:lib/freertos/src/port.c ****       
 128:lib/freertos/src/port.c **** 			} else if(arg1==IRQ_ENABLE)	{
 129:lib/freertos/src/port.c **** 				//set mstatus.mpie
 130:lib/freertos/src/port.c **** 				set_csr(mstatus,MSTATUS_MPIE);
 131:lib/freertos/src/port.c **** 
 132:lib/freertos/src/port.c **** 			} else if(arg1==PORT_YIELD)		{
 133:lib/freertos/src/port.c **** 				//always yield from machine mode
 134:lib/freertos/src/port.c **** 				//fix up mepc on sync trap
 135:lib/freertos/src/port.c **** 				unsigned long epc = read_csr(mepc);
 136:lib/freertos/src/port.c **** 				vPortYield(sp,epc+4); //never returns
 137:lib/freertos/src/port.c **** 				
 138:lib/freertos/src/port.c **** 			} else if(arg1==PORT_YIELD_TO_RA)	{
 139:lib/freertos/src/port.c **** 			
 140:lib/freertos/src/port.c **** 				vPortYield(sp,(*(unsigned long*)(sp+1*sizeof(sp)))); //never returns
 141:lib/freertos/src/port.c **** 			}
 142:lib/freertos/src/port.c **** 			
 143:lib/freertos/src/port.c **** 			break;
 144:lib/freertos/src/port.c **** 		default:
 145:lib/freertos/src/port.c **** 			write(1, "trap\n", 5);
 146:lib/freertos/src/port.c ****             
 147:lib/freertos/src/port.c ****                 printf("In trap handler, the mcause is %d\n",(mcause&0X00000fff) );
 148:lib/freertos/src/port.c ****                 printf("In trap handler, the mepc is 0x%x\n", read_csr(mepc));
 149:lib/freertos/src/port.c ****                 printf("In trap handler, the mtval is 0x%x\n", read_csr(mbadaddr));
 150:lib/freertos/src/port.c ****               
 151:lib/freertos/src/port.c **** 			_exit(mcause);
 152:lib/freertos/src/port.c **** 	}
 153:lib/freertos/src/port.c **** 
 154:lib/freertos/src/port.c **** 	//fix mepc and return 
 155:lib/freertos/src/port.c **** 	unsigned long epc = read_csr(mepc);
 156:lib/freertos/src/port.c **** 
 157:lib/freertos/src/port.c **** 	write_csr(mepc,epc+4);
 158:lib/freertos/src/port.c **** 	return sp;
GAS LISTING C:\Users\kasie\AppData\Local\Temp\ccTFtpEf.s 			page 4


 159:lib/freertos/src/port.c **** }
 160:lib/freertos/src/port.c **** 
 161:lib/freertos/src/port.c **** 
 162:lib/freertos/src/port.c **** void vPortEnterCritical( void )
 163:lib/freertos/src/port.c **** {
 164:lib/freertos/src/port.c **** 	//printf("vPortEnterCritical\n");
 165:lib/freertos/src/port.c **** 	#if USER_MODE_TASKS
 166:lib/freertos/src/port.c **** 		ECALL(IRQ_DISABLE);
 167:lib/freertos/src/port.c **** 	#else
 168:lib/freertos/src/port.c **** 	//	portDISABLE_INTERRUPTS();
 169:lib/freertos/src/port.c **** 		eclic_set_mth ((configMAX_SYSCALL_INTERRUPT_PRIORITY)<<4);
 170:lib/freertos/src/port.c **** 	#endif
 171:lib/freertos/src/port.c **** 
 172:lib/freertos/src/port.c **** 	uxCriticalNesting++;
 173:lib/freertos/src/port.c **** }
 174:lib/freertos/src/port.c **** /*-----------------------------------------------------------*/
 175:lib/freertos/src/port.c **** 
 176:lib/freertos/src/port.c **** void vPortExitCritical( void )
 177:lib/freertos/src/port.c **** {
 178:lib/freertos/src/port.c **** 	configASSERT( uxCriticalNesting );
 179:lib/freertos/src/port.c **** 	uxCriticalNesting--;
 180:lib/freertos/src/port.c **** 	if( uxCriticalNesting == 0 )
 181:lib/freertos/src/port.c **** 	{
 182:lib/freertos/src/port.c **** 		#if USER_MODE_TASKS
 183:lib/freertos/src/port.c **** 			ECALL(IRQ_ENABLE);
 184:lib/freertos/src/port.c **** 		#else
 185:lib/freertos/src/port.c **** 			eclic_set_mth (0); 
 186:lib/freertos/src/port.c **** 	//	portENABLE_INTERRUPTS()	;
 187:lib/freertos/src/port.c **** 		#endif
 188:lib/freertos/src/port.c **** 	}
 189:lib/freertos/src/port.c **** 	return;
 190:lib/freertos/src/port.c **** }
 191:lib/freertos/src/port.c **** /*-----------------------------------------------------------*/
 192:lib/freertos/src/port.c **** 
 193:lib/freertos/src/port.c **** 
 194:lib/freertos/src/port.c **** /*-----------------------------------------------------------*/
 195:lib/freertos/src/port.c **** 
 196:lib/freertos/src/port.c **** /* Clear current interrupt mask and set given mask */
 197:lib/freertos/src/port.c **** void vPortClearInterruptMask(int int_mask)
 198:lib/freertos/src/port.c **** {
 199:lib/freertos/src/port.c **** 	eclic_set_mth (int_mask); 
 200:lib/freertos/src/port.c **** 
 201:lib/freertos/src/port.c **** 	
 202:lib/freertos/src/port.c **** }
 203:lib/freertos/src/port.c **** /*-----------------------------------------------------------*/
 204:lib/freertos/src/port.c **** 
 205:lib/freertos/src/port.c **** /* Set interrupt mask and return current interrupt enable register */
 206:lib/freertos/src/port.c **** int xPortSetInterruptMask()
 207:lib/freertos/src/port.c **** {
 208:lib/freertos/src/port.c **** 	int int_mask=0;
 209:lib/freertos/src/port.c **** 	int_mask=eclic_get_mth();
 210:lib/freertos/src/port.c **** 	
 211:lib/freertos/src/port.c **** 	eclic_set_mth ((configMAX_SYSCALL_INTERRUPT_PRIORITY)<<4);
 212:lib/freertos/src/port.c **** 	return int_mask;
 213:lib/freertos/src/port.c **** }
 214:lib/freertos/src/port.c **** 
 215:lib/freertos/src/port.c **** /*-----------------------------------------------------------*/
GAS LISTING C:\Users\kasie\AppData\Local\Temp\ccTFtpEf.s 			page 5


 216:lib/freertos/src/port.c **** /*
 217:lib/freertos/src/port.c ****  * See header file for description.
 218:lib/freertos/src/port.c ****  */
 219:lib/freertos/src/port.c **** StackType_t *pxPortInitialiseStack( StackType_t *pxTopOfStack, TaskFunction_t pxCode, void *pvParam
 220:lib/freertos/src/port.c **** {
 221:lib/freertos/src/port.c **** 	/* Simulate the stack frame as it would be created by a context switch
 222:lib/freertos/src/port.c **** 	interrupt. */
 223:lib/freertos/src/port.c **** 
 224:lib/freertos/src/port.c **** 	register int *tp asm("x3");
 225:lib/freertos/src/port.c **** 	pxTopOfStack--;
 226:lib/freertos/src/port.c **** 	*pxTopOfStack = (portSTACK_TYPE)pxCode;			/* Start address */
 227:lib/freertos/src/port.c **** 
 228:lib/freertos/src/port.c **** 	//set the initial mstatus value
 229:lib/freertos/src/port.c **** 	pxTopOfStack--;
 230:lib/freertos/src/port.c **** 	*pxTopOfStack = MSTATUS_INIT;
 231:lib/freertos/src/port.c **** 
 232:lib/freertos/src/port.c **** 	pxTopOfStack -= 22;
 233:lib/freertos/src/port.c **** 	*pxTopOfStack = (portSTACK_TYPE)pvParameters;	/* Register a0 */
 234:lib/freertos/src/port.c **** 	//pxTopOfStack -= 7;
 235:lib/freertos/src/port.c **** 	//*pxTopOfStack = (portSTACK_TYPE)tp; /* Register thread pointer */
 236:lib/freertos/src/port.c **** 	//pxTopOfStack -= 2;
 237:lib/freertos/src/port.c **** 	pxTopOfStack -=9;
 238:lib/freertos/src/port.c **** 	*pxTopOfStack = (portSTACK_TYPE)prvTaskExitError; /* Register ra */
 239:lib/freertos/src/port.c **** 	pxTopOfStack--;
 240:lib/freertos/src/port.c **** 
 241:lib/freertos/src/port.c **** 	return pxTopOfStack;
 242:lib/freertos/src/port.c **** }
 243:lib/freertos/src/port.c **** /*-----------------------------------------------------------*/
 244:lib/freertos/src/port.c **** 
 245:lib/freertos/src/port.c **** 
 246:lib/freertos/src/port.c **** void prvTaskExitError( void )
 247:lib/freertos/src/port.c **** {
  15              		.loc 1 247 1
  16              		.cfi_startproc
 248:lib/freertos/src/port.c **** 	/* A function that implements a task must not exit or attempt to return to
 249:lib/freertos/src/port.c **** 	its caller as there is nothing to return to.  If a task wants to exit it
 250:lib/freertos/src/port.c **** 	should instead call vTaskDelete( NULL ).
 251:lib/freertos/src/port.c **** 	Artificially force an assert() to be triggered if configASSERT() is
 252:lib/freertos/src/port.c **** 	defined, then stop here so application writers can catch the error. */
 253:lib/freertos/src/port.c **** 	configASSERT( uxCriticalNesting == ~0UL );
  17              		.loc 1 253 2
  18 0000 B7070000 		lui	a5,%hi(.LANCHOR0)
  19 0004 03A70700 		lw	a4,%lo(.LANCHOR0)(a5)
  20 0008 FD57     		li	a5,-1
  21 000a 6305F700 		beq	a4,a5,.L2
  22              		.loc 1 253 2 discriminator 3
  23              	.LBB2:
  24              		.loc 1 253 2 discriminator 3
  25              		.loc 1 253 2 discriminator 3
  26              		.loc 1 253 2 discriminator 3
  27              	 #APP
  28              	# 253 "lib/freertos/src/port.c" 1
 254              		portDISABLE_INTERRUPTS();
  29              		csrrc a5, mstatus, 8
  30              	# 0 "" 2
  31              	.LVL0:
 253:lib/freertos/src/port.c **** 	configASSERT( uxCriticalNesting == ~0UL );
GAS LISTING C:\Users\kasie\AppData\Local\Temp\ccTFtpEf.s 			page 6


  32              		.loc 1 253 2 discriminator 3
  33              	 #NO_APP
  34              	.L3:
  35              	.LBE2:
 253:lib/freertos/src/port.c **** 	configASSERT( uxCriticalNesting == ~0UL );
  36              		.loc 1 253 2 discriminator 1
 253:lib/freertos/src/port.c **** 	configASSERT( uxCriticalNesting == ~0UL );
  37              		.loc 1 253 2 discriminator 1
 253:lib/freertos/src/port.c **** 	configASSERT( uxCriticalNesting == ~0UL );
  38              		.loc 1 253 2 discriminator 1
  39 0012 01A0     		j	.L3
  40              	.L2:
 253:lib/freertos/src/port.c **** 	configASSERT( uxCriticalNesting == ~0UL );
  41              		.loc 1 253 43 discriminator 1
  42              		.loc 1 254 2 discriminator 1
  43              	.LBB3:
  44              		.loc 1 254 2 discriminator 1
  45              		.loc 1 254 2 discriminator 1
  46              		.loc 1 254 2 discriminator 1
  47              	 #APP
  48              	# 254 "lib/freertos/src/port.c" 1
 255              	//	printf ("prvTaskExitError\n");
  49              		csrrc a5, mstatus, 8
  50              	# 0 "" 2
  51              	.LVL1:
 254:lib/freertos/src/port.c **** //	printf ("prvTaskExitError\n");
  52              		.loc 1 254 2 discriminator 1
  53              	 #NO_APP
  54              	.L4:
  55              	.LBE3:
 254:lib/freertos/src/port.c **** //	printf ("prvTaskExitError\n");
  56              		.loc 1 254 26 discriminator 2
 256:lib/freertos/src/port.c **** 	for( ;; );
  57              		.loc 1 256 2 discriminator 2
  58              		.loc 1 256 11 discriminator 2
  59 0018 01A0     		j	.L4
  60              		.cfi_endproc
  61              	.LFE11:
  63              		.section	.text.ulSynchTrap,"ax",@progbits
  64              		.align	1
  65              		.globl	ulSynchTrap
  67              	ulSynchTrap:
  68              	.LFB5:
 118:lib/freertos/src/port.c **** 	
  69              		.loc 1 118 87
  70              		.cfi_startproc
  71              	.LVL2:
 120:lib/freertos/src/port.c **** 		//on User and Machine ECALL, handler the request
  72              		.loc 1 120 2
 118:lib/freertos/src/port.c **** 	
  73              		.loc 1 118 87 is_stmt 0
  74 0000 4111     		addi	sp,sp,-16
  75              	.LCFI0:
  76              		.cfi_def_cfa_offset 16
  77 0002 22C4     		sw	s0,8(sp)
  78              		.cfi_offset 8, -8
 120:lib/freertos/src/port.c **** 		//on User and Machine ECALL, handler the request
GAS LISTING C:\Users\kasie\AppData\Local\Temp\ccTFtpEf.s 			page 7


  79              		.loc 1 120 15
  80 0004 13144501 		slli	s0,a0,20
 118:lib/freertos/src/port.c **** 	
  81              		.loc 1 118 87
  82 0008 26C2     		sw	s1,4(sp)
  83 000a 06C6     		sw	ra,12(sp)
  84 000c 4AC0     		sw	s2,0(sp)
  85              		.cfi_offset 9, -12
  86              		.cfi_offset 1, -4
  87              		.cfi_offset 18, -16
 120:lib/freertos/src/port.c **** 		//on User and Machine ECALL, handler the request
  88              		.loc 1 120 15
  89 000e 5180     		srli	s0,s0,20
 120:lib/freertos/src/port.c **** 		//on User and Machine ECALL, handler the request
  90              		.loc 1 120 2
  91 0010 A147     		li	a5,8
 118:lib/freertos/src/port.c **** 	
  92              		.loc 1 118 87
  93 0012 AE84     		mv	s1,a1
 120:lib/freertos/src/port.c **** 		//on User and Machine ECALL, handler the request
  94              		.loc 1 120 2
  95 0014 6305F400 		beq	s0,a5,.L6
  96 0018 AD47     		li	a5,11
  97 001a 6310F406 		bne	s0,a5,.L7
  98              	.L6:
 124:lib/freertos/src/port.c **** 				//zero out mstatus.mpie
  99              		.loc 1 124 4 is_stmt 1
 124:lib/freertos/src/port.c **** 				//zero out mstatus.mpie
 100              		.loc 1 124 6 is_stmt 0
 101 001e D147     		li	a5,20
 102 0020 6312F602 		bne	a2,a5,.L8
 126:lib/freertos/src/port.c ****       
 103              		.loc 1 126 5 is_stmt 1 discriminator 2
 104              	.LBB4:
 126:lib/freertos/src/port.c ****       
 105              		.loc 1 126 5 discriminator 2
 126:lib/freertos/src/port.c ****       
 106              		.loc 1 126 5 discriminator 2
 126:lib/freertos/src/port.c ****       
 107              		.loc 1 126 5 discriminator 2
 108 0024 93070008 		li	a5,128
 109              	 #APP
 110              	# 126 "lib/freertos/src/port.c" 1
 111              		csrrc a5, mstatus, a5
 112              	# 0 "" 2
 113              	.LVL3:
 126:lib/freertos/src/port.c ****       
 114              		.loc 1 126 5 discriminator 2
 115              	 #NO_APP
 116              	.L9:
 117              	.LBE4:
 143:lib/freertos/src/port.c **** 		default:
 118              		.loc 1 143 4
 155:lib/freertos/src/port.c **** 
 119              		.loc 1 155 2
 120              	.LBB5:
 155:lib/freertos/src/port.c **** 
GAS LISTING C:\Users\kasie\AppData\Local\Temp\ccTFtpEf.s 			page 8


 121              		.loc 1 155 22
 155:lib/freertos/src/port.c **** 
 122              		.loc 1 155 22
 123              	 #APP
 124              	# 155 "lib/freertos/src/port.c" 1
 125              		csrr a5, mepc
 126              	# 0 "" 2
 127              	.LVL4:
 155:lib/freertos/src/port.c **** 
 128              		.loc 1 155 22
 129              	 #NO_APP
 130              	.LBE5:
 157:lib/freertos/src/port.c **** 	return sp;
 131              		.loc 1 157 2
 157:lib/freertos/src/port.c **** 	return sp;
 132              		.loc 1 157 2
 133 0030 9107     		addi	a5,a5,4
 134              	.LVL5:
 135              	 #APP
 136              	# 157 "lib/freertos/src/port.c" 1
 158:lib/freertos/src/port.c **** }
 137              		csrw mepc, a5
 138              	# 0 "" 2
 139              		.loc 1 158 2
 159:lib/freertos/src/port.c **** 
 140              		.loc 1 159 1 is_stmt 0
 141              	 #NO_APP
 142 0036 B240     		lw	ra,12(sp)
 143              		.cfi_remember_state
 144              		.cfi_restore 1
 145 0038 2244     		lw	s0,8(sp)
 146              		.cfi_restore 8
 147 003a 2685     		mv	a0,s1
 148 003c 0249     		lw	s2,0(sp)
 149              		.cfi_restore 18
 150 003e 9244     		lw	s1,4(sp)
 151              		.cfi_restore 9
 152              	.LVL6:
 153 0040 4101     		addi	sp,sp,16
 154              	.LCFI1:
 155              		.cfi_def_cfa_offset 0
 156 0042 8280     		jr	ra
 157              	.LVL7:
 158              	.L8:
 159              	.LCFI2:
 160              		.cfi_restore_state
 128:lib/freertos/src/port.c **** 				//set mstatus.mpie
 161              		.loc 1 128 11 is_stmt 1
 128:lib/freertos/src/port.c **** 				//set mstatus.mpie
 162              		.loc 1 128 13 is_stmt 0
 163 0044 F947     		li	a5,30
 164 0046 6317F600 		bne	a2,a5,.L10
 130:lib/freertos/src/port.c **** 
 165              		.loc 1 130 5 is_stmt 1 discriminator 2
 166              	.LBB6:
 130:lib/freertos/src/port.c **** 
 167              		.loc 1 130 5 discriminator 2
GAS LISTING C:\Users\kasie\AppData\Local\Temp\ccTFtpEf.s 			page 9


 130:lib/freertos/src/port.c **** 
 168              		.loc 1 130 5 discriminator 2
 130:lib/freertos/src/port.c **** 
 169              		.loc 1 130 5 discriminator 2
 170 004a 93070008 		li	a5,128
 171              	 #APP
 172              	# 130 "lib/freertos/src/port.c" 1
 173              		csrrs a5, mstatus, a5
 174              	# 0 "" 2
 175              	.LVL8:
 130:lib/freertos/src/port.c **** 
 176              		.loc 1 130 5 discriminator 2
 177              	 #NO_APP
 178              	.LBE6:
 179 0052 E9BF     		j	.L9
 180              	.L10:
 132:lib/freertos/src/port.c **** 				//always yield from machine mode
 181              		.loc 1 132 11
 132:lib/freertos/src/port.c **** 				//always yield from machine mode
 182              		.loc 1 132 13 is_stmt 0
 183 0054 93078002 		li	a5,40
 184 0058 631BF600 		bne	a2,a5,.L11
 185              	.LBB7:
 135:lib/freertos/src/port.c **** 				vPortYield(sp,epc+4); //never returns
 186              		.loc 1 135 5 is_stmt 1
 187              	.LBB8:
 135:lib/freertos/src/port.c **** 				vPortYield(sp,epc+4); //never returns
 188              		.loc 1 135 25
 135:lib/freertos/src/port.c **** 				vPortYield(sp,epc+4); //never returns
 189              		.loc 1 135 25
 190              	 #APP
 191              	# 135 "lib/freertos/src/port.c" 1
 192              		csrr a1, mepc
 193              	# 0 "" 2
 194              	.LVL9:
 135:lib/freertos/src/port.c **** 				vPortYield(sp,epc+4); //never returns
 195              		.loc 1 135 25
 196              	 #NO_APP
 197              	.LBE8:
 136:lib/freertos/src/port.c **** 				
 198              		.loc 1 136 5
 199 0060 9105     		addi	a1,a1,4
 200              	.LVL10:
 201              	.L13:
 202              	.LBE7:
 140:lib/freertos/src/port.c **** 			}
 203              		.loc 1 140 5 is_stmt 0
 204 0062 2685     		mv	a0,s1
 205              	.LVL11:
 206 0064 97000000 		call	vPortYield
 206      E7800000 
 207              	.LVL12:
 208 006c C1B7     		j	.L9
 209              	.LVL13:
 210              	.L11:
 138:lib/freertos/src/port.c **** 			
 211              		.loc 1 138 11 is_stmt 1
GAS LISTING C:\Users\kasie\AppData\Local\Temp\ccTFtpEf.s 			page 10


 138:lib/freertos/src/port.c **** 			
 212              		.loc 1 138 13 is_stmt 0
 213 006e 93072003 		li	a5,50
 214 0072 E31DF6FA 		bne	a2,a5,.L9
 140:lib/freertos/src/port.c **** 			}
 215              		.loc 1 140 5 is_stmt 1
 216 0076 CC40     		lw	a1,4(s1)
 217 0078 EDB7     		j	.L13
 218              	.L7:
 145:lib/freertos/src/port.c ****             
 219              		.loc 1 145 4 is_stmt 0
 220 007a B7050000 		lui	a1,%hi(.LC0)
 221 007e 1546     		li	a2,5
 222              	.LVL14:
 223 0080 2A89     		mv	s2,a0
 145:lib/freertos/src/port.c ****             
 224              		.loc 1 145 4 is_stmt 1
 225 0082 93850500 		addi	a1,a1,%lo(.LC0)
 226 0086 0545     		li	a0,1
 227              	.LVL15:
 228 0088 97000000 		call	write
 228      E7800000 
 229              	.LVL16:
 147:lib/freertos/src/port.c ****                 printf("In trap handler, the mepc is 0x%x\n", read_csr(mepc));
 230              		.loc 1 147 17
 231 0090 37050000 		lui	a0,%hi(.LC1)
 232 0094 A285     		mv	a1,s0
 233 0096 13050500 		addi	a0,a0,%lo(.LC1)
 234 009a 97000000 		call	printf
 234      E7800000 
 235              	.LVL17:
 148:lib/freertos/src/port.c ****                 printf("In trap handler, the mtval is 0x%x\n", read_csr(mbadaddr));
 236              		.loc 1 148 17
 237              	.LBB9:
 148:lib/freertos/src/port.c ****                 printf("In trap handler, the mtval is 0x%x\n", read_csr(mbadaddr));
 238              		.loc 1 148 63
 148:lib/freertos/src/port.c ****                 printf("In trap handler, the mtval is 0x%x\n", read_csr(mbadaddr));
 239              		.loc 1 148 63
 240              	 #APP
 241              	# 148 "lib/freertos/src/port.c" 1
 242              		csrr a1, mepc
 243              	# 0 "" 2
 244              	.LVL18:
 148:lib/freertos/src/port.c ****                 printf("In trap handler, the mtval is 0x%x\n", read_csr(mbadaddr));
 245              		.loc 1 148 63
 246              	 #NO_APP
 247              	.LBE9:
 148:lib/freertos/src/port.c ****                 printf("In trap handler, the mtval is 0x%x\n", read_csr(mbadaddr));
 248              		.loc 1 148 17 is_stmt 0
 249 00a6 37050000 		lui	a0,%hi(.LC2)
 250 00aa 13050500 		addi	a0,a0,%lo(.LC2)
 251 00ae 97000000 		call	printf
 251      E7800000 
 252              	.LVL19:
 149:lib/freertos/src/port.c ****               
 253              		.loc 1 149 17 is_stmt 1
 254              	.LBB10:
GAS LISTING C:\Users\kasie\AppData\Local\Temp\ccTFtpEf.s 			page 11


 149:lib/freertos/src/port.c ****               
 255              		.loc 1 149 64
 149:lib/freertos/src/port.c ****               
 256              		.loc 1 149 64
 257              	 #APP
 258              	# 149 "lib/freertos/src/port.c" 1
 259              		csrr a1, mbadaddr
 260              	# 0 "" 2
 261              	.LVL20:
 149:lib/freertos/src/port.c ****               
 262              		.loc 1 149 64
 263              	 #NO_APP
 264              	.LBE10:
 149:lib/freertos/src/port.c ****               
 265              		.loc 1 149 17 is_stmt 0
 266 00ba 37050000 		lui	a0,%hi(.LC3)
 267 00be 13050500 		addi	a0,a0,%lo(.LC3)
 268 00c2 97000000 		call	printf
 268      E7800000 
 269              	.LVL21:
 151:lib/freertos/src/port.c **** 	}
 270              		.loc 1 151 4 is_stmt 1
 271 00ca 4A85     		mv	a0,s2
 272 00cc 97000000 		call	_exit
 272      E7800000 
 273              	.LVL22:
 274              		.cfi_endproc
 275              	.LFE5:
 277              		.section	.text.vPortEnterCritical,"ax",@progbits
 278              		.align	1
 279              		.globl	vPortEnterCritical
 281              	vPortEnterCritical:
 282              	.LFB6:
 163:lib/freertos/src/port.c **** 	//printf("vPortEnterCritical\n");
 283              		.loc 1 163 1
 284              		.cfi_startproc
 169:lib/freertos/src/port.c **** 	#endif
 285              		.loc 1 169 3
 163:lib/freertos/src/port.c **** 	//printf("vPortEnterCritical\n");
 286              		.loc 1 163 1 is_stmt 0
 287 0000 4111     		addi	sp,sp,-16
 288              	.LCFI3:
 289              		.cfi_def_cfa_offset 16
 169:lib/freertos/src/port.c **** 	#endif
 290              		.loc 1 169 3
 291 0002 0145     		li	a0,0
 163:lib/freertos/src/port.c **** 	//printf("vPortEnterCritical\n");
 292              		.loc 1 163 1
 293 0004 06C6     		sw	ra,12(sp)
 294              		.cfi_offset 1, -4
 169:lib/freertos/src/port.c **** 	#endif
 295              		.loc 1 169 3
 296 0006 97000000 		call	eclic_set_mth
 296      E7800000 
 297              	.LVL23:
 172:lib/freertos/src/port.c **** }
 298              		.loc 1 172 2 is_stmt 1
GAS LISTING C:\Users\kasie\AppData\Local\Temp\ccTFtpEf.s 			page 12


 172:lib/freertos/src/port.c **** }
 299              		.loc 1 172 19 is_stmt 0
 300 000e B7070000 		lui	a5,%hi(.LANCHOR0)
 301 0012 93870700 		addi	a5,a5,%lo(.LANCHOR0)
 302 0016 9843     		lw	a4,0(a5)
 173:lib/freertos/src/port.c **** /*-----------------------------------------------------------*/
 303              		.loc 1 173 1
 304 0018 B240     		lw	ra,12(sp)
 305              		.cfi_restore 1
 172:lib/freertos/src/port.c **** }
 306              		.loc 1 172 19
 307 001a 0507     		addi	a4,a4,1
 308 001c 98C3     		sw	a4,0(a5)
 173:lib/freertos/src/port.c **** /*-----------------------------------------------------------*/
 309              		.loc 1 173 1
 310 001e 4101     		addi	sp,sp,16
 311              	.LCFI4:
 312              		.cfi_def_cfa_offset 0
 313 0020 8280     		jr	ra
 314              		.cfi_endproc
 315              	.LFE6:
 317              		.section	.text.vPortExitCritical,"ax",@progbits
 318              		.align	1
 319              		.globl	vPortExitCritical
 321              	vPortExitCritical:
 322              	.LFB7:
 177:lib/freertos/src/port.c **** 	configASSERT( uxCriticalNesting );
 323              		.loc 1 177 1 is_stmt 1
 324              		.cfi_startproc
 178:lib/freertos/src/port.c **** 	uxCriticalNesting--;
 325              		.loc 1 178 2
 326 0000 37070000 		lui	a4,%hi(.LANCHOR0)
 327 0004 13070700 		addi	a4,a4,%lo(.LANCHOR0)
 328 0008 1C43     		lw	a5,0(a4)
 329 000a 81E7     		bne	a5,zero,.L17
 178:lib/freertos/src/port.c **** 	uxCriticalNesting--;
 330              		.loc 1 178 2 discriminator 3
 331              	.LBB11:
 178:lib/freertos/src/port.c **** 	uxCriticalNesting--;
 332              		.loc 1 178 2 discriminator 3
 178:lib/freertos/src/port.c **** 	uxCriticalNesting--;
 333              		.loc 1 178 2 discriminator 3
 178:lib/freertos/src/port.c **** 	uxCriticalNesting--;
 334              		.loc 1 178 2 discriminator 3
 335              	 #APP
 336              	# 178 "lib/freertos/src/port.c" 1
 337              		csrrc a5, mstatus, 8
 338              	# 0 "" 2
 339              	.LVL24:
 178:lib/freertos/src/port.c **** 	uxCriticalNesting--;
 340              		.loc 1 178 2 discriminator 3
 341              	 #NO_APP
 342              	.L18:
 343              	.LBE11:
 178:lib/freertos/src/port.c **** 	uxCriticalNesting--;
 344              		.loc 1 178 2 discriminator 1
 178:lib/freertos/src/port.c **** 	uxCriticalNesting--;
GAS LISTING C:\Users\kasie\AppData\Local\Temp\ccTFtpEf.s 			page 13


 345              		.loc 1 178 2 discriminator 1
 178:lib/freertos/src/port.c **** 	uxCriticalNesting--;
 346              		.loc 1 178 2 discriminator 1
 347 0010 01A0     		j	.L18
 348              	.L17:
 178:lib/freertos/src/port.c **** 	uxCriticalNesting--;
 349              		.loc 1 178 35 discriminator 2
 179:lib/freertos/src/port.c **** 	if( uxCriticalNesting == 0 )
 350              		.loc 1 179 2 discriminator 2
 179:lib/freertos/src/port.c **** 	if( uxCriticalNesting == 0 )
 351              		.loc 1 179 19 is_stmt 0 discriminator 2
 352 0012 FD17     		addi	a5,a5,-1
 353 0014 1CC3     		sw	a5,0(a4)
 180:lib/freertos/src/port.c **** 	{
 354              		.loc 1 180 2 is_stmt 1 discriminator 2
 180:lib/freertos/src/port.c **** 	{
 355              		.loc 1 180 4 is_stmt 0 discriminator 2
 356 0016 91E7     		bne	a5,zero,.L16
 185:lib/freertos/src/port.c **** 	//	portENABLE_INTERRUPTS()	;
 357              		.loc 1 185 4 is_stmt 1
 358 0018 0145     		li	a0,0
 359 001a 17030000 		tail	eclic_set_mth
 359      67000300 
 360              	.LVL25:
 361              	.L16:
 190:lib/freertos/src/port.c **** /*-----------------------------------------------------------*/
 362              		.loc 1 190 1 is_stmt 0
 363 0022 8280     		ret
 364              		.cfi_endproc
 365              	.LFE7:
 367              		.section	.text.vPortClearInterruptMask,"ax",@progbits
 368              		.align	1
 369              		.globl	vPortClearInterruptMask
 371              	vPortClearInterruptMask:
 372              	.LFB8:
 198:lib/freertos/src/port.c **** 	eclic_set_mth (int_mask); 
 373              		.loc 1 198 1 is_stmt 1
 374              		.cfi_startproc
 375              	.LVL26:
 199:lib/freertos/src/port.c **** 
 376              		.loc 1 199 2
 377 0000 1375F50F 		andi	a0,a0,0xff
 378              	.LVL27:
 379 0004 17030000 		tail	eclic_set_mth
 379      67000300 
 380              	.LVL28:
 381              		.cfi_endproc
 382              	.LFE8:
 384              		.section	.text.xPortSetInterruptMask,"ax",@progbits
 385              		.align	1
 386              		.globl	xPortSetInterruptMask
 388              	xPortSetInterruptMask:
 389              	.LFB9:
 207:lib/freertos/src/port.c **** 	int int_mask=0;
 390              		.loc 1 207 1
 391              		.cfi_startproc
 208:lib/freertos/src/port.c **** 	int_mask=eclic_get_mth();
GAS LISTING C:\Users\kasie\AppData\Local\Temp\ccTFtpEf.s 			page 14


 392              		.loc 1 208 2
 393              	.LVL29:
 209:lib/freertos/src/port.c **** 	
 394              		.loc 1 209 2
 207:lib/freertos/src/port.c **** 	int int_mask=0;
 395              		.loc 1 207 1 is_stmt 0
 396 0000 4111     		addi	sp,sp,-16
 397              	.LCFI5:
 398              		.cfi_def_cfa_offset 16
 399 0002 06C6     		sw	ra,12(sp)
 400 0004 22C4     		sw	s0,8(sp)
 401              		.cfi_offset 1, -4
 402              		.cfi_offset 8, -8
 209:lib/freertos/src/port.c **** 	
 403              		.loc 1 209 11
 404 0006 97000000 		call	eclic_get_mth
 404      E7800000 
 405              	.LVL30:
 406 000e 2A84     		mv	s0,a0
 407              	.LVL31:
 211:lib/freertos/src/port.c **** 	return int_mask;
 408              		.loc 1 211 2 is_stmt 1
 409 0010 0145     		li	a0,0
 410 0012 97000000 		call	eclic_set_mth
 410      E7800000 
 411              	.LVL32:
 212:lib/freertos/src/port.c **** }
 412              		.loc 1 212 2
 213:lib/freertos/src/port.c **** 
 413              		.loc 1 213 1 is_stmt 0
 414 001a 2285     		mv	a0,s0
 415 001c B240     		lw	ra,12(sp)
 416              		.cfi_restore 1
 417 001e 2244     		lw	s0,8(sp)
 418              		.cfi_restore 8
 419              	.LVL33:
 420 0020 4101     		addi	sp,sp,16
 421              	.LCFI6:
 422              		.cfi_def_cfa_offset 0
 423 0022 8280     		jr	ra
 424              		.cfi_endproc
 425              	.LFE9:
 427              		.section	.text.pxPortInitialiseStack,"ax",@progbits
 428              		.align	1
 429              		.globl	pxPortInitialiseStack
 431              	pxPortInitialiseStack:
 432              	.LFB10:
 220:lib/freertos/src/port.c **** 	/* Simulate the stack frame as it would be created by a context switch
 433              		.loc 1 220 1 is_stmt 1
 434              		.cfi_startproc
 435              	.LVL34:
 224:lib/freertos/src/port.c **** 	pxTopOfStack--;
 436              		.loc 1 224 2
 225:lib/freertos/src/port.c **** 	*pxTopOfStack = (portSTACK_TYPE)pxCode;			/* Start address */
 437              		.loc 1 225 2
 226:lib/freertos/src/port.c **** 
 438              		.loc 1 226 2
GAS LISTING C:\Users\kasie\AppData\Local\Temp\ccTFtpEf.s 			page 15


 226:lib/freertos/src/port.c **** 
 439              		.loc 1 226 16 is_stmt 0
 440 0000 232EB5FE 		sw	a1,-4(a0)
 229:lib/freertos/src/port.c **** 	*pxTopOfStack = MSTATUS_INIT;
 441              		.loc 1 229 2 is_stmt 1
 442              	.LVL35:
 230:lib/freertos/src/port.c **** 
 443              		.loc 1 230 2
 230:lib/freertos/src/port.c **** 
 444              		.loc 1 230 16 is_stmt 0
 445 0004 B7070000 		lui	a5,%hi(.LANCHOR1)
 446 0008 83A70700 		lw	a5,%lo(.LANCHOR1)(a5)
 242:lib/freertos/src/port.c **** /*-----------------------------------------------------------*/
 447              		.loc 1 242 1
 448 000c 130585F7 		addi	a0,a0,-136
 449              	.LVL36:
 233:lib/freertos/src/port.c **** 	//pxTopOfStack -= 7;
 450              		.loc 1 233 16
 451 0010 10D5     		sw	a2,40(a0)
 230:lib/freertos/src/port.c **** 
 452              		.loc 1 230 16
 453 0012 2320F508 		sw	a5,128(a0)
 232:lib/freertos/src/port.c **** 	*pxTopOfStack = (portSTACK_TYPE)pvParameters;	/* Register a0 */
 454              		.loc 1 232 2 is_stmt 1
 455              	.LVL37:
 233:lib/freertos/src/port.c **** 	//pxTopOfStack -= 7;
 456              		.loc 1 233 2
 237:lib/freertos/src/port.c **** 	*pxTopOfStack = (portSTACK_TYPE)prvTaskExitError; /* Register ra */
 457              		.loc 1 237 2
 238:lib/freertos/src/port.c **** 	pxTopOfStack--;
 458              		.loc 1 238 2
 238:lib/freertos/src/port.c **** 	pxTopOfStack--;
 459              		.loc 1 238 16 is_stmt 0
 460 0016 B7070000 		lui	a5,%hi(prvTaskExitError)
 461 001a 93870700 		addi	a5,a5,%lo(prvTaskExitError)
 462 001e 5CC1     		sw	a5,4(a0)
 239:lib/freertos/src/port.c **** 
 463              		.loc 1 239 2 is_stmt 1
 241:lib/freertos/src/port.c **** }
 464              		.loc 1 241 2
 242:lib/freertos/src/port.c **** /*-----------------------------------------------------------*/
 465              		.loc 1 242 1 is_stmt 0
 466 0020 8280     		ret
 467              		.cfi_endproc
 468              	.LFE10:
 470              		.section	.text.vPortSysTickHandler,"ax",@progbits
 471              		.align	1
 472              		.globl	vPortSysTickHandler
 474              	vPortSysTickHandler:
 475              	.LFB12:
 257:lib/freertos/src/port.c **** }
 258:lib/freertos/src/port.c **** /*-----------------------------------------------------------*/
 259:lib/freertos/src/port.c **** 
 260:lib/freertos/src/port.c **** 
 261:lib/freertos/src/port.c **** 
 262:lib/freertos/src/port.c **** /*Entry Point for Machine Timer Interrupt Handler*/
 263:lib/freertos/src/port.c **** //Bob: add the function argument int_num
GAS LISTING C:\Users\kasie\AppData\Local\Temp\ccTFtpEf.s 			page 16


 264:lib/freertos/src/port.c **** 
 265:lib/freertos/src/port.c **** uint32_t vPortSysTickHandler(){
 476              		.loc 1 265 31 is_stmt 1
 477              		.cfi_startproc
 266:lib/freertos/src/port.c **** 	static uint64_t then = 0;
 478              		.loc 1 266 2
 267:lib/freertos/src/port.c **** 	
 268:lib/freertos/src/port.c ****   //eclic_disable_interrupt(CLIC_INT_TMR);
 269:lib/freertos/src/port.c **** 	
 270:lib/freertos/src/port.c **** 
 271:lib/freertos/src/port.c ****     volatile uint64_t * mtime       = (uint64_t*) (TIMER_CTRL_ADDR + TIMER_MTIME);
 479              		.loc 1 271 5
 480              	.LVL38:
 272:lib/freertos/src/port.c ****     volatile uint64_t * mtimecmp    = (uint64_t*) (TIMER_CTRL_ADDR + TIMER_MTIMECMP);
 481              		.loc 1 272 5
 273:lib/freertos/src/port.c **** 	
 274:lib/freertos/src/port.c **** 	if(then != 0)  {
 482              		.loc 1 274 2
 483              		.loc 1 274 10 is_stmt 0
 484 0000 B7060000 		lui	a3,%hi(.LANCHOR2)
 485 0004 93870600 		addi	a5,a3,%lo(.LANCHOR2)
 486 0008 9843     		lw	a4,0(a5)
 487 000a C843     		lw	a0,4(a5)
 488 000c B7070000 		lui	a5,%hi(SystemCoreClock)
 489 0010 83A70700 		lw	a5,%lo(SystemCoreClock)(a5)
 490 0014 1306007D 		li	a2,2000
 265:lib/freertos/src/port.c **** 	static uint64_t then = 0;
 491              		.loc 1 265 31
 492 0018 4111     		addi	sp,sp,-16
 493              	.LCFI7:
 494              		.cfi_def_cfa_offset 16
 495 001a B3D7C702 		divu	a5,a5,a2
 496 001e 06C6     		sw	ra,12(sp)
 497              		.cfi_offset 1, -4
 498              		.loc 1 274 4
 499 0020 3366A700 		or	a2,a4,a0
 500 0024 93850600 		addi	a1,a3,%lo(.LANCHOR2)
 501 0028 0DCA     		beq	a2,zero,.L25
 275:lib/freertos/src/port.c **** 		//next timer irq is 1 second from previous
 276:lib/freertos/src/port.c **** 		then += (configRTC_CLOCK_HZ / configTICK_RATE_HZ);
 502              		.loc 1 276 3 is_stmt 1
 503              		.loc 1 276 8 is_stmt 0
 504 002a BA97     		add	a5,a4,a5
 505 002c 33B7E700 		sltu	a4,a5,a4
 506 0030 3E86     		mv	a2,a5
 507 0032 B306A700 		add	a3,a4,a0
 508              	.L27:
 509 0036 90C1     		sw	a2,0(a1)
 510 0038 D4C1     		sw	a3,4(a1)
 277:lib/freertos/src/port.c **** 	} else{ //first time setting the timer
 278:lib/freertos/src/port.c **** 		uint64_t now = *mtime;
 279:lib/freertos/src/port.c **** 		then = now + (configRTC_CLOCK_HZ / configTICK_RATE_HZ);
 280:lib/freertos/src/port.c **** 	}
 281:lib/freertos/src/port.c **** 	*mtimecmp = then;
 511              		.loc 1 281 2 is_stmt 1
 512              		.loc 1 281 12 is_stmt 0
 513 003a B70700D1 		li	a5,-788529152
GAS LISTING C:\Users\kasie\AppData\Local\Temp\ccTFtpEf.s 			page 17


 514 003e 90C7     		sw	a2,8(a5)
 515 0040 D4C7     		sw	a3,12(a5)
 282:lib/freertos/src/port.c **** 
 283:lib/freertos/src/port.c **** 	/* Increment the RTOS tick. */
 284:lib/freertos/src/port.c **** 	if( xTaskIncrementTick() != pdFALSE )
 516              		.loc 1 284 2 is_stmt 1
 517              		.loc 1 284 6 is_stmt 0
 518 0042 97000000 		call	xTaskIncrementTick
 518      E7800000 
 519              	.LVL39:
 520              		.loc 1 284 4
 521 004a 09C5     		beq	a0,zero,.L28
 285:lib/freertos/src/port.c **** 	{
 286:lib/freertos/src/port.c **** 		portYIELD();
 522              		.loc 1 286 3 is_stmt 1
 523              	.LBB12:
 524              		.loc 1 286 3
 525 004c 13068002 		li	a2,40
 526              		.loc 1 286 3
 527              	 #APP
 528              	# 286 "lib/freertos/src/port.c" 1
 287              			//vTaskSwitchContext();
 286:lib/freertos/src/port.c **** 		portYIELD();
 529              		ecall
 530              	# 0 "" 2
 531              		.loc 1 286 3
 532              	 #NO_APP
 533              	.L28:
 534              	.LBE12:
 286:lib/freertos/src/port.c **** 		portYIELD();
 535              		.loc 1 286 14 discriminator 1
 288:lib/freertos/src/port.c **** 	}
 289:lib/freertos/src/port.c **** 	
 290:lib/freertos/src/port.c **** }
 536              		.loc 1 290 1 is_stmt 0 discriminator 1
 537 0054 B240     		lw	ra,12(sp)
 538              		.cfi_remember_state
 539              		.cfi_restore 1
 540 0056 4101     		addi	sp,sp,16
 541              	.LCFI8:
 542              		.cfi_def_cfa_offset 0
 543 0058 8280     		jr	ra
 544              	.L25:
 545              	.LCFI9:
 546              		.cfi_restore_state
 547              	.LBB13:
 278:lib/freertos/src/port.c **** 		then = now + (configRTC_CLOCK_HZ / configTICK_RATE_HZ);
 548              		.loc 1 278 3 is_stmt 1
 278:lib/freertos/src/port.c **** 		then = now + (configRTC_CLOCK_HZ / configTICK_RATE_HZ);
 549              		.loc 1 278 12 is_stmt 0
 550 005a 370700D1 		li	a4,-788529152
 551 005e 03280700 		lw	a6,0(a4)
 552 0062 83284700 		lw	a7,4(a4)
 553              	.LVL40:
 279:lib/freertos/src/port.c **** 	}
 554              		.loc 1 279 3 is_stmt 1
 279:lib/freertos/src/port.c **** 	}
GAS LISTING C:\Users\kasie\AppData\Local\Temp\ccTFtpEf.s 			page 18


 555              		.loc 1 279 14 is_stmt 0
 556 0066 C297     		add	a5,a6,a5
 557 0068 33B70701 		sltu	a4,a5,a6
 558 006c 3E86     		mv	a2,a5
 559 006e B3061701 		add	a3,a4,a7
 560 0072 D1B7     		j	.L27
 561              	.LBE13:
 562              		.cfi_endproc
 563              	.LFE12:
 565              		.section	.text.vPortSetupTimer,"ax",@progbits
 566              		.align	1
 567              		.globl	vPortSetupTimer
 569              	vPortSetupTimer:
 570              	.LFB13:
 291:lib/freertos/src/port.c **** /*-----------------------------------------------------------*/
 292:lib/freertos/src/port.c **** 
 293:lib/freertos/src/port.c **** 
 294:lib/freertos/src/port.c **** void vPortSetupTimer()	{
 571              		.loc 1 294 24 is_stmt 1
 572              		.cfi_startproc
 295:lib/freertos/src/port.c ****     uint8_t mtime_intattr;
 573              		.loc 1 295 5
 296:lib/freertos/src/port.c ****     // Set the machine timer
 297:lib/freertos/src/port.c ****     //Bob: update it to TMR
 298:lib/freertos/src/port.c ****     //volatile uint64_t * mtime       = (uint64_t*) (CLINT_CTRL_ADDR + CLINT_MTIME);
 299:lib/freertos/src/port.c ****     //volatile uint64_t * mtimecmp    = (uint64_t*) (CLINT_CTRL_ADDR + CLINT_MTIMECMP);
 300:lib/freertos/src/port.c ****     volatile uint64_t * mtime       = (uint64_t*) (TIMER_CTRL_ADDR + TIMER_MTIME);
 574              		.loc 1 300 5
 575              	.LVL41:
 301:lib/freertos/src/port.c ****     volatile uint64_t * mtimecmp    = (uint64_t*) (TIMER_CTRL_ADDR + TIMER_MTIMECMP);
 576              		.loc 1 301 5
 302:lib/freertos/src/port.c ****     uint64_t now = *mtime;
 577              		.loc 1 302 5
 303:lib/freertos/src/port.c ****     uint64_t then = now + (configRTC_CLOCK_HZ / configTICK_RATE_HZ);
 578              		.loc 1 303 28 is_stmt 0
 579 0000 B7070000 		lui	a5,%hi(SystemCoreClock)
 580              		.loc 1 303 47
 581 0004 83A70700 		lw	a5,%lo(SystemCoreClock)(a5)
 582 0008 9306007D 		li	a3,2000
 302:lib/freertos/src/port.c ****     uint64_t now = *mtime;
 583              		.loc 1 302 14
 584 000c 370700D1 		li	a4,-788529152
 585              		.loc 1 303 47
 586 0010 B3D7D702 		divu	a5,a5,a3
 302:lib/freertos/src/port.c ****     uint64_t now = *mtime;
 587              		.loc 1 302 14
 588 0014 03280700 		lw	a6,0(a4)
 589 0018 83284700 		lw	a7,4(a4)
 590              	.LVL42:
 591              		.loc 1 303 5 is_stmt 1
 294:lib/freertos/src/port.c ****     uint8_t mtime_intattr;
 592              		.loc 1 294 24 is_stmt 0
 593 001c 4111     		addi	sp,sp,-16
 594              	.LCFI10:
 595              		.cfi_def_cfa_offset 16
 596 001e 06C6     		sw	ra,12(sp)
 597              		.cfi_offset 1, -4
GAS LISTING C:\Users\kasie\AppData\Local\Temp\ccTFtpEf.s 			page 19


 598              		.loc 1 303 14
 599 0020 33850701 		add	a0,a5,a6
 600 0024 B337F500 		sltu	a5,a0,a5
 304:lib/freertos/src/port.c ****     *mtimecmp = then;
 601              		.loc 1 304 15
 602 0028 08C7     		sw	a0,8(a4)
 303:lib/freertos/src/port.c ****     uint64_t then = now + (configRTC_CLOCK_HZ / configTICK_RATE_HZ);
 603              		.loc 1 303 14
 604 002a B3861701 		add	a3,a5,a7
 605              		.loc 1 304 5 is_stmt 1
 606              		.loc 1 304 15 is_stmt 0
 607 002e 54C7     		sw	a3,12(a4)
 305:lib/freertos/src/port.c **** 
 306:lib/freertos/src/port.c ****     mtime_intattr=eclic_get_intattr (ECLIC_INT_MTIP);
 608              		.loc 1 306 5 is_stmt 1
 609              		.loc 1 306 19 is_stmt 0
 610 0030 1D45     		li	a0,7
 611 0032 97000000 		call	eclic_get_intattr
 611      E7800000 
 612              	.LVL43:
 307:lib/freertos/src/port.c ****     mtime_intattr|=ECLIC_INT_ATTR_SHV;
 613              		.loc 1 307 5 is_stmt 1
 308:lib/freertos/src/port.c ****     eclic_set_intattr(ECLIC_INT_MTIP,mtime_intattr);
 614              		.loc 1 308 5
 307:lib/freertos/src/port.c ****     mtime_intattr|=ECLIC_INT_ATTR_SHV;
 615              		.loc 1 307 18 is_stmt 0
 616 003a 93651500 		ori	a1,a0,1
 617              		.loc 1 308 5
 618 003e 93F5F50F 		andi	a1,a1,0xff
 619 0042 1D45     		li	a0,7
 620              	.LVL44:
 621 0044 97000000 		call	eclic_set_intattr
 621      E7800000 
 622              	.LVL45:
 309:lib/freertos/src/port.c ****     eclic_enable_interrupt (ECLIC_INT_MTIP);
 623              		.loc 1 309 5 is_stmt 1
 624 004c 1D45     		li	a0,7
 625 004e 97000000 		call	eclic_enable_interrupt
 625      E7800000 
 626              	.LVL46:
 310:lib/freertos/src/port.c **** 		
 311:lib/freertos/src/port.c ****     //eclic_set_nlbits(4);
 312:lib/freertos/src/port.c ****     eclic_set_irq_lvl_abs(ECLIC_INT_MTIP,1);
 627              		.loc 1 312 5
 313:lib/freertos/src/port.c ****     //set_csr(mstatus, MSTATUS_MIE);
 314:lib/freertos/src/port.c **** }
 628              		.loc 1 314 1 is_stmt 0
 629 0056 B240     		lw	ra,12(sp)
 630              		.cfi_restore 1
 312:lib/freertos/src/port.c ****     //set_csr(mstatus, MSTATUS_MIE);
 631              		.loc 1 312 5
 632 0058 8545     		li	a1,1
 633              		.loc 1 314 1
 312:lib/freertos/src/port.c ****     //set_csr(mstatus, MSTATUS_MIE);
 634              		.loc 1 312 5
 635 005a 1D45     		li	a0,7
 636              		.loc 1 314 1
GAS LISTING C:\Users\kasie\AppData\Local\Temp\ccTFtpEf.s 			page 20


 637 005c 4101     		addi	sp,sp,16
 638              	.LCFI11:
 639              		.cfi_def_cfa_offset 0
 312:lib/freertos/src/port.c ****     //set_csr(mstatus, MSTATUS_MIE);
 640              		.loc 1 312 5
 641 005e 17030000 		tail	eclic_set_irq_lvl_abs
 641      67000300 
 642              	.LVL47:
 643              		.cfi_endproc
 644              	.LFE13:
 646              		.section	.text.vPortSetup,"ax",@progbits
 647              		.align	1
 648              		.globl	vPortSetup
 650              	vPortSetup:
 651              	.LFB14:
 315:lib/freertos/src/port.c **** /*-----------------------------------------------------------*/
 316:lib/freertos/src/port.c **** 
 317:lib/freertos/src/port.c **** 
 318:lib/freertos/src/port.c **** void vPortSetup()	{
 652              		.loc 1 318 19 is_stmt 1
 653              		.cfi_startproc
 319:lib/freertos/src/port.c **** 
 320:lib/freertos/src/port.c **** 	vPortSetupTimer();
 654              		.loc 1 320 2
 318:lib/freertos/src/port.c **** 
 655              		.loc 1 318 19 is_stmt 0
 656 0000 4111     		addi	sp,sp,-16
 657              	.LCFI12:
 658              		.cfi_def_cfa_offset 16
 659 0002 06C6     		sw	ra,12(sp)
 660              		.cfi_offset 1, -4
 661              		.loc 1 320 2
 662 0004 97000000 		call	vPortSetupTimer
 662      E7800000 
 663              	.LVL48:
 321:lib/freertos/src/port.c **** 	uxCriticalNesting = 0;
 664              		.loc 1 321 2 is_stmt 1
 322:lib/freertos/src/port.c **** }
 665              		.loc 1 322 1 is_stmt 0
 666 000c B240     		lw	ra,12(sp)
 667              		.cfi_restore 1
 321:lib/freertos/src/port.c **** 	uxCriticalNesting = 0;
 668              		.loc 1 321 20
 669 000e B7070000 		lui	a5,%hi(.LANCHOR0)
 670 0012 23A00700 		sw	zero,%lo(.LANCHOR0)(a5)
 671              		.loc 1 322 1
 672 0016 4101     		addi	sp,sp,16
 673              	.LCFI13:
 674              		.cfi_def_cfa_offset 0
 675 0018 8280     		jr	ra
 676              		.cfi_endproc
 677              	.LFE14:
 679              		.globl	MSTATUS_INIT
 680              		.globl	uxCriticalNesting
 681              		.section	.rodata.ulSynchTrap.str1.4,"aMS",@progbits,1
 682              		.align	2
 683              	.LC0:
GAS LISTING C:\Users\kasie\AppData\Local\Temp\ccTFtpEf.s 			page 21


 684 0000 74726170 		.string	"trap\n"
 684      0A00
 685 0006 0000     		.zero	2
 686              	.LC1:
 687 0008 496E2074 		.string	"In trap handler, the mcause is %d\n"
 687      72617020 
 687      68616E64 
 687      6C65722C 
 687      20746865 
 688 002b 00       		.zero	1
 689              	.LC2:
 690 002c 496E2074 		.string	"In trap handler, the mepc is 0x%x\n"
 690      72617020 
 690      68616E64 
 690      6C65722C 
 690      20746865 
 691 004f 00       		.zero	1
 692              	.LC3:
 693 0050 496E2074 		.string	"In trap handler, the mtval is 0x%x\n"
 693      72617020 
 693      68616E64 
 693      6C65722C 
 693      20746865 
 694              		.section	.sbss.then.5588,"aw",@nobits
 695              		.align	3
 696              		.set	.LANCHOR2,. + 0
 699              	then.5588:
 700 0000 00000000 		.zero	8
 700      00000000 
 701              		.section	.sdata.MSTATUS_INIT,"aw"
 702              		.align	2
 703              		.set	.LANCHOR1,. + 0
 706              	MSTATUS_INIT:
 707 0000 80180000 		.word	6272
 708              		.section	.sdata.uxCriticalNesting,"aw"
 709              		.align	2
 710              		.set	.LANCHOR0,. + 0
 713              	uxCriticalNesting:
 714 0000 AAAAAAAA 		.word	-1431655766
 715              		.text
 716              	.Letext0:
 717              		.file 2 "c:\\hukas\\code\\repositories\\kth-hi1025-operativsystem\\compiler\\riscv64-unknown-elf\\
 718              		.file 3 "c:\\hukas\\code\\repositories\\kth-hi1025-operativsystem\\compiler\\riscv64-unknown-elf\\
 719              		.file 4 "lib/freertos/include/projdefs.h"
 720              		.file 5 "lib/freertos/include/portmacro.h"
 721              		.file 6 "c:\\hukas\\code\\repositories\\kth-hi1025-operativsystem\\compiler\\lib\\gcc\\riscv64-unk
 722              		.file 7 "c:\\hukas\\code\\repositories\\kth-hi1025-operativsystem\\compiler\\riscv64-unknown-elf\\
 723              		.file 8 "c:\\hukas\\code\\repositories\\kth-hi1025-operativsystem\\compiler\\riscv64-unknown-elf\\
 724              		.file 9 "c:\\hukas\\code\\repositories\\kth-hi1025-operativsystem\\compiler\\riscv64-unknown-elf\\
 725              		.file 10 "./../../firmware/GD32VF103_standard_peripheral/system_gd32vf103.h"
 726              		.file 11 "c:\\hukas\\code\\repositories\\kth-hi1025-operativsystem\\compiler\\riscv64-unknown-elf\
 727              		.file 12 "c:\\hukas\\code\\repositories\\kth-hi1025-operativsystem\\compiler\\riscv64-unknown-elf\
 728              		.file 13 "./../../firmware/RISCV/drivers/n200_func.h"
 729              		.file 14 "lib/freertos/include/task.h"
 730              		.file 15 "c:\\hukas\\code\\repositories\\kth-hi1025-operativsystem\\compiler\\riscv64-unknown-elf\
GAS LISTING C:\Users\kasie\AppData\Local\Temp\ccTFtpEf.s 			page 22

