GAS LISTING C:\Users\kasie\AppData\Local\Temp\ccBtjLu5.s 			page 1


   1              		.file	"queue.c"
   2              		.option nopic
   3              		.attribute arch, "rv32i2p0_m2p0_a2p0_c2p0"
   4              		.attribute unaligned_access, 0
   5              		.attribute stack_align, 16
   6              		.text
   7              	.Ltext0:
   8              		.cfi_sections	.debug_frame
   9              		.section	.text.prvCopyDataToQueue,"ax",@progbits
  10              		.align	1
  12              	prvCopyDataToQueue:
  13              	.LFB22:
  14              		.file 1 "lib/freertos/src/queue.c"
   1:lib/freertos/src/queue.c **** /*
   2:lib/freertos/src/queue.c ****     FreeRTOS V9.0.0 - Copyright (C) 2016 Real Time Engineers Ltd.
   3:lib/freertos/src/queue.c ****     All rights reserved
   4:lib/freertos/src/queue.c **** 
   5:lib/freertos/src/queue.c ****     VISIT http://www.FreeRTOS.org TO ENSURE YOU ARE USING THE LATEST VERSION.
   6:lib/freertos/src/queue.c **** 
   7:lib/freertos/src/queue.c ****     This file is part of the FreeRTOS distribution.
   8:lib/freertos/src/queue.c **** 
   9:lib/freertos/src/queue.c ****     FreeRTOS is free software; you can redistribute it and/or modify it under
  10:lib/freertos/src/queue.c ****     the terms of the GNU General Public License (version 2) as published by the
  11:lib/freertos/src/queue.c ****     Free Software Foundation >>>> AND MODIFIED BY <<<< the FreeRTOS exception.
  12:lib/freertos/src/queue.c **** 
  13:lib/freertos/src/queue.c ****     ***************************************************************************
  14:lib/freertos/src/queue.c ****     >>!   NOTE: The modification to the GPL is included to allow you to     !<<
  15:lib/freertos/src/queue.c ****     >>!   distribute a combined work that includes FreeRTOS without being   !<<
  16:lib/freertos/src/queue.c ****     >>!   obliged to provide the source code for proprietary components     !<<
  17:lib/freertos/src/queue.c ****     >>!   outside of the FreeRTOS kernel.                                   !<<
  18:lib/freertos/src/queue.c ****     ***************************************************************************
  19:lib/freertos/src/queue.c **** 
  20:lib/freertos/src/queue.c ****     FreeRTOS is distributed in the hope that it will be useful, but WITHOUT ANY
  21:lib/freertos/src/queue.c ****     WARRANTY; without even the implied warranty of MERCHANTABILITY or FITNESS
  22:lib/freertos/src/queue.c ****     FOR A PARTICULAR PURPOSE.  Full license text is available on the following
  23:lib/freertos/src/queue.c ****     link: http://www.freertos.org/a00114.html
  24:lib/freertos/src/queue.c **** 
  25:lib/freertos/src/queue.c ****     ***************************************************************************
  26:lib/freertos/src/queue.c ****      *                                                                       *
  27:lib/freertos/src/queue.c ****      *    FreeRTOS provides completely free yet professionally developed,    *
  28:lib/freertos/src/queue.c ****      *    robust, strictly quality controlled, supported, and cross          *
  29:lib/freertos/src/queue.c ****      *    platform software that is more than just the market leader, it     *
  30:lib/freertos/src/queue.c ****      *    is the industry's de facto standard.                               *
  31:lib/freertos/src/queue.c ****      *                                                                       *
  32:lib/freertos/src/queue.c ****      *    Help yourself get started quickly while simultaneously helping     *
  33:lib/freertos/src/queue.c ****      *    to support the FreeRTOS project by purchasing a FreeRTOS           *
  34:lib/freertos/src/queue.c ****      *    tutorial book, reference manual, or both:                          *
  35:lib/freertos/src/queue.c ****      *    http://www.FreeRTOS.org/Documentation                              *
  36:lib/freertos/src/queue.c ****      *                                                                       *
  37:lib/freertos/src/queue.c ****     ***************************************************************************
  38:lib/freertos/src/queue.c **** 
  39:lib/freertos/src/queue.c ****     http://www.FreeRTOS.org/FAQHelp.html - Having a problem?  Start by reading
  40:lib/freertos/src/queue.c ****     the FAQ page "My application does not run, what could be wrong?".  Have you
  41:lib/freertos/src/queue.c ****     defined configASSERT()?
  42:lib/freertos/src/queue.c **** 
  43:lib/freertos/src/queue.c ****     http://www.FreeRTOS.org/support - In return for receiving this top quality
  44:lib/freertos/src/queue.c ****     embedded software for free we request you assist our global community by
GAS LISTING C:\Users\kasie\AppData\Local\Temp\ccBtjLu5.s 			page 2


  45:lib/freertos/src/queue.c ****     participating in the support forum.
  46:lib/freertos/src/queue.c **** 
  47:lib/freertos/src/queue.c ****     http://www.FreeRTOS.org/training - Investing in training allows your team to
  48:lib/freertos/src/queue.c ****     be as productive as possible as early as possible.  Now you can receive
  49:lib/freertos/src/queue.c ****     FreeRTOS training directly from Richard Barry, CEO of Real Time Engineers
  50:lib/freertos/src/queue.c ****     Ltd, and the world's leading authority on the world's leading RTOS.
  51:lib/freertos/src/queue.c **** 
  52:lib/freertos/src/queue.c ****     http://www.FreeRTOS.org/plus - A selection of FreeRTOS ecosystem products,
  53:lib/freertos/src/queue.c ****     including FreeRTOS+Trace - an indispensable productivity tool, a DOS
  54:lib/freertos/src/queue.c ****     compatible FAT file system, and our tiny thread aware UDP/IP stack.
  55:lib/freertos/src/queue.c **** 
  56:lib/freertos/src/queue.c ****     http://www.FreeRTOS.org/labs - Where new FreeRTOS products go to incubate.
  57:lib/freertos/src/queue.c ****     Come and try FreeRTOS+TCP, our new open source TCP/IP stack for FreeRTOS.
  58:lib/freertos/src/queue.c **** 
  59:lib/freertos/src/queue.c ****     http://www.OpenRTOS.com - Real Time Engineers ltd. license FreeRTOS to High
  60:lib/freertos/src/queue.c ****     Integrity Systems ltd. to sell under the OpenRTOS brand.  Low cost OpenRTOS
  61:lib/freertos/src/queue.c ****     licenses offer ticketed support, indemnification and commercial middleware.
  62:lib/freertos/src/queue.c **** 
  63:lib/freertos/src/queue.c ****     http://www.SafeRTOS.com - High Integrity Systems also provide a safety
  64:lib/freertos/src/queue.c ****     engineered and independently SIL3 certified version for use in safety and
  65:lib/freertos/src/queue.c ****     mission critical applications that require provable dependability.
  66:lib/freertos/src/queue.c **** 
  67:lib/freertos/src/queue.c ****     1 tab == 4 spaces!
  68:lib/freertos/src/queue.c **** */
  69:lib/freertos/src/queue.c **** 
  70:lib/freertos/src/queue.c **** #include <stdlib.h>
  71:lib/freertos/src/queue.c **** #include <string.h>
  72:lib/freertos/src/queue.c **** 
  73:lib/freertos/src/queue.c **** /* Defining MPU_WRAPPERS_INCLUDED_FROM_API_FILE prevents task.h from redefining
  74:lib/freertos/src/queue.c **** all the API functions to use the MPU wrappers.  That should only be done when
  75:lib/freertos/src/queue.c **** task.h is included from an application file. */
  76:lib/freertos/src/queue.c **** #define MPU_WRAPPERS_INCLUDED_FROM_API_FILE
  77:lib/freertos/src/queue.c **** 
  78:lib/freertos/src/queue.c **** #include "FreeRTOS.h"
  79:lib/freertos/src/queue.c **** #include "task.h"
  80:lib/freertos/src/queue.c **** #include "queue.h"
  81:lib/freertos/src/queue.c **** 
  82:lib/freertos/src/queue.c **** #if ( configUSE_CO_ROUTINES == 1 )
  83:lib/freertos/src/queue.c **** 	#include "croutine.h"
  84:lib/freertos/src/queue.c **** #endif
  85:lib/freertos/src/queue.c **** 
  86:lib/freertos/src/queue.c **** /* Lint e961 and e750 are suppressed as a MISRA exception justified because the
  87:lib/freertos/src/queue.c **** MPU ports require MPU_WRAPPERS_INCLUDED_FROM_API_FILE to be defined for the
  88:lib/freertos/src/queue.c **** header files above, but not in this file, in order to generate the correct
  89:lib/freertos/src/queue.c **** privileged Vs unprivileged linkage and placement. */
  90:lib/freertos/src/queue.c **** #undef MPU_WRAPPERS_INCLUDED_FROM_API_FILE /*lint !e961 !e750. */
  91:lib/freertos/src/queue.c **** 
  92:lib/freertos/src/queue.c **** 
  93:lib/freertos/src/queue.c **** /* Constants used with the cRxLock and cTxLock structure members. */
  94:lib/freertos/src/queue.c **** #define queueUNLOCKED					( ( int8_t ) -1 )
  95:lib/freertos/src/queue.c **** #define queueLOCKED_UNMODIFIED			( ( int8_t ) 0 )
  96:lib/freertos/src/queue.c **** 
  97:lib/freertos/src/queue.c **** /* When the Queue_t structure is used to represent a base queue its pcHead and
  98:lib/freertos/src/queue.c **** pcTail members are used as pointers into the queue storage area.  When the
  99:lib/freertos/src/queue.c **** Queue_t structure is used to represent a mutex pcHead and pcTail pointers are
 100:lib/freertos/src/queue.c **** not necessary, and the pcHead pointer is set to NULL to indicate that the
 101:lib/freertos/src/queue.c **** pcTail pointer actually points to the mutex holder (if any).  Map alternative
GAS LISTING C:\Users\kasie\AppData\Local\Temp\ccBtjLu5.s 			page 3


 102:lib/freertos/src/queue.c **** names to the pcHead and pcTail structure members to ensure the readability of
 103:lib/freertos/src/queue.c **** the code is maintained despite this dual use of two structure members.  An
 104:lib/freertos/src/queue.c **** alternative implementation would be to use a union, but use of a union is
 105:lib/freertos/src/queue.c **** against the coding standard (although an exception to the standard has been
 106:lib/freertos/src/queue.c **** permitted where the dual use also significantly changes the type of the
 107:lib/freertos/src/queue.c **** structure member). */
 108:lib/freertos/src/queue.c **** #define pxMutexHolder					pcTail
 109:lib/freertos/src/queue.c **** #define uxQueueType						pcHead
 110:lib/freertos/src/queue.c **** #define queueQUEUE_IS_MUTEX				NULL
 111:lib/freertos/src/queue.c **** 
 112:lib/freertos/src/queue.c **** /* Semaphores do not actually store or copy data, so have an item size of
 113:lib/freertos/src/queue.c **** zero. */
 114:lib/freertos/src/queue.c **** #define queueSEMAPHORE_QUEUE_ITEM_LENGTH ( ( UBaseType_t ) 0 )
 115:lib/freertos/src/queue.c **** #define queueMUTEX_GIVE_BLOCK_TIME		 ( ( TickType_t ) 0U )
 116:lib/freertos/src/queue.c **** 
 117:lib/freertos/src/queue.c **** #if( configUSE_PREEMPTION == 0 )
 118:lib/freertos/src/queue.c **** 	/* If the cooperative scheduler is being used then a yield should not be
 119:lib/freertos/src/queue.c **** 	performed just because a higher priority task has been woken. */
 120:lib/freertos/src/queue.c **** 	#define queueYIELD_IF_USING_PREEMPTION()
 121:lib/freertos/src/queue.c **** #else
 122:lib/freertos/src/queue.c **** 	#define queueYIELD_IF_USING_PREEMPTION() portYIELD_WITHIN_API()
 123:lib/freertos/src/queue.c **** #endif
 124:lib/freertos/src/queue.c **** 
 125:lib/freertos/src/queue.c **** /*
 126:lib/freertos/src/queue.c ****  * Definition of the queue used by the scheduler.
 127:lib/freertos/src/queue.c ****  * Items are queued by copy, not reference.  See the following link for the
 128:lib/freertos/src/queue.c ****  * rationale: http://www.freertos.org/Embedded-RTOS-Queues.html
 129:lib/freertos/src/queue.c ****  */
 130:lib/freertos/src/queue.c **** typedef struct QueueDefinition
 131:lib/freertos/src/queue.c **** {
 132:lib/freertos/src/queue.c **** 	int8_t *pcHead;					/*< Points to the beginning of the queue storage area. */
 133:lib/freertos/src/queue.c **** 	int8_t *pcTail;					/*< Points to the byte at the end of the queue storage area.  Once more byte i
 134:lib/freertos/src/queue.c **** 	int8_t *pcWriteTo;				/*< Points to the free next place in the storage area. */
 135:lib/freertos/src/queue.c **** 
 136:lib/freertos/src/queue.c **** 	union							/* Use of a union is an exception to the coding standard to ensure two mutually exclus
 137:lib/freertos/src/queue.c **** 	{
 138:lib/freertos/src/queue.c **** 		int8_t *pcReadFrom;			/*< Points to the last place that a queued item was read from when the stru
 139:lib/freertos/src/queue.c **** 		UBaseType_t uxRecursiveCallCount;/*< Maintains a count of the number of times a recursive mutex h
 140:lib/freertos/src/queue.c **** 	} u;
 141:lib/freertos/src/queue.c **** 
 142:lib/freertos/src/queue.c **** 	List_t xTasksWaitingToSend;		/*< List of tasks that are blocked waiting to post onto this queue.  
 143:lib/freertos/src/queue.c **** 	List_t xTasksWaitingToReceive;	/*< List of tasks that are blocked waiting to read from this queue.
 144:lib/freertos/src/queue.c **** 
 145:lib/freertos/src/queue.c **** 	volatile UBaseType_t uxMessagesWaiting;/*< The number of items currently in the queue. */
 146:lib/freertos/src/queue.c **** 	UBaseType_t uxLength;			/*< The length of the queue defined as the number of items it will hold, n
 147:lib/freertos/src/queue.c **** 	UBaseType_t uxItemSize;			/*< The size of each items that the queue will hold. */
 148:lib/freertos/src/queue.c **** 
 149:lib/freertos/src/queue.c **** 	volatile int8_t cRxLock;		/*< Stores the number of items received from the queue (removed from the
 150:lib/freertos/src/queue.c **** 	volatile int8_t cTxLock;		/*< Stores the number of items transmitted to the queue (added to the qu
 151:lib/freertos/src/queue.c **** 
 152:lib/freertos/src/queue.c **** 	#if( ( configSUPPORT_STATIC_ALLOCATION == 1 ) && ( configSUPPORT_DYNAMIC_ALLOCATION == 1 ) )
 153:lib/freertos/src/queue.c **** 		uint8_t ucStaticallyAllocated;	/*< Set to pdTRUE if the memory used by the queue was statically a
 154:lib/freertos/src/queue.c **** 	#endif
 155:lib/freertos/src/queue.c **** 
 156:lib/freertos/src/queue.c **** 	#if ( configUSE_QUEUE_SETS == 1 )
 157:lib/freertos/src/queue.c **** 		struct QueueDefinition *pxQueueSetContainer;
 158:lib/freertos/src/queue.c **** 	#endif
GAS LISTING C:\Users\kasie\AppData\Local\Temp\ccBtjLu5.s 			page 4


 159:lib/freertos/src/queue.c **** 
 160:lib/freertos/src/queue.c **** 	#if ( configUSE_TRACE_FACILITY == 1 )
 161:lib/freertos/src/queue.c **** 		UBaseType_t uxQueueNumber;
 162:lib/freertos/src/queue.c **** 		uint8_t ucQueueType;
 163:lib/freertos/src/queue.c **** 	#endif
 164:lib/freertos/src/queue.c **** 
 165:lib/freertos/src/queue.c **** } xQUEUE;
 166:lib/freertos/src/queue.c **** 
 167:lib/freertos/src/queue.c **** /* The old xQUEUE name is maintained above then typedefed to the new Queue_t
 168:lib/freertos/src/queue.c **** name below to enable the use of older kernel aware debuggers. */
 169:lib/freertos/src/queue.c **** typedef xQUEUE Queue_t;
 170:lib/freertos/src/queue.c **** 
 171:lib/freertos/src/queue.c **** /*-----------------------------------------------------------*/
 172:lib/freertos/src/queue.c **** 
 173:lib/freertos/src/queue.c **** /*
 174:lib/freertos/src/queue.c ****  * The queue registry is just a means for kernel aware debuggers to locate
 175:lib/freertos/src/queue.c ****  * queue structures.  It has no other purpose so is an optional component.
 176:lib/freertos/src/queue.c ****  */
 177:lib/freertos/src/queue.c **** #if ( configQUEUE_REGISTRY_SIZE > 0 )
 178:lib/freertos/src/queue.c **** 
 179:lib/freertos/src/queue.c **** 	/* The type stored within the queue registry array.  This allows a name
 180:lib/freertos/src/queue.c **** 	to be assigned to each queue making kernel aware debugging a little
 181:lib/freertos/src/queue.c **** 	more user friendly. */
 182:lib/freertos/src/queue.c **** 	typedef struct QUEUE_REGISTRY_ITEM
 183:lib/freertos/src/queue.c **** 	{
 184:lib/freertos/src/queue.c **** 		const char *pcQueueName; /*lint !e971 Unqualified char types are allowed for strings and single c
 185:lib/freertos/src/queue.c **** 		QueueHandle_t xHandle;
 186:lib/freertos/src/queue.c **** 	} xQueueRegistryItem;
 187:lib/freertos/src/queue.c **** 
 188:lib/freertos/src/queue.c **** 	/* The old xQueueRegistryItem name is maintained above then typedefed to the
 189:lib/freertos/src/queue.c **** 	new xQueueRegistryItem name below to enable the use of older kernel aware
 190:lib/freertos/src/queue.c **** 	debuggers. */
 191:lib/freertos/src/queue.c **** 	typedef xQueueRegistryItem QueueRegistryItem_t;
 192:lib/freertos/src/queue.c **** 
 193:lib/freertos/src/queue.c **** 	/* The queue registry is simply an array of QueueRegistryItem_t structures.
 194:lib/freertos/src/queue.c **** 	The pcQueueName member of a structure being NULL is indicative of the
 195:lib/freertos/src/queue.c **** 	array position being vacant. */
 196:lib/freertos/src/queue.c **** 	PRIVILEGED_DATA QueueRegistryItem_t xQueueRegistry[ configQUEUE_REGISTRY_SIZE ];
 197:lib/freertos/src/queue.c **** 
 198:lib/freertos/src/queue.c **** #endif /* configQUEUE_REGISTRY_SIZE */
 199:lib/freertos/src/queue.c **** 
 200:lib/freertos/src/queue.c **** /*
 201:lib/freertos/src/queue.c ****  * Unlocks a queue locked by a call to prvLockQueue.  Locking a queue does not
 202:lib/freertos/src/queue.c ****  * prevent an ISR from adding or removing items to the queue, but does prevent
 203:lib/freertos/src/queue.c ****  * an ISR from removing tasks from the queue event lists.  If an ISR finds a
 204:lib/freertos/src/queue.c ****  * queue is locked it will instead increment the appropriate queue lock count
 205:lib/freertos/src/queue.c ****  * to indicate that a task may require unblocking.  When the queue in unlocked
 206:lib/freertos/src/queue.c ****  * these lock counts are inspected, and the appropriate action taken.
 207:lib/freertos/src/queue.c ****  */
 208:lib/freertos/src/queue.c **** static void prvUnlockQueue( Queue_t * const pxQueue ) PRIVILEGED_FUNCTION;
 209:lib/freertos/src/queue.c **** 
 210:lib/freertos/src/queue.c **** /*
 211:lib/freertos/src/queue.c ****  * Uses a critical section to determine if there is any data in a queue.
 212:lib/freertos/src/queue.c ****  *
 213:lib/freertos/src/queue.c ****  * @return pdTRUE if the queue contains no items, otherwise pdFALSE.
 214:lib/freertos/src/queue.c ****  */
 215:lib/freertos/src/queue.c **** static BaseType_t prvIsQueueEmpty( const Queue_t *pxQueue ) PRIVILEGED_FUNCTION;
GAS LISTING C:\Users\kasie\AppData\Local\Temp\ccBtjLu5.s 			page 5


 216:lib/freertos/src/queue.c **** 
 217:lib/freertos/src/queue.c **** /*
 218:lib/freertos/src/queue.c ****  * Uses a critical section to determine if there is any space in a queue.
 219:lib/freertos/src/queue.c ****  *
 220:lib/freertos/src/queue.c ****  * @return pdTRUE if there is no space, otherwise pdFALSE;
 221:lib/freertos/src/queue.c ****  */
 222:lib/freertos/src/queue.c **** static BaseType_t prvIsQueueFull( const Queue_t *pxQueue ) PRIVILEGED_FUNCTION;
 223:lib/freertos/src/queue.c **** 
 224:lib/freertos/src/queue.c **** /*
 225:lib/freertos/src/queue.c ****  * Copies an item into the queue, either at the front of the queue or the
 226:lib/freertos/src/queue.c ****  * back of the queue.
 227:lib/freertos/src/queue.c ****  */
 228:lib/freertos/src/queue.c **** static BaseType_t prvCopyDataToQueue( Queue_t * const pxQueue, const void *pvItemToQueue, const Bas
 229:lib/freertos/src/queue.c **** 
 230:lib/freertos/src/queue.c **** /*
 231:lib/freertos/src/queue.c ****  * Copies an item out of a queue.
 232:lib/freertos/src/queue.c ****  */
 233:lib/freertos/src/queue.c **** static void prvCopyDataFromQueue( Queue_t * const pxQueue, void * const pvBuffer ) PRIVILEGED_FUNCT
 234:lib/freertos/src/queue.c **** 
 235:lib/freertos/src/queue.c **** #if ( configUSE_QUEUE_SETS == 1 )
 236:lib/freertos/src/queue.c **** 	/*
 237:lib/freertos/src/queue.c **** 	 * Checks to see if a queue is a member of a queue set, and if so, notifies
 238:lib/freertos/src/queue.c **** 	 * the queue set that the queue contains data.
 239:lib/freertos/src/queue.c **** 	 */
 240:lib/freertos/src/queue.c **** 	static BaseType_t prvNotifyQueueSetContainer( const Queue_t * const pxQueue, const BaseType_t xCop
 241:lib/freertos/src/queue.c **** #endif
 242:lib/freertos/src/queue.c **** 
 243:lib/freertos/src/queue.c **** /*
 244:lib/freertos/src/queue.c ****  * Called after a Queue_t structure has been allocated either statically or
 245:lib/freertos/src/queue.c ****  * dynamically to fill in the structure's members.
 246:lib/freertos/src/queue.c ****  */
 247:lib/freertos/src/queue.c **** static void prvInitialiseNewQueue( const UBaseType_t uxQueueLength, const UBaseType_t uxItemSize, u
 248:lib/freertos/src/queue.c **** 
 249:lib/freertos/src/queue.c **** /*
 250:lib/freertos/src/queue.c ****  * Mutexes are a special type of queue.  When a mutex is created, first the
 251:lib/freertos/src/queue.c ****  * queue is created, then prvInitialiseMutex() is called to configure the queue
 252:lib/freertos/src/queue.c ****  * as a mutex.
 253:lib/freertos/src/queue.c ****  */
 254:lib/freertos/src/queue.c **** #if( configUSE_MUTEXES == 1 )
 255:lib/freertos/src/queue.c **** 	static void prvInitialiseMutex( Queue_t *pxNewQueue ) PRIVILEGED_FUNCTION;
 256:lib/freertos/src/queue.c **** #endif
 257:lib/freertos/src/queue.c **** 
 258:lib/freertos/src/queue.c **** /*-----------------------------------------------------------*/
 259:lib/freertos/src/queue.c **** 
 260:lib/freertos/src/queue.c **** /*
 261:lib/freertos/src/queue.c ****  * Macro to mark a queue as locked.  Locking a queue prevents an ISR from
 262:lib/freertos/src/queue.c ****  * accessing the queue event lists.
 263:lib/freertos/src/queue.c ****  */
 264:lib/freertos/src/queue.c **** #define prvLockQueue( pxQueue )								\
 265:lib/freertos/src/queue.c **** 	taskENTER_CRITICAL();									\
 266:lib/freertos/src/queue.c **** 	{														\
 267:lib/freertos/src/queue.c **** 		if( ( pxQueue )->cRxLock == queueUNLOCKED )			\
 268:lib/freertos/src/queue.c **** 		{													\
 269:lib/freertos/src/queue.c **** 			( pxQueue )->cRxLock = queueLOCKED_UNMODIFIED;	\
 270:lib/freertos/src/queue.c **** 		}													\
 271:lib/freertos/src/queue.c **** 		if( ( pxQueue )->cTxLock == queueUNLOCKED )			\
 272:lib/freertos/src/queue.c **** 		{													\
GAS LISTING C:\Users\kasie\AppData\Local\Temp\ccBtjLu5.s 			page 6


 273:lib/freertos/src/queue.c **** 			( pxQueue )->cTxLock = queueLOCKED_UNMODIFIED;	\
 274:lib/freertos/src/queue.c **** 		}													\
 275:lib/freertos/src/queue.c **** 	}														\
 276:lib/freertos/src/queue.c **** 	taskEXIT_CRITICAL()
 277:lib/freertos/src/queue.c **** /*-----------------------------------------------------------*/
 278:lib/freertos/src/queue.c **** 
 279:lib/freertos/src/queue.c **** BaseType_t xQueueGenericReset( QueueHandle_t xQueue, BaseType_t xNewQueue )
 280:lib/freertos/src/queue.c **** {
 281:lib/freertos/src/queue.c **** Queue_t * const pxQueue = ( Queue_t * ) xQueue;
 282:lib/freertos/src/queue.c **** 
 283:lib/freertos/src/queue.c **** 	configASSERT( pxQueue );
 284:lib/freertos/src/queue.c **** 
 285:lib/freertos/src/queue.c **** 	taskENTER_CRITICAL();
 286:lib/freertos/src/queue.c **** 	{
 287:lib/freertos/src/queue.c **** 		pxQueue->pcTail = pxQueue->pcHead + ( pxQueue->uxLength * pxQueue->uxItemSize );
 288:lib/freertos/src/queue.c **** 		pxQueue->uxMessagesWaiting = ( UBaseType_t ) 0U;
 289:lib/freertos/src/queue.c **** 		pxQueue->pcWriteTo = pxQueue->pcHead;
 290:lib/freertos/src/queue.c **** 		pxQueue->u.pcReadFrom = pxQueue->pcHead + ( ( pxQueue->uxLength - ( UBaseType_t ) 1U ) * pxQueue-
 291:lib/freertos/src/queue.c **** 		pxQueue->cRxLock = queueUNLOCKED;
 292:lib/freertos/src/queue.c **** 		pxQueue->cTxLock = queueUNLOCKED;
 293:lib/freertos/src/queue.c **** 
 294:lib/freertos/src/queue.c **** 		if( xNewQueue == pdFALSE )
 295:lib/freertos/src/queue.c **** 		{
 296:lib/freertos/src/queue.c **** 			/* If there are tasks blocked waiting to read from the queue, then
 297:lib/freertos/src/queue.c **** 			the tasks will remain blocked as after this function exits the queue
 298:lib/freertos/src/queue.c **** 			will still be empty.  If there are tasks blocked waiting to write to
 299:lib/freertos/src/queue.c **** 			the queue, then one should be unblocked as after this function exits
 300:lib/freertos/src/queue.c **** 			it will be possible to write to it. */
 301:lib/freertos/src/queue.c **** 			if( listLIST_IS_EMPTY( &( pxQueue->xTasksWaitingToSend ) ) == pdFALSE )
 302:lib/freertos/src/queue.c **** 			{
 303:lib/freertos/src/queue.c **** 				if( xTaskRemoveFromEventList( &( pxQueue->xTasksWaitingToSend ) ) != pdFALSE )
 304:lib/freertos/src/queue.c **** 				{
 305:lib/freertos/src/queue.c **** 					queueYIELD_IF_USING_PREEMPTION();
 306:lib/freertos/src/queue.c **** 				}
 307:lib/freertos/src/queue.c **** 				else
 308:lib/freertos/src/queue.c **** 				{
 309:lib/freertos/src/queue.c **** 					mtCOVERAGE_TEST_MARKER();
 310:lib/freertos/src/queue.c **** 				}
 311:lib/freertos/src/queue.c **** 			}
 312:lib/freertos/src/queue.c **** 			else
 313:lib/freertos/src/queue.c **** 			{
 314:lib/freertos/src/queue.c **** 				mtCOVERAGE_TEST_MARKER();
 315:lib/freertos/src/queue.c **** 			}
 316:lib/freertos/src/queue.c **** 		}
 317:lib/freertos/src/queue.c **** 		else
 318:lib/freertos/src/queue.c **** 		{
 319:lib/freertos/src/queue.c **** 			/* Ensure the event queues start in the correct state. */
 320:lib/freertos/src/queue.c **** 			vListInitialise( &( pxQueue->xTasksWaitingToSend ) );
 321:lib/freertos/src/queue.c **** 			vListInitialise( &( pxQueue->xTasksWaitingToReceive ) );
 322:lib/freertos/src/queue.c **** 		}
 323:lib/freertos/src/queue.c **** 	}
 324:lib/freertos/src/queue.c **** 	taskEXIT_CRITICAL();
 325:lib/freertos/src/queue.c **** 
 326:lib/freertos/src/queue.c **** 	/* A value is returned for calling semantic consistency with previous
 327:lib/freertos/src/queue.c **** 	versions. */
 328:lib/freertos/src/queue.c **** 	return pdPASS;
 329:lib/freertos/src/queue.c **** }
GAS LISTING C:\Users\kasie\AppData\Local\Temp\ccBtjLu5.s 			page 7


 330:lib/freertos/src/queue.c **** /*-----------------------------------------------------------*/
 331:lib/freertos/src/queue.c **** 
 332:lib/freertos/src/queue.c **** #if( configSUPPORT_STATIC_ALLOCATION == 1 )
 333:lib/freertos/src/queue.c **** 
 334:lib/freertos/src/queue.c **** 	QueueHandle_t xQueueGenericCreateStatic( const UBaseType_t uxQueueLength, const UBaseType_t uxItem
 335:lib/freertos/src/queue.c **** 	{
 336:lib/freertos/src/queue.c **** 	Queue_t *pxNewQueue;
 337:lib/freertos/src/queue.c **** 
 338:lib/freertos/src/queue.c **** 		configASSERT( uxQueueLength > ( UBaseType_t ) 0 );
 339:lib/freertos/src/queue.c **** 
 340:lib/freertos/src/queue.c **** 		/* The StaticQueue_t structure and the queue storage area must be
 341:lib/freertos/src/queue.c **** 		supplied. */
 342:lib/freertos/src/queue.c **** 		configASSERT( pxStaticQueue != NULL );
 343:lib/freertos/src/queue.c **** 
 344:lib/freertos/src/queue.c **** 		/* A queue storage area should be provided if the item size is not 0, and
 345:lib/freertos/src/queue.c **** 		should not be provided if the item size is 0. */
 346:lib/freertos/src/queue.c **** 		configASSERT( !( ( pucQueueStorage != NULL ) && ( uxItemSize == 0 ) ) );
 347:lib/freertos/src/queue.c **** 		configASSERT( !( ( pucQueueStorage == NULL ) && ( uxItemSize != 0 ) ) );
 348:lib/freertos/src/queue.c **** 
 349:lib/freertos/src/queue.c **** 		#if( configASSERT_DEFINED == 1 )
 350:lib/freertos/src/queue.c **** 		{
 351:lib/freertos/src/queue.c **** 			/* Sanity check that the size of the structure used to declare a
 352:lib/freertos/src/queue.c **** 			variable of type StaticQueue_t or StaticSemaphore_t equals the size of
 353:lib/freertos/src/queue.c **** 			the real queue and semaphore structures. */
 354:lib/freertos/src/queue.c **** 			volatile size_t xSize = sizeof( StaticQueue_t );
 355:lib/freertos/src/queue.c **** 			configASSERT( xSize == sizeof( Queue_t ) );
 356:lib/freertos/src/queue.c **** 		}
 357:lib/freertos/src/queue.c **** 		#endif /* configASSERT_DEFINED */
 358:lib/freertos/src/queue.c **** 
 359:lib/freertos/src/queue.c **** 		/* The address of a statically allocated queue was passed in, use it.
 360:lib/freertos/src/queue.c **** 		The address of a statically allocated storage area was also passed in
 361:lib/freertos/src/queue.c **** 		but is already set. */
 362:lib/freertos/src/queue.c **** 		pxNewQueue = ( Queue_t * ) pxStaticQueue; /*lint !e740 Unusual cast is ok as the structures are d
 363:lib/freertos/src/queue.c **** 
 364:lib/freertos/src/queue.c **** 		if( pxNewQueue != NULL )
 365:lib/freertos/src/queue.c **** 		{
 366:lib/freertos/src/queue.c **** 			#if( configSUPPORT_DYNAMIC_ALLOCATION == 1 )
 367:lib/freertos/src/queue.c **** 			{
 368:lib/freertos/src/queue.c **** 				/* Queues can be allocated wither statically or dynamically, so
 369:lib/freertos/src/queue.c **** 				note this queue was allocated statically in case the queue is
 370:lib/freertos/src/queue.c **** 				later deleted. */
 371:lib/freertos/src/queue.c **** 				pxNewQueue->ucStaticallyAllocated = pdTRUE;
 372:lib/freertos/src/queue.c **** 			}
 373:lib/freertos/src/queue.c **** 			#endif /* configSUPPORT_DYNAMIC_ALLOCATION */
 374:lib/freertos/src/queue.c **** 
 375:lib/freertos/src/queue.c **** 			prvInitialiseNewQueue( uxQueueLength, uxItemSize, pucQueueStorage, ucQueueType, pxNewQueue );
 376:lib/freertos/src/queue.c **** 		}
 377:lib/freertos/src/queue.c **** 
 378:lib/freertos/src/queue.c **** 		return pxNewQueue;
 379:lib/freertos/src/queue.c **** 	}
 380:lib/freertos/src/queue.c **** 
 381:lib/freertos/src/queue.c **** #endif /* configSUPPORT_STATIC_ALLOCATION */
 382:lib/freertos/src/queue.c **** /*-----------------------------------------------------------*/
 383:lib/freertos/src/queue.c **** 
 384:lib/freertos/src/queue.c **** #if( configSUPPORT_DYNAMIC_ALLOCATION == 1 )
 385:lib/freertos/src/queue.c **** 
 386:lib/freertos/src/queue.c **** 	QueueHandle_t xQueueGenericCreate( const UBaseType_t uxQueueLength, const UBaseType_t uxItemSize, 
GAS LISTING C:\Users\kasie\AppData\Local\Temp\ccBtjLu5.s 			page 8


 387:lib/freertos/src/queue.c **** 	{
 388:lib/freertos/src/queue.c **** 	Queue_t *pxNewQueue;
 389:lib/freertos/src/queue.c **** 	size_t xQueueSizeInBytes;
 390:lib/freertos/src/queue.c **** 	uint8_t *pucQueueStorage;
 391:lib/freertos/src/queue.c **** 
 392:lib/freertos/src/queue.c **** 		configASSERT( uxQueueLength > ( UBaseType_t ) 0 );
 393:lib/freertos/src/queue.c **** 
 394:lib/freertos/src/queue.c **** 		if( uxItemSize == ( UBaseType_t ) 0 )
 395:lib/freertos/src/queue.c **** 		{
 396:lib/freertos/src/queue.c **** 			/* There is not going to be a queue storage area. */
 397:lib/freertos/src/queue.c **** 			xQueueSizeInBytes = ( size_t ) 0;
 398:lib/freertos/src/queue.c **** 		}
 399:lib/freertos/src/queue.c **** 		else
 400:lib/freertos/src/queue.c **** 		{
 401:lib/freertos/src/queue.c **** 			/* Allocate enough space to hold the maximum number of items that
 402:lib/freertos/src/queue.c **** 			can be in the queue at any time. */
 403:lib/freertos/src/queue.c **** 			xQueueSizeInBytes = ( size_t ) ( uxQueueLength * uxItemSize ); /*lint !e961 MISRA exception as t
 404:lib/freertos/src/queue.c **** 		}
 405:lib/freertos/src/queue.c **** 
 406:lib/freertos/src/queue.c **** 		pxNewQueue = ( Queue_t * ) pvPortMalloc( sizeof( Queue_t ) + xQueueSizeInBytes );
 407:lib/freertos/src/queue.c **** 
 408:lib/freertos/src/queue.c **** 		if( pxNewQueue != NULL )
 409:lib/freertos/src/queue.c **** 		{
 410:lib/freertos/src/queue.c **** 			/* Jump past the queue structure to find the location of the queue
 411:lib/freertos/src/queue.c **** 			storage area. */
 412:lib/freertos/src/queue.c **** 			pucQueueStorage = ( ( uint8_t * ) pxNewQueue ) + sizeof( Queue_t );
 413:lib/freertos/src/queue.c **** 
 414:lib/freertos/src/queue.c **** 			#if( configSUPPORT_STATIC_ALLOCATION == 1 )
 415:lib/freertos/src/queue.c **** 			{
 416:lib/freertos/src/queue.c **** 				/* Queues can be created either statically or dynamically, so
 417:lib/freertos/src/queue.c **** 				note this task was created dynamically in case it is later
 418:lib/freertos/src/queue.c **** 				deleted. */
 419:lib/freertos/src/queue.c **** 				pxNewQueue->ucStaticallyAllocated = pdFALSE;
 420:lib/freertos/src/queue.c **** 			}
 421:lib/freertos/src/queue.c **** 			#endif /* configSUPPORT_STATIC_ALLOCATION */
 422:lib/freertos/src/queue.c **** 
 423:lib/freertos/src/queue.c **** 			prvInitialiseNewQueue( uxQueueLength, uxItemSize, pucQueueStorage, ucQueueType, pxNewQueue );
 424:lib/freertos/src/queue.c **** 		}
 425:lib/freertos/src/queue.c **** 
 426:lib/freertos/src/queue.c **** 		return pxNewQueue;
 427:lib/freertos/src/queue.c **** 	}
 428:lib/freertos/src/queue.c **** 
 429:lib/freertos/src/queue.c **** #endif /* configSUPPORT_STATIC_ALLOCATION */
 430:lib/freertos/src/queue.c **** /*-----------------------------------------------------------*/
 431:lib/freertos/src/queue.c **** 
 432:lib/freertos/src/queue.c **** static void prvInitialiseNewQueue( const UBaseType_t uxQueueLength, const UBaseType_t uxItemSize, u
 433:lib/freertos/src/queue.c **** {
 434:lib/freertos/src/queue.c **** 	/* Remove compiler warnings about unused parameters should
 435:lib/freertos/src/queue.c **** 	configUSE_TRACE_FACILITY not be set to 1. */
 436:lib/freertos/src/queue.c **** 	( void ) ucQueueType;
 437:lib/freertos/src/queue.c **** 
 438:lib/freertos/src/queue.c **** 	if( uxItemSize == ( UBaseType_t ) 0 )
 439:lib/freertos/src/queue.c **** 	{
 440:lib/freertos/src/queue.c **** 		/* No RAM was allocated for the queue storage area, but PC head cannot
 441:lib/freertos/src/queue.c **** 		be set to NULL because NULL is used as a key to say the queue is used as
 442:lib/freertos/src/queue.c **** 		a mutex.  Therefore just set pcHead to point to the queue as a benign
 443:lib/freertos/src/queue.c **** 		value that is known to be within the memory map. */
GAS LISTING C:\Users\kasie\AppData\Local\Temp\ccBtjLu5.s 			page 9


 444:lib/freertos/src/queue.c **** 		pxNewQueue->pcHead = ( int8_t * ) pxNewQueue;
 445:lib/freertos/src/queue.c **** 	}
 446:lib/freertos/src/queue.c **** 	else
 447:lib/freertos/src/queue.c **** 	{
 448:lib/freertos/src/queue.c **** 		/* Set the head to the start of the queue storage area. */
 449:lib/freertos/src/queue.c **** 		pxNewQueue->pcHead = ( int8_t * ) pucQueueStorage;
 450:lib/freertos/src/queue.c **** 	}
 451:lib/freertos/src/queue.c **** 
 452:lib/freertos/src/queue.c **** 	/* Initialise the queue members as described where the queue type is
 453:lib/freertos/src/queue.c **** 	defined. */
 454:lib/freertos/src/queue.c **** 	pxNewQueue->uxLength = uxQueueLength;
 455:lib/freertos/src/queue.c **** 	pxNewQueue->uxItemSize = uxItemSize;
 456:lib/freertos/src/queue.c **** 	( void ) xQueueGenericReset( pxNewQueue, pdTRUE );
 457:lib/freertos/src/queue.c **** 
 458:lib/freertos/src/queue.c **** 	#if ( configUSE_TRACE_FACILITY == 1 )
 459:lib/freertos/src/queue.c **** 	{
 460:lib/freertos/src/queue.c **** 		pxNewQueue->ucQueueType = ucQueueType;
 461:lib/freertos/src/queue.c **** 	}
 462:lib/freertos/src/queue.c **** 	#endif /* configUSE_TRACE_FACILITY */
 463:lib/freertos/src/queue.c **** 
 464:lib/freertos/src/queue.c **** 	#if( configUSE_QUEUE_SETS == 1 )
 465:lib/freertos/src/queue.c **** 	{
 466:lib/freertos/src/queue.c **** 		pxNewQueue->pxQueueSetContainer = NULL;
 467:lib/freertos/src/queue.c **** 	}
 468:lib/freertos/src/queue.c **** 	#endif /* configUSE_QUEUE_SETS */
 469:lib/freertos/src/queue.c **** 
 470:lib/freertos/src/queue.c **** 	traceQUEUE_CREATE( pxNewQueue );
 471:lib/freertos/src/queue.c **** }
 472:lib/freertos/src/queue.c **** /*-----------------------------------------------------------*/
 473:lib/freertos/src/queue.c **** 
 474:lib/freertos/src/queue.c **** #if( configUSE_MUTEXES == 1 )
 475:lib/freertos/src/queue.c **** 
 476:lib/freertos/src/queue.c **** 	static void prvInitialiseMutex( Queue_t *pxNewQueue )
 477:lib/freertos/src/queue.c **** 	{
 478:lib/freertos/src/queue.c **** 		if( pxNewQueue != NULL )
 479:lib/freertos/src/queue.c **** 		{
 480:lib/freertos/src/queue.c **** 			/* The queue create function will set all the queue structure members
 481:lib/freertos/src/queue.c **** 			correctly for a generic queue, but this function is creating a
 482:lib/freertos/src/queue.c **** 			mutex.  Overwrite those members that need to be set differently -
 483:lib/freertos/src/queue.c **** 			in particular the information required for priority inheritance. */
 484:lib/freertos/src/queue.c **** 			pxNewQueue->pxMutexHolder = NULL;
 485:lib/freertos/src/queue.c **** 			pxNewQueue->uxQueueType = queueQUEUE_IS_MUTEX;
 486:lib/freertos/src/queue.c **** 
 487:lib/freertos/src/queue.c **** 			/* In case this is a recursive mutex. */
 488:lib/freertos/src/queue.c **** 			pxNewQueue->u.uxRecursiveCallCount = 0;
 489:lib/freertos/src/queue.c **** 
 490:lib/freertos/src/queue.c **** 			traceCREATE_MUTEX( pxNewQueue );
 491:lib/freertos/src/queue.c **** 
 492:lib/freertos/src/queue.c **** 			/* Start with the semaphore in the expected state. */
 493:lib/freertos/src/queue.c **** 			( void ) xQueueGenericSend( pxNewQueue, NULL, ( TickType_t ) 0U, queueSEND_TO_BACK );
 494:lib/freertos/src/queue.c **** 		}
 495:lib/freertos/src/queue.c **** 		else
 496:lib/freertos/src/queue.c **** 		{
 497:lib/freertos/src/queue.c **** 			traceCREATE_MUTEX_FAILED();
 498:lib/freertos/src/queue.c **** 		}
 499:lib/freertos/src/queue.c **** 	}
 500:lib/freertos/src/queue.c **** 
GAS LISTING C:\Users\kasie\AppData\Local\Temp\ccBtjLu5.s 			page 10


 501:lib/freertos/src/queue.c **** #endif /* configUSE_MUTEXES */
 502:lib/freertos/src/queue.c **** /*-----------------------------------------------------------*/
 503:lib/freertos/src/queue.c **** 
 504:lib/freertos/src/queue.c **** #if( ( configUSE_MUTEXES == 1 ) && ( configSUPPORT_DYNAMIC_ALLOCATION == 1 ) )
 505:lib/freertos/src/queue.c **** 
 506:lib/freertos/src/queue.c **** 	QueueHandle_t xQueueCreateMutex( const uint8_t ucQueueType )
 507:lib/freertos/src/queue.c **** 	{
 508:lib/freertos/src/queue.c **** 	Queue_t *pxNewQueue;
 509:lib/freertos/src/queue.c **** 	const UBaseType_t uxMutexLength = ( UBaseType_t ) 1, uxMutexSize = ( UBaseType_t ) 0;
 510:lib/freertos/src/queue.c **** 
 511:lib/freertos/src/queue.c **** 		pxNewQueue = ( Queue_t * ) xQueueGenericCreate( uxMutexLength, uxMutexSize, ucQueueType );
 512:lib/freertos/src/queue.c **** 		prvInitialiseMutex( pxNewQueue );
 513:lib/freertos/src/queue.c **** 
 514:lib/freertos/src/queue.c **** 		return pxNewQueue;
 515:lib/freertos/src/queue.c **** 	}
 516:lib/freertos/src/queue.c **** 
 517:lib/freertos/src/queue.c **** #endif /* configUSE_MUTEXES */
 518:lib/freertos/src/queue.c **** /*-----------------------------------------------------------*/
 519:lib/freertos/src/queue.c **** 
 520:lib/freertos/src/queue.c **** #if( ( configUSE_MUTEXES == 1 ) && ( configSUPPORT_STATIC_ALLOCATION == 1 ) )
 521:lib/freertos/src/queue.c **** 
 522:lib/freertos/src/queue.c **** 	QueueHandle_t xQueueCreateMutexStatic( const uint8_t ucQueueType, StaticQueue_t *pxStaticQueue )
 523:lib/freertos/src/queue.c **** 	{
 524:lib/freertos/src/queue.c **** 	Queue_t *pxNewQueue;
 525:lib/freertos/src/queue.c **** 	const UBaseType_t uxMutexLength = ( UBaseType_t ) 1, uxMutexSize = ( UBaseType_t ) 0;
 526:lib/freertos/src/queue.c **** 
 527:lib/freertos/src/queue.c **** 		/* Prevent compiler warnings about unused parameters if
 528:lib/freertos/src/queue.c **** 		configUSE_TRACE_FACILITY does not equal 1. */
 529:lib/freertos/src/queue.c **** 		( void ) ucQueueType;
 530:lib/freertos/src/queue.c **** 
 531:lib/freertos/src/queue.c **** 		pxNewQueue = ( Queue_t * ) xQueueGenericCreateStatic( uxMutexLength, uxMutexSize, NULL, pxStaticQ
 532:lib/freertos/src/queue.c **** 		prvInitialiseMutex( pxNewQueue );
 533:lib/freertos/src/queue.c **** 
 534:lib/freertos/src/queue.c **** 		return pxNewQueue;
 535:lib/freertos/src/queue.c **** 	}
 536:lib/freertos/src/queue.c **** 
 537:lib/freertos/src/queue.c **** #endif /* configUSE_MUTEXES */
 538:lib/freertos/src/queue.c **** /*-----------------------------------------------------------*/
 539:lib/freertos/src/queue.c **** 
 540:lib/freertos/src/queue.c **** #if ( ( configUSE_MUTEXES == 1 ) && ( INCLUDE_xSemaphoreGetMutexHolder == 1 ) )
 541:lib/freertos/src/queue.c **** 
 542:lib/freertos/src/queue.c **** 	void* xQueueGetMutexHolder( QueueHandle_t xSemaphore )
 543:lib/freertos/src/queue.c **** 	{
 544:lib/freertos/src/queue.c **** 	void *pxReturn;
 545:lib/freertos/src/queue.c **** 
 546:lib/freertos/src/queue.c **** 		/* This function is called by xSemaphoreGetMutexHolder(), and should not
 547:lib/freertos/src/queue.c **** 		be called directly.  Note:  This is a good way of determining if the
 548:lib/freertos/src/queue.c **** 		calling task is the mutex holder, but not a good way of determining the
 549:lib/freertos/src/queue.c **** 		identity of the mutex holder, as the holder may change between the
 550:lib/freertos/src/queue.c **** 		following critical section exiting and the function returning. */
 551:lib/freertos/src/queue.c **** 		taskENTER_CRITICAL();
 552:lib/freertos/src/queue.c **** 		{
 553:lib/freertos/src/queue.c **** 			if( ( ( Queue_t * ) xSemaphore )->uxQueueType == queueQUEUE_IS_MUTEX )
 554:lib/freertos/src/queue.c **** 			{
 555:lib/freertos/src/queue.c **** 				pxReturn = ( void * ) ( ( Queue_t * ) xSemaphore )->pxMutexHolder;
 556:lib/freertos/src/queue.c **** 			}
 557:lib/freertos/src/queue.c **** 			else
GAS LISTING C:\Users\kasie\AppData\Local\Temp\ccBtjLu5.s 			page 11


 558:lib/freertos/src/queue.c **** 			{
 559:lib/freertos/src/queue.c **** 				pxReturn = NULL;
 560:lib/freertos/src/queue.c **** 			}
 561:lib/freertos/src/queue.c **** 		}
 562:lib/freertos/src/queue.c **** 		taskEXIT_CRITICAL();
 563:lib/freertos/src/queue.c **** 
 564:lib/freertos/src/queue.c **** 		return pxReturn;
 565:lib/freertos/src/queue.c **** 	} /*lint !e818 xSemaphore cannot be a pointer to const because it is a typedef. */
 566:lib/freertos/src/queue.c **** 
 567:lib/freertos/src/queue.c **** #endif
 568:lib/freertos/src/queue.c **** /*-----------------------------------------------------------*/
 569:lib/freertos/src/queue.c **** 
 570:lib/freertos/src/queue.c **** #if ( configUSE_RECURSIVE_MUTEXES == 1 )
 571:lib/freertos/src/queue.c **** 
 572:lib/freertos/src/queue.c **** 	BaseType_t xQueueGiveMutexRecursive( QueueHandle_t xMutex )
 573:lib/freertos/src/queue.c **** 	{
 574:lib/freertos/src/queue.c **** 	BaseType_t xReturn;
 575:lib/freertos/src/queue.c **** 	Queue_t * const pxMutex = ( Queue_t * ) xMutex;
 576:lib/freertos/src/queue.c **** 
 577:lib/freertos/src/queue.c **** 		configASSERT( pxMutex );
 578:lib/freertos/src/queue.c **** 
 579:lib/freertos/src/queue.c **** 		/* If this is the task that holds the mutex then pxMutexHolder will not
 580:lib/freertos/src/queue.c **** 		change outside of this task.  If this task does not hold the mutex then
 581:lib/freertos/src/queue.c **** 		pxMutexHolder can never coincidentally equal the tasks handle, and as
 582:lib/freertos/src/queue.c **** 		this is the only condition we are interested in it does not matter if
 583:lib/freertos/src/queue.c **** 		pxMutexHolder is accessed simultaneously by another task.  Therefore no
 584:lib/freertos/src/queue.c **** 		mutual exclusion is required to test the pxMutexHolder variable. */
 585:lib/freertos/src/queue.c **** 		if( pxMutex->pxMutexHolder == ( void * ) xTaskGetCurrentTaskHandle() ) /*lint !e961 Not a redunda
 586:lib/freertos/src/queue.c **** 		{
 587:lib/freertos/src/queue.c **** 			traceGIVE_MUTEX_RECURSIVE( pxMutex );
 588:lib/freertos/src/queue.c **** 
 589:lib/freertos/src/queue.c **** 			/* uxRecursiveCallCount cannot be zero if pxMutexHolder is equal to
 590:lib/freertos/src/queue.c **** 			the task handle, therefore no underflow check is required.  Also,
 591:lib/freertos/src/queue.c **** 			uxRecursiveCallCount is only modified by the mutex holder, and as
 592:lib/freertos/src/queue.c **** 			there can only be one, no mutual exclusion is required to modify the
 593:lib/freertos/src/queue.c **** 			uxRecursiveCallCount member. */
 594:lib/freertos/src/queue.c **** 			( pxMutex->u.uxRecursiveCallCount )--;
 595:lib/freertos/src/queue.c **** 
 596:lib/freertos/src/queue.c **** 			/* Has the recursive call count unwound to 0? */
 597:lib/freertos/src/queue.c **** 			if( pxMutex->u.uxRecursiveCallCount == ( UBaseType_t ) 0 )
 598:lib/freertos/src/queue.c **** 			{
 599:lib/freertos/src/queue.c **** 				/* Return the mutex.  This will automatically unblock any other
 600:lib/freertos/src/queue.c **** 				task that might be waiting to access the mutex. */
 601:lib/freertos/src/queue.c **** 				( void ) xQueueGenericSend( pxMutex, NULL, queueMUTEX_GIVE_BLOCK_TIME, queueSEND_TO_BACK );
 602:lib/freertos/src/queue.c **** 			}
 603:lib/freertos/src/queue.c **** 			else
 604:lib/freertos/src/queue.c **** 			{
 605:lib/freertos/src/queue.c **** 				mtCOVERAGE_TEST_MARKER();
 606:lib/freertos/src/queue.c **** 			}
 607:lib/freertos/src/queue.c **** 
 608:lib/freertos/src/queue.c **** 			xReturn = pdPASS;
 609:lib/freertos/src/queue.c **** 		}
 610:lib/freertos/src/queue.c **** 		else
 611:lib/freertos/src/queue.c **** 		{
 612:lib/freertos/src/queue.c **** 			/* The mutex cannot be given because the calling task is not the
 613:lib/freertos/src/queue.c **** 			holder. */
 614:lib/freertos/src/queue.c **** 			xReturn = pdFAIL;
GAS LISTING C:\Users\kasie\AppData\Local\Temp\ccBtjLu5.s 			page 12


 615:lib/freertos/src/queue.c **** 
 616:lib/freertos/src/queue.c **** 			traceGIVE_MUTEX_RECURSIVE_FAILED( pxMutex );
 617:lib/freertos/src/queue.c **** 		}
 618:lib/freertos/src/queue.c **** 
 619:lib/freertos/src/queue.c **** 		return xReturn;
 620:lib/freertos/src/queue.c **** 	}
 621:lib/freertos/src/queue.c **** 
 622:lib/freertos/src/queue.c **** #endif /* configUSE_RECURSIVE_MUTEXES */
 623:lib/freertos/src/queue.c **** /*-----------------------------------------------------------*/
 624:lib/freertos/src/queue.c **** 
 625:lib/freertos/src/queue.c **** #if ( configUSE_RECURSIVE_MUTEXES == 1 )
 626:lib/freertos/src/queue.c **** 
 627:lib/freertos/src/queue.c **** 	BaseType_t xQueueTakeMutexRecursive( QueueHandle_t xMutex, TickType_t xTicksToWait )
 628:lib/freertos/src/queue.c **** 	{
 629:lib/freertos/src/queue.c **** 	BaseType_t xReturn;
 630:lib/freertos/src/queue.c **** 	Queue_t * const pxMutex = ( Queue_t * ) xMutex;
 631:lib/freertos/src/queue.c **** 
 632:lib/freertos/src/queue.c **** 		configASSERT( pxMutex );
 633:lib/freertos/src/queue.c **** 
 634:lib/freertos/src/queue.c **** 		/* Comments regarding mutual exclusion as per those within
 635:lib/freertos/src/queue.c **** 		xQueueGiveMutexRecursive(). */
 636:lib/freertos/src/queue.c **** 
 637:lib/freertos/src/queue.c **** 		traceTAKE_MUTEX_RECURSIVE( pxMutex );
 638:lib/freertos/src/queue.c **** 
 639:lib/freertos/src/queue.c **** 		if( pxMutex->pxMutexHolder == ( void * ) xTaskGetCurrentTaskHandle() ) /*lint !e961 Cast is not r
 640:lib/freertos/src/queue.c **** 		{
 641:lib/freertos/src/queue.c **** 			( pxMutex->u.uxRecursiveCallCount )++;
 642:lib/freertos/src/queue.c **** 			xReturn = pdPASS;
 643:lib/freertos/src/queue.c **** 		}
 644:lib/freertos/src/queue.c **** 		else
 645:lib/freertos/src/queue.c **** 		{
 646:lib/freertos/src/queue.c **** 			xReturn = xQueueGenericReceive( pxMutex, NULL, xTicksToWait, pdFALSE );
 647:lib/freertos/src/queue.c **** 
 648:lib/freertos/src/queue.c **** 			/* pdPASS will only be returned if the mutex was successfully
 649:lib/freertos/src/queue.c **** 			obtained.  The calling task may have entered the Blocked state
 650:lib/freertos/src/queue.c **** 			before reaching here. */
 651:lib/freertos/src/queue.c **** 			if( xReturn != pdFAIL )
 652:lib/freertos/src/queue.c **** 			{
 653:lib/freertos/src/queue.c **** 				( pxMutex->u.uxRecursiveCallCount )++;
 654:lib/freertos/src/queue.c **** 			}
 655:lib/freertos/src/queue.c **** 			else
 656:lib/freertos/src/queue.c **** 			{
 657:lib/freertos/src/queue.c **** 				traceTAKE_MUTEX_RECURSIVE_FAILED( pxMutex );
 658:lib/freertos/src/queue.c **** 			}
 659:lib/freertos/src/queue.c **** 		}
 660:lib/freertos/src/queue.c **** 
 661:lib/freertos/src/queue.c **** 		return xReturn;
 662:lib/freertos/src/queue.c **** 	}
 663:lib/freertos/src/queue.c **** 
 664:lib/freertos/src/queue.c **** #endif /* configUSE_RECURSIVE_MUTEXES */
 665:lib/freertos/src/queue.c **** /*-----------------------------------------------------------*/
 666:lib/freertos/src/queue.c **** 
 667:lib/freertos/src/queue.c **** #if( ( configUSE_COUNTING_SEMAPHORES == 1 ) && ( configSUPPORT_STATIC_ALLOCATION == 1 ) )
 668:lib/freertos/src/queue.c **** 
 669:lib/freertos/src/queue.c **** 	QueueHandle_t xQueueCreateCountingSemaphoreStatic( const UBaseType_t uxMaxCount, const UBaseType_t
 670:lib/freertos/src/queue.c **** 	{
 671:lib/freertos/src/queue.c **** 	QueueHandle_t xHandle;
GAS LISTING C:\Users\kasie\AppData\Local\Temp\ccBtjLu5.s 			page 13


 672:lib/freertos/src/queue.c **** 
 673:lib/freertos/src/queue.c **** 		configASSERT( uxMaxCount != 0 );
 674:lib/freertos/src/queue.c **** 		configASSERT( uxInitialCount <= uxMaxCount );
 675:lib/freertos/src/queue.c **** 
 676:lib/freertos/src/queue.c **** 		xHandle = xQueueGenericCreateStatic( uxMaxCount, queueSEMAPHORE_QUEUE_ITEM_LENGTH, NULL, pxStatic
 677:lib/freertos/src/queue.c **** 
 678:lib/freertos/src/queue.c **** 		if( xHandle != NULL )
 679:lib/freertos/src/queue.c **** 		{
 680:lib/freertos/src/queue.c **** 			( ( Queue_t * ) xHandle )->uxMessagesWaiting = uxInitialCount;
 681:lib/freertos/src/queue.c **** 
 682:lib/freertos/src/queue.c **** 			traceCREATE_COUNTING_SEMAPHORE();
 683:lib/freertos/src/queue.c **** 		}
 684:lib/freertos/src/queue.c **** 		else
 685:lib/freertos/src/queue.c **** 		{
 686:lib/freertos/src/queue.c **** 			traceCREATE_COUNTING_SEMAPHORE_FAILED();
 687:lib/freertos/src/queue.c **** 		}
 688:lib/freertos/src/queue.c **** 
 689:lib/freertos/src/queue.c **** 		return xHandle;
 690:lib/freertos/src/queue.c **** 	}
 691:lib/freertos/src/queue.c **** 
 692:lib/freertos/src/queue.c **** #endif /* ( ( configUSE_COUNTING_SEMAPHORES == 1 ) && ( configSUPPORT_DYNAMIC_ALLOCATION == 1 ) ) *
 693:lib/freertos/src/queue.c **** /*-----------------------------------------------------------*/
 694:lib/freertos/src/queue.c **** 
 695:lib/freertos/src/queue.c **** #if( ( configUSE_COUNTING_SEMAPHORES == 1 ) && ( configSUPPORT_DYNAMIC_ALLOCATION == 1 ) )
 696:lib/freertos/src/queue.c **** 
 697:lib/freertos/src/queue.c **** 	QueueHandle_t xQueueCreateCountingSemaphore( const UBaseType_t uxMaxCount, const UBaseType_t uxIni
 698:lib/freertos/src/queue.c **** 	{
 699:lib/freertos/src/queue.c **** 	QueueHandle_t xHandle;
 700:lib/freertos/src/queue.c **** 
 701:lib/freertos/src/queue.c **** 		configASSERT( uxMaxCount != 0 );
 702:lib/freertos/src/queue.c **** 		configASSERT( uxInitialCount <= uxMaxCount );
 703:lib/freertos/src/queue.c **** 
 704:lib/freertos/src/queue.c **** 		xHandle = xQueueGenericCreate( uxMaxCount, queueSEMAPHORE_QUEUE_ITEM_LENGTH, queueQUEUE_TYPE_COUN
 705:lib/freertos/src/queue.c **** 
 706:lib/freertos/src/queue.c **** 		if( xHandle != NULL )
 707:lib/freertos/src/queue.c **** 		{
 708:lib/freertos/src/queue.c **** 			( ( Queue_t * ) xHandle )->uxMessagesWaiting = uxInitialCount;
 709:lib/freertos/src/queue.c **** 
 710:lib/freertos/src/queue.c **** 			traceCREATE_COUNTING_SEMAPHORE();
 711:lib/freertos/src/queue.c **** 		}
 712:lib/freertos/src/queue.c **** 		else
 713:lib/freertos/src/queue.c **** 		{
 714:lib/freertos/src/queue.c **** 			traceCREATE_COUNTING_SEMAPHORE_FAILED();
 715:lib/freertos/src/queue.c **** 		}
 716:lib/freertos/src/queue.c **** 
 717:lib/freertos/src/queue.c **** 		return xHandle;
 718:lib/freertos/src/queue.c **** 	}
 719:lib/freertos/src/queue.c **** 
 720:lib/freertos/src/queue.c **** #endif /* ( ( configUSE_COUNTING_SEMAPHORES == 1 ) && ( configSUPPORT_DYNAMIC_ALLOCATION == 1 ) ) *
 721:lib/freertos/src/queue.c **** /*-----------------------------------------------------------*/
 722:lib/freertos/src/queue.c **** 
 723:lib/freertos/src/queue.c **** BaseType_t xQueueGenericSend( QueueHandle_t xQueue, const void * const pvItemToQueue, TickType_t xT
 724:lib/freertos/src/queue.c **** {
 725:lib/freertos/src/queue.c **** BaseType_t xEntryTimeSet = pdFALSE, xYieldRequired;
 726:lib/freertos/src/queue.c **** TimeOut_t xTimeOut;
 727:lib/freertos/src/queue.c **** Queue_t * const pxQueue = ( Queue_t * ) xQueue;
 728:lib/freertos/src/queue.c **** 
GAS LISTING C:\Users\kasie\AppData\Local\Temp\ccBtjLu5.s 			page 14


 729:lib/freertos/src/queue.c **** 	configASSERT( pxQueue );
 730:lib/freertos/src/queue.c **** 	configASSERT( !( ( pvItemToQueue == NULL ) && ( pxQueue->uxItemSize != ( UBaseType_t ) 0U ) ) );
 731:lib/freertos/src/queue.c **** 	configASSERT( !( ( xCopyPosition == queueOVERWRITE ) && ( pxQueue->uxLength != 1 ) ) );
 732:lib/freertos/src/queue.c **** 	#if ( ( INCLUDE_xTaskGetSchedulerState == 1 ) || ( configUSE_TIMERS == 1 ) )
 733:lib/freertos/src/queue.c **** 	{
 734:lib/freertos/src/queue.c **** 		configASSERT( !( ( xTaskGetSchedulerState() == taskSCHEDULER_SUSPENDED ) && ( xTicksToWait != 0 )
 735:lib/freertos/src/queue.c **** 	}
 736:lib/freertos/src/queue.c **** 	#endif
 737:lib/freertos/src/queue.c **** 
 738:lib/freertos/src/queue.c **** 
 739:lib/freertos/src/queue.c **** 	/* This function relaxes the coding standard somewhat to allow return
 740:lib/freertos/src/queue.c **** 	statements within the function itself.  This is done in the interest
 741:lib/freertos/src/queue.c **** 	of execution time efficiency. */
 742:lib/freertos/src/queue.c **** 	for( ;; )
 743:lib/freertos/src/queue.c **** 	{
 744:lib/freertos/src/queue.c **** 		taskENTER_CRITICAL();
 745:lib/freertos/src/queue.c **** 		{
 746:lib/freertos/src/queue.c **** 			/* Is there room on the queue now?  The running task must be the
 747:lib/freertos/src/queue.c **** 			highest priority task wanting to access the queue.  If the head item
 748:lib/freertos/src/queue.c **** 			in the queue is to be overwritten then it does not matter if the
 749:lib/freertos/src/queue.c **** 			queue is full. */
 750:lib/freertos/src/queue.c **** 			if( ( pxQueue->uxMessagesWaiting < pxQueue->uxLength ) || ( xCopyPosition == queueOVERWRITE ) )
 751:lib/freertos/src/queue.c **** 			{
 752:lib/freertos/src/queue.c **** 				traceQUEUE_SEND( pxQueue );
 753:lib/freertos/src/queue.c **** 				xYieldRequired = prvCopyDataToQueue( pxQueue, pvItemToQueue, xCopyPosition );
 754:lib/freertos/src/queue.c **** 
 755:lib/freertos/src/queue.c **** 				#if ( configUSE_QUEUE_SETS == 1 )
 756:lib/freertos/src/queue.c **** 				{
 757:lib/freertos/src/queue.c **** 					if( pxQueue->pxQueueSetContainer != NULL )
 758:lib/freertos/src/queue.c **** 					{
 759:lib/freertos/src/queue.c **** 						if( prvNotifyQueueSetContainer( pxQueue, xCopyPosition ) != pdFALSE )
 760:lib/freertos/src/queue.c **** 						{
 761:lib/freertos/src/queue.c **** 							/* The queue is a member of a queue set, and posting
 762:lib/freertos/src/queue.c **** 							to the queue set caused a higher priority task to
 763:lib/freertos/src/queue.c **** 							unblock. A context switch is required. */
 764:lib/freertos/src/queue.c **** 							queueYIELD_IF_USING_PREEMPTION();
 765:lib/freertos/src/queue.c **** 						}
 766:lib/freertos/src/queue.c **** 						else
 767:lib/freertos/src/queue.c **** 						{
 768:lib/freertos/src/queue.c **** 							mtCOVERAGE_TEST_MARKER();
 769:lib/freertos/src/queue.c **** 						}
 770:lib/freertos/src/queue.c **** 					}
 771:lib/freertos/src/queue.c **** 					else
 772:lib/freertos/src/queue.c **** 					{
 773:lib/freertos/src/queue.c **** 						/* If there was a task waiting for data to arrive on the
 774:lib/freertos/src/queue.c **** 						queue then unblock it now. */
 775:lib/freertos/src/queue.c **** 						if( listLIST_IS_EMPTY( &( pxQueue->xTasksWaitingToReceive ) ) == pdFALSE )
 776:lib/freertos/src/queue.c **** 						{
 777:lib/freertos/src/queue.c **** 							if( xTaskRemoveFromEventList( &( pxQueue->xTasksWaitingToReceive ) ) != pdFALSE )
 778:lib/freertos/src/queue.c **** 							{
 779:lib/freertos/src/queue.c **** 								/* The unblocked task has a priority higher than
 780:lib/freertos/src/queue.c **** 								our own so yield immediately.  Yes it is ok to
 781:lib/freertos/src/queue.c **** 								do this from within the critical section - the
 782:lib/freertos/src/queue.c **** 								kernel takes care of that. */
 783:lib/freertos/src/queue.c **** 								queueYIELD_IF_USING_PREEMPTION();
 784:lib/freertos/src/queue.c **** 							}
 785:lib/freertos/src/queue.c **** 							else
GAS LISTING C:\Users\kasie\AppData\Local\Temp\ccBtjLu5.s 			page 15


 786:lib/freertos/src/queue.c **** 							{
 787:lib/freertos/src/queue.c **** 								mtCOVERAGE_TEST_MARKER();
 788:lib/freertos/src/queue.c **** 							}
 789:lib/freertos/src/queue.c **** 						}
 790:lib/freertos/src/queue.c **** 						else if( xYieldRequired != pdFALSE )
 791:lib/freertos/src/queue.c **** 						{
 792:lib/freertos/src/queue.c **** 							/* This path is a special case that will only get
 793:lib/freertos/src/queue.c **** 							executed if the task was holding multiple mutexes
 794:lib/freertos/src/queue.c **** 							and the mutexes were given back in an order that is
 795:lib/freertos/src/queue.c **** 							different to that in which they were taken. */
 796:lib/freertos/src/queue.c **** 							queueYIELD_IF_USING_PREEMPTION();
 797:lib/freertos/src/queue.c **** 						}
 798:lib/freertos/src/queue.c **** 						else
 799:lib/freertos/src/queue.c **** 						{
 800:lib/freertos/src/queue.c **** 							mtCOVERAGE_TEST_MARKER();
 801:lib/freertos/src/queue.c **** 						}
 802:lib/freertos/src/queue.c **** 					}
 803:lib/freertos/src/queue.c **** 				}
 804:lib/freertos/src/queue.c **** 				#else /* configUSE_QUEUE_SETS */
 805:lib/freertos/src/queue.c **** 				{
 806:lib/freertos/src/queue.c **** 					/* If there was a task waiting for data to arrive on the
 807:lib/freertos/src/queue.c **** 					queue then unblock it now. */
 808:lib/freertos/src/queue.c **** 					if( listLIST_IS_EMPTY( &( pxQueue->xTasksWaitingToReceive ) ) == pdFALSE )
 809:lib/freertos/src/queue.c **** 					{
 810:lib/freertos/src/queue.c **** 						if( xTaskRemoveFromEventList( &( pxQueue->xTasksWaitingToReceive ) ) != pdFALSE )
 811:lib/freertos/src/queue.c **** 						{
 812:lib/freertos/src/queue.c **** 							/* The unblocked task has a priority higher than
 813:lib/freertos/src/queue.c **** 							our own so yield immediately.  Yes it is ok to do
 814:lib/freertos/src/queue.c **** 							this from within the critical section - the kernel
 815:lib/freertos/src/queue.c **** 							takes care of that. */
 816:lib/freertos/src/queue.c **** 							queueYIELD_IF_USING_PREEMPTION();
 817:lib/freertos/src/queue.c **** 						}
 818:lib/freertos/src/queue.c **** 						else
 819:lib/freertos/src/queue.c **** 						{
 820:lib/freertos/src/queue.c **** 							mtCOVERAGE_TEST_MARKER();
 821:lib/freertos/src/queue.c **** 						}
 822:lib/freertos/src/queue.c **** 					}
 823:lib/freertos/src/queue.c **** 					else if( xYieldRequired != pdFALSE )
 824:lib/freertos/src/queue.c **** 					{
 825:lib/freertos/src/queue.c **** 						/* This path is a special case that will only get
 826:lib/freertos/src/queue.c **** 						executed if the task was holding multiple mutexes and
 827:lib/freertos/src/queue.c **** 						the mutexes were given back in an order that is
 828:lib/freertos/src/queue.c **** 						different to that in which they were taken. */
 829:lib/freertos/src/queue.c **** 						queueYIELD_IF_USING_PREEMPTION();
 830:lib/freertos/src/queue.c **** 					}
 831:lib/freertos/src/queue.c **** 					else
 832:lib/freertos/src/queue.c **** 					{
 833:lib/freertos/src/queue.c **** 						mtCOVERAGE_TEST_MARKER();
 834:lib/freertos/src/queue.c **** 					}
 835:lib/freertos/src/queue.c **** 				}
 836:lib/freertos/src/queue.c **** 				#endif /* configUSE_QUEUE_SETS */
 837:lib/freertos/src/queue.c **** 
 838:lib/freertos/src/queue.c **** 				taskEXIT_CRITICAL();
 839:lib/freertos/src/queue.c **** 				return pdPASS;
 840:lib/freertos/src/queue.c **** 			}
 841:lib/freertos/src/queue.c **** 			else
 842:lib/freertos/src/queue.c **** 			{
GAS LISTING C:\Users\kasie\AppData\Local\Temp\ccBtjLu5.s 			page 16


 843:lib/freertos/src/queue.c **** 				if( xTicksToWait == ( TickType_t ) 0 )
 844:lib/freertos/src/queue.c **** 				{
 845:lib/freertos/src/queue.c **** 					/* The queue was full and no block time is specified (or
 846:lib/freertos/src/queue.c **** 					the block time has expired) so leave now. */
 847:lib/freertos/src/queue.c **** 					taskEXIT_CRITICAL();
 848:lib/freertos/src/queue.c **** 
 849:lib/freertos/src/queue.c **** 					/* Return to the original privilege level before exiting
 850:lib/freertos/src/queue.c **** 					the function. */
 851:lib/freertos/src/queue.c **** 					traceQUEUE_SEND_FAILED( pxQueue );
 852:lib/freertos/src/queue.c **** 					return errQUEUE_FULL;
 853:lib/freertos/src/queue.c **** 				}
 854:lib/freertos/src/queue.c **** 				else if( xEntryTimeSet == pdFALSE )
 855:lib/freertos/src/queue.c **** 				{
 856:lib/freertos/src/queue.c **** 					/* The queue was full and a block time was specified so
 857:lib/freertos/src/queue.c **** 					configure the timeout structure. */
 858:lib/freertos/src/queue.c **** 					vTaskSetTimeOutState( &xTimeOut );
 859:lib/freertos/src/queue.c **** 					xEntryTimeSet = pdTRUE;
 860:lib/freertos/src/queue.c **** 				}
 861:lib/freertos/src/queue.c **** 				else
 862:lib/freertos/src/queue.c **** 				{
 863:lib/freertos/src/queue.c **** 					/* Entry time was already set. */
 864:lib/freertos/src/queue.c **** 					mtCOVERAGE_TEST_MARKER();
 865:lib/freertos/src/queue.c **** 				}
 866:lib/freertos/src/queue.c **** 			}
 867:lib/freertos/src/queue.c **** 		}
 868:lib/freertos/src/queue.c **** 		taskEXIT_CRITICAL();
 869:lib/freertos/src/queue.c **** 
 870:lib/freertos/src/queue.c **** 		/* Interrupts and other tasks can send to and receive from the queue
 871:lib/freertos/src/queue.c **** 		now the critical section has been exited. */
 872:lib/freertos/src/queue.c **** 
 873:lib/freertos/src/queue.c **** 		vTaskSuspendAll();
 874:lib/freertos/src/queue.c **** 		prvLockQueue( pxQueue );
 875:lib/freertos/src/queue.c **** 
 876:lib/freertos/src/queue.c **** 		/* Update the timeout state to see if it has expired yet. */
 877:lib/freertos/src/queue.c **** 		if( xTaskCheckForTimeOut( &xTimeOut, &xTicksToWait ) == pdFALSE )
 878:lib/freertos/src/queue.c **** 		{
 879:lib/freertos/src/queue.c **** 			if( prvIsQueueFull( pxQueue ) != pdFALSE )
 880:lib/freertos/src/queue.c **** 			{
 881:lib/freertos/src/queue.c **** 				traceBLOCKING_ON_QUEUE_SEND( pxQueue );
 882:lib/freertos/src/queue.c **** 				vTaskPlaceOnEventList( &( pxQueue->xTasksWaitingToSend ), xTicksToWait );
 883:lib/freertos/src/queue.c **** 
 884:lib/freertos/src/queue.c **** 				/* Unlocking the queue means queue events can effect the
 885:lib/freertos/src/queue.c **** 				event list.  It is possible	that interrupts occurring now
 886:lib/freertos/src/queue.c **** 				remove this task from the event	list again - but as the
 887:lib/freertos/src/queue.c **** 				scheduler is suspended the task will go onto the pending
 888:lib/freertos/src/queue.c **** 				ready last instead of the actual ready list. */
 889:lib/freertos/src/queue.c **** 				prvUnlockQueue( pxQueue );
 890:lib/freertos/src/queue.c **** 
 891:lib/freertos/src/queue.c **** 				/* Resuming the scheduler will move tasks from the pending
 892:lib/freertos/src/queue.c **** 				ready list into the ready list - so it is feasible that this
 893:lib/freertos/src/queue.c **** 				task is already in a ready list before it yields - in which
 894:lib/freertos/src/queue.c **** 				case the yield will not cause a context switch unless there
 895:lib/freertos/src/queue.c **** 				is also a higher priority task in the pending ready list. */
 896:lib/freertos/src/queue.c **** 				if( xTaskResumeAll() == pdFALSE )
 897:lib/freertos/src/queue.c **** 				{
 898:lib/freertos/src/queue.c **** 					portYIELD_WITHIN_API();
 899:lib/freertos/src/queue.c **** 				}
GAS LISTING C:\Users\kasie\AppData\Local\Temp\ccBtjLu5.s 			page 17


 900:lib/freertos/src/queue.c **** 			}
 901:lib/freertos/src/queue.c **** 			else
 902:lib/freertos/src/queue.c **** 			{
 903:lib/freertos/src/queue.c **** 				/* Try again. */
 904:lib/freertos/src/queue.c **** 				prvUnlockQueue( pxQueue );
 905:lib/freertos/src/queue.c **** 				( void ) xTaskResumeAll();
 906:lib/freertos/src/queue.c **** 			}
 907:lib/freertos/src/queue.c **** 		}
 908:lib/freertos/src/queue.c **** 		else
 909:lib/freertos/src/queue.c **** 		{
 910:lib/freertos/src/queue.c **** 			/* The timeout has expired. */
 911:lib/freertos/src/queue.c **** 			prvUnlockQueue( pxQueue );
 912:lib/freertos/src/queue.c **** 			( void ) xTaskResumeAll();
 913:lib/freertos/src/queue.c **** 
 914:lib/freertos/src/queue.c **** 			traceQUEUE_SEND_FAILED( pxQueue );
 915:lib/freertos/src/queue.c **** 			return errQUEUE_FULL;
 916:lib/freertos/src/queue.c **** 		}
 917:lib/freertos/src/queue.c **** 	}
 918:lib/freertos/src/queue.c **** }
 919:lib/freertos/src/queue.c **** /*-----------------------------------------------------------*/
 920:lib/freertos/src/queue.c **** 
 921:lib/freertos/src/queue.c **** BaseType_t xQueueGenericSendFromISR( QueueHandle_t xQueue, const void * const pvItemToQueue, BaseTy
 922:lib/freertos/src/queue.c **** {
 923:lib/freertos/src/queue.c **** BaseType_t xReturn;
 924:lib/freertos/src/queue.c **** UBaseType_t uxSavedInterruptStatus;
 925:lib/freertos/src/queue.c **** Queue_t * const pxQueue = ( Queue_t * ) xQueue;
 926:lib/freertos/src/queue.c **** 
 927:lib/freertos/src/queue.c **** 	configASSERT( pxQueue );
 928:lib/freertos/src/queue.c **** 	configASSERT( !( ( pvItemToQueue == NULL ) && ( pxQueue->uxItemSize != ( UBaseType_t ) 0U ) ) );
 929:lib/freertos/src/queue.c **** 	configASSERT( !( ( xCopyPosition == queueOVERWRITE ) && ( pxQueue->uxLength != 1 ) ) );
 930:lib/freertos/src/queue.c **** 
 931:lib/freertos/src/queue.c **** 	/* RTOS ports that support interrupt nesting have the concept of a maximum
 932:lib/freertos/src/queue.c **** 	system call (or maximum API call) interrupt priority.  Interrupts that are
 933:lib/freertos/src/queue.c **** 	above the maximum system call priority are kept permanently enabled, even
 934:lib/freertos/src/queue.c **** 	when the RTOS kernel is in a critical section, but cannot make any calls to
 935:lib/freertos/src/queue.c **** 	FreeRTOS API functions.  If configASSERT() is defined in FreeRTOSConfig.h
 936:lib/freertos/src/queue.c **** 	then portASSERT_IF_INTERRUPT_PRIORITY_INVALID() will result in an assertion
 937:lib/freertos/src/queue.c **** 	failure if a FreeRTOS API function is called from an interrupt that has been
 938:lib/freertos/src/queue.c **** 	assigned a priority above the configured maximum system call priority.
 939:lib/freertos/src/queue.c **** 	Only FreeRTOS functions that end in FromISR can be called from interrupts
 940:lib/freertos/src/queue.c **** 	that have been assigned a priority at or (logically) below the maximum
 941:lib/freertos/src/queue.c **** 	system call	interrupt priority.  FreeRTOS maintains a separate interrupt
 942:lib/freertos/src/queue.c **** 	safe API to ensure interrupt entry is as fast and as simple as possible.
 943:lib/freertos/src/queue.c **** 	More information (albeit Cortex-M specific) is provided on the following
 944:lib/freertos/src/queue.c **** 	link: http://www.freertos.org/RTOS-Cortex-M3-M4.html */
 945:lib/freertos/src/queue.c **** 	portASSERT_IF_INTERRUPT_PRIORITY_INVALID();
 946:lib/freertos/src/queue.c **** 
 947:lib/freertos/src/queue.c **** 	/* Similar to xQueueGenericSend, except without blocking if there is no room
 948:lib/freertos/src/queue.c **** 	in the queue.  Also don't directly wake a task that was blocked on a queue
 949:lib/freertos/src/queue.c **** 	read, instead return a flag to say whether a context switch is required or
 950:lib/freertos/src/queue.c **** 	not (i.e. has a task with a higher priority than us been woken by this
 951:lib/freertos/src/queue.c **** 	post). */
 952:lib/freertos/src/queue.c **** 	uxSavedInterruptStatus = portSET_INTERRUPT_MASK_FROM_ISR();
 953:lib/freertos/src/queue.c **** 	{
 954:lib/freertos/src/queue.c **** 		if( ( pxQueue->uxMessagesWaiting < pxQueue->uxLength ) || ( xCopyPosition == queueOVERWRITE ) )
 955:lib/freertos/src/queue.c **** 		{
 956:lib/freertos/src/queue.c **** 			const int8_t cTxLock = pxQueue->cTxLock;
GAS LISTING C:\Users\kasie\AppData\Local\Temp\ccBtjLu5.s 			page 18


 957:lib/freertos/src/queue.c **** 
 958:lib/freertos/src/queue.c **** 			traceQUEUE_SEND_FROM_ISR( pxQueue );
 959:lib/freertos/src/queue.c **** 
 960:lib/freertos/src/queue.c **** 			/* Semaphores use xQueueGiveFromISR(), so pxQueue will not be a
 961:lib/freertos/src/queue.c **** 			semaphore or mutex.  That means prvCopyDataToQueue() cannot result
 962:lib/freertos/src/queue.c **** 			in a task disinheriting a priority and prvCopyDataToQueue() can be
 963:lib/freertos/src/queue.c **** 			called here even though the disinherit function does not check if
 964:lib/freertos/src/queue.c **** 			the scheduler is suspended before accessing the ready lists. */
 965:lib/freertos/src/queue.c **** 			( void ) prvCopyDataToQueue( pxQueue, pvItemToQueue, xCopyPosition );
 966:lib/freertos/src/queue.c **** 
 967:lib/freertos/src/queue.c **** 			/* The event list is not altered if the queue is locked.  This will
 968:lib/freertos/src/queue.c **** 			be done when the queue is unlocked later. */
 969:lib/freertos/src/queue.c **** 			if( cTxLock == queueUNLOCKED )
 970:lib/freertos/src/queue.c **** 			{
 971:lib/freertos/src/queue.c **** 				#if ( configUSE_QUEUE_SETS == 1 )
 972:lib/freertos/src/queue.c **** 				{
 973:lib/freertos/src/queue.c **** 					if( pxQueue->pxQueueSetContainer != NULL )
 974:lib/freertos/src/queue.c **** 					{
 975:lib/freertos/src/queue.c **** 						if( prvNotifyQueueSetContainer( pxQueue, xCopyPosition ) != pdFALSE )
 976:lib/freertos/src/queue.c **** 						{
 977:lib/freertos/src/queue.c **** 							/* The queue is a member of a queue set, and posting
 978:lib/freertos/src/queue.c **** 							to the queue set caused a higher priority task to
 979:lib/freertos/src/queue.c **** 							unblock.  A context switch is required. */
 980:lib/freertos/src/queue.c **** 							if( pxHigherPriorityTaskWoken != NULL )
 981:lib/freertos/src/queue.c **** 							{
 982:lib/freertos/src/queue.c **** 								*pxHigherPriorityTaskWoken = pdTRUE;
 983:lib/freertos/src/queue.c **** 							}
 984:lib/freertos/src/queue.c **** 							else
 985:lib/freertos/src/queue.c **** 							{
 986:lib/freertos/src/queue.c **** 								mtCOVERAGE_TEST_MARKER();
 987:lib/freertos/src/queue.c **** 							}
 988:lib/freertos/src/queue.c **** 						}
 989:lib/freertos/src/queue.c **** 						else
 990:lib/freertos/src/queue.c **** 						{
 991:lib/freertos/src/queue.c **** 							mtCOVERAGE_TEST_MARKER();
 992:lib/freertos/src/queue.c **** 						}
 993:lib/freertos/src/queue.c **** 					}
 994:lib/freertos/src/queue.c **** 					else
 995:lib/freertos/src/queue.c **** 					{
 996:lib/freertos/src/queue.c **** 						if( listLIST_IS_EMPTY( &( pxQueue->xTasksWaitingToReceive ) ) == pdFALSE )
 997:lib/freertos/src/queue.c **** 						{
 998:lib/freertos/src/queue.c **** 							if( xTaskRemoveFromEventList( &( pxQueue->xTasksWaitingToReceive ) ) != pdFALSE )
 999:lib/freertos/src/queue.c **** 							{
1000:lib/freertos/src/queue.c **** 								/* The task waiting has a higher priority so
1001:lib/freertos/src/queue.c **** 								record that a context switch is required. */
1002:lib/freertos/src/queue.c **** 								if( pxHigherPriorityTaskWoken != NULL )
1003:lib/freertos/src/queue.c **** 								{
1004:lib/freertos/src/queue.c **** 									*pxHigherPriorityTaskWoken = pdTRUE;
1005:lib/freertos/src/queue.c **** 								}
1006:lib/freertos/src/queue.c **** 								else
1007:lib/freertos/src/queue.c **** 								{
1008:lib/freertos/src/queue.c **** 									mtCOVERAGE_TEST_MARKER();
1009:lib/freertos/src/queue.c **** 								}
1010:lib/freertos/src/queue.c **** 							}
1011:lib/freertos/src/queue.c **** 							else
1012:lib/freertos/src/queue.c **** 							{
1013:lib/freertos/src/queue.c **** 								mtCOVERAGE_TEST_MARKER();
GAS LISTING C:\Users\kasie\AppData\Local\Temp\ccBtjLu5.s 			page 19


1014:lib/freertos/src/queue.c **** 							}
1015:lib/freertos/src/queue.c **** 						}
1016:lib/freertos/src/queue.c **** 						else
1017:lib/freertos/src/queue.c **** 						{
1018:lib/freertos/src/queue.c **** 							mtCOVERAGE_TEST_MARKER();
1019:lib/freertos/src/queue.c **** 						}
1020:lib/freertos/src/queue.c **** 					}
1021:lib/freertos/src/queue.c **** 				}
1022:lib/freertos/src/queue.c **** 				#else /* configUSE_QUEUE_SETS */
1023:lib/freertos/src/queue.c **** 				{
1024:lib/freertos/src/queue.c **** 					if( listLIST_IS_EMPTY( &( pxQueue->xTasksWaitingToReceive ) ) == pdFALSE )
1025:lib/freertos/src/queue.c **** 					{
1026:lib/freertos/src/queue.c **** 						if( xTaskRemoveFromEventList( &( pxQueue->xTasksWaitingToReceive ) ) != pdFALSE )
1027:lib/freertos/src/queue.c **** 						{
1028:lib/freertos/src/queue.c **** 							/* The task waiting has a higher priority so record that a
1029:lib/freertos/src/queue.c **** 							context	switch is required. */
1030:lib/freertos/src/queue.c **** 							if( pxHigherPriorityTaskWoken != NULL )
1031:lib/freertos/src/queue.c **** 							{
1032:lib/freertos/src/queue.c **** 								*pxHigherPriorityTaskWoken = pdTRUE;
1033:lib/freertos/src/queue.c **** 							}
1034:lib/freertos/src/queue.c **** 							else
1035:lib/freertos/src/queue.c **** 							{
1036:lib/freertos/src/queue.c **** 								mtCOVERAGE_TEST_MARKER();
1037:lib/freertos/src/queue.c **** 							}
1038:lib/freertos/src/queue.c **** 						}
1039:lib/freertos/src/queue.c **** 						else
1040:lib/freertos/src/queue.c **** 						{
1041:lib/freertos/src/queue.c **** 							mtCOVERAGE_TEST_MARKER();
1042:lib/freertos/src/queue.c **** 						}
1043:lib/freertos/src/queue.c **** 					}
1044:lib/freertos/src/queue.c **** 					else
1045:lib/freertos/src/queue.c **** 					{
1046:lib/freertos/src/queue.c **** 						mtCOVERAGE_TEST_MARKER();
1047:lib/freertos/src/queue.c **** 					}
1048:lib/freertos/src/queue.c **** 				}
1049:lib/freertos/src/queue.c **** 				#endif /* configUSE_QUEUE_SETS */
1050:lib/freertos/src/queue.c **** 			}
1051:lib/freertos/src/queue.c **** 			else
1052:lib/freertos/src/queue.c **** 			{
1053:lib/freertos/src/queue.c **** 				/* Increment the lock count so the task that unlocks the queue
1054:lib/freertos/src/queue.c **** 				knows that data was posted while it was locked. */
1055:lib/freertos/src/queue.c **** 				pxQueue->cTxLock = ( int8_t ) ( cTxLock + 1 );
1056:lib/freertos/src/queue.c **** 			}
1057:lib/freertos/src/queue.c **** 
1058:lib/freertos/src/queue.c **** 			xReturn = pdPASS;
1059:lib/freertos/src/queue.c **** 		}
1060:lib/freertos/src/queue.c **** 		else
1061:lib/freertos/src/queue.c **** 		{
1062:lib/freertos/src/queue.c **** 			traceQUEUE_SEND_FROM_ISR_FAILED( pxQueue );
1063:lib/freertos/src/queue.c **** 			xReturn = errQUEUE_FULL;
1064:lib/freertos/src/queue.c **** 		}
1065:lib/freertos/src/queue.c **** 	}
1066:lib/freertos/src/queue.c **** 	portCLEAR_INTERRUPT_MASK_FROM_ISR( uxSavedInterruptStatus );
1067:lib/freertos/src/queue.c **** 
1068:lib/freertos/src/queue.c **** 	return xReturn;
1069:lib/freertos/src/queue.c **** }
1070:lib/freertos/src/queue.c **** /*-----------------------------------------------------------*/
GAS LISTING C:\Users\kasie\AppData\Local\Temp\ccBtjLu5.s 			page 20


1071:lib/freertos/src/queue.c **** 
1072:lib/freertos/src/queue.c **** BaseType_t xQueueGiveFromISR( QueueHandle_t xQueue, BaseType_t * const pxHigherPriorityTaskWoken )
1073:lib/freertos/src/queue.c **** {
1074:lib/freertos/src/queue.c **** BaseType_t xReturn;
1075:lib/freertos/src/queue.c **** UBaseType_t uxSavedInterruptStatus;
1076:lib/freertos/src/queue.c **** Queue_t * const pxQueue = ( Queue_t * ) xQueue;
1077:lib/freertos/src/queue.c **** 
1078:lib/freertos/src/queue.c **** 	/* Similar to xQueueGenericSendFromISR() but used with semaphores where the
1079:lib/freertos/src/queue.c **** 	item size is 0.  Don't directly wake a task that was blocked on a queue
1080:lib/freertos/src/queue.c **** 	read, instead return a flag to say whether a context switch is required or
1081:lib/freertos/src/queue.c **** 	not (i.e. has a task with a higher priority than us been woken by this
1082:lib/freertos/src/queue.c **** 	post). */
1083:lib/freertos/src/queue.c **** 
1084:lib/freertos/src/queue.c **** 	configASSERT( pxQueue );
1085:lib/freertos/src/queue.c **** 
1086:lib/freertos/src/queue.c **** 	/* xQueueGenericSendFromISR() should be used instead of xQueueGiveFromISR()
1087:lib/freertos/src/queue.c **** 	if the item size is not 0. */
1088:lib/freertos/src/queue.c **** 	configASSERT( pxQueue->uxItemSize == 0 );
1089:lib/freertos/src/queue.c **** 
1090:lib/freertos/src/queue.c **** 	/* Normally a mutex would not be given from an interrupt, especially if
1091:lib/freertos/src/queue.c **** 	there is a mutex holder, as priority inheritance makes no sense for an
1092:lib/freertos/src/queue.c **** 	interrupts, only tasks. */
1093:lib/freertos/src/queue.c **** 	configASSERT( !( ( pxQueue->uxQueueType == queueQUEUE_IS_MUTEX ) && ( pxQueue->pxMutexHolder != NU
1094:lib/freertos/src/queue.c **** 
1095:lib/freertos/src/queue.c **** 	/* RTOS ports that support interrupt nesting have the concept of a maximum
1096:lib/freertos/src/queue.c **** 	system call (or maximum API call) interrupt priority.  Interrupts that are
1097:lib/freertos/src/queue.c **** 	above the maximum system call priority are kept permanently enabled, even
1098:lib/freertos/src/queue.c **** 	when the RTOS kernel is in a critical section, but cannot make any calls to
1099:lib/freertos/src/queue.c **** 	FreeRTOS API functions.  If configASSERT() is defined in FreeRTOSConfig.h
1100:lib/freertos/src/queue.c **** 	then portASSERT_IF_INTERRUPT_PRIORITY_INVALID() will result in an assertion
1101:lib/freertos/src/queue.c **** 	failure if a FreeRTOS API function is called from an interrupt that has been
1102:lib/freertos/src/queue.c **** 	assigned a priority above the configured maximum system call priority.
1103:lib/freertos/src/queue.c **** 	Only FreeRTOS functions that end in FromISR can be called from interrupts
1104:lib/freertos/src/queue.c **** 	that have been assigned a priority at or (logically) below the maximum
1105:lib/freertos/src/queue.c **** 	system call	interrupt priority.  FreeRTOS maintains a separate interrupt
1106:lib/freertos/src/queue.c **** 	safe API to ensure interrupt entry is as fast and as simple as possible.
1107:lib/freertos/src/queue.c **** 	More information (albeit Cortex-M specific) is provided on the following
1108:lib/freertos/src/queue.c **** 	link: http://www.freertos.org/RTOS-Cortex-M3-M4.html */
1109:lib/freertos/src/queue.c **** 	portASSERT_IF_INTERRUPT_PRIORITY_INVALID();
1110:lib/freertos/src/queue.c **** 
1111:lib/freertos/src/queue.c **** 	uxSavedInterruptStatus = portSET_INTERRUPT_MASK_FROM_ISR();
1112:lib/freertos/src/queue.c **** 	{
1113:lib/freertos/src/queue.c **** 		const UBaseType_t uxMessagesWaiting = pxQueue->uxMessagesWaiting;
1114:lib/freertos/src/queue.c **** 
1115:lib/freertos/src/queue.c **** 		/* When the queue is used to implement a semaphore no data is ever
1116:lib/freertos/src/queue.c **** 		moved through the queue but it is still valid to see if the queue 'has
1117:lib/freertos/src/queue.c **** 		space'. */
1118:lib/freertos/src/queue.c **** 		if( uxMessagesWaiting < pxQueue->uxLength )
1119:lib/freertos/src/queue.c **** 		{
1120:lib/freertos/src/queue.c **** 			const int8_t cTxLock = pxQueue->cTxLock;
1121:lib/freertos/src/queue.c **** 
1122:lib/freertos/src/queue.c **** 			traceQUEUE_SEND_FROM_ISR( pxQueue );
1123:lib/freertos/src/queue.c **** 
1124:lib/freertos/src/queue.c **** 			/* A task can only have an inherited priority if it is a mutex
1125:lib/freertos/src/queue.c **** 			holder - and if there is a mutex holder then the mutex cannot be
1126:lib/freertos/src/queue.c **** 			given from an ISR.  As this is the ISR version of the function it
1127:lib/freertos/src/queue.c **** 			can be assumed there is no mutex holder and no need to determine if
GAS LISTING C:\Users\kasie\AppData\Local\Temp\ccBtjLu5.s 			page 21


1128:lib/freertos/src/queue.c **** 			priority disinheritance is needed.  Simply increase the count of
1129:lib/freertos/src/queue.c **** 			messages (semaphores) available. */
1130:lib/freertos/src/queue.c **** 			pxQueue->uxMessagesWaiting = uxMessagesWaiting + 1;
1131:lib/freertos/src/queue.c **** 
1132:lib/freertos/src/queue.c **** 			/* The event list is not altered if the queue is locked.  This will
1133:lib/freertos/src/queue.c **** 			be done when the queue is unlocked later. */
1134:lib/freertos/src/queue.c **** 			if( cTxLock == queueUNLOCKED )
1135:lib/freertos/src/queue.c **** 			{
1136:lib/freertos/src/queue.c **** 				#if ( configUSE_QUEUE_SETS == 1 )
1137:lib/freertos/src/queue.c **** 				{
1138:lib/freertos/src/queue.c **** 					if( pxQueue->pxQueueSetContainer != NULL )
1139:lib/freertos/src/queue.c **** 					{
1140:lib/freertos/src/queue.c **** 						if( prvNotifyQueueSetContainer( pxQueue, queueSEND_TO_BACK ) != pdFALSE )
1141:lib/freertos/src/queue.c **** 						{
1142:lib/freertos/src/queue.c **** 							/* The semaphore is a member of a queue set, and
1143:lib/freertos/src/queue.c **** 							posting	to the queue set caused a higher priority
1144:lib/freertos/src/queue.c **** 							task to	unblock.  A context switch is required. */
1145:lib/freertos/src/queue.c **** 							if( pxHigherPriorityTaskWoken != NULL )
1146:lib/freertos/src/queue.c **** 							{
1147:lib/freertos/src/queue.c **** 								*pxHigherPriorityTaskWoken = pdTRUE;
1148:lib/freertos/src/queue.c **** 							}
1149:lib/freertos/src/queue.c **** 							else
1150:lib/freertos/src/queue.c **** 							{
1151:lib/freertos/src/queue.c **** 								mtCOVERAGE_TEST_MARKER();
1152:lib/freertos/src/queue.c **** 							}
1153:lib/freertos/src/queue.c **** 						}
1154:lib/freertos/src/queue.c **** 						else
1155:lib/freertos/src/queue.c **** 						{
1156:lib/freertos/src/queue.c **** 							mtCOVERAGE_TEST_MARKER();
1157:lib/freertos/src/queue.c **** 						}
1158:lib/freertos/src/queue.c **** 					}
1159:lib/freertos/src/queue.c **** 					else
1160:lib/freertos/src/queue.c **** 					{
1161:lib/freertos/src/queue.c **** 						if( listLIST_IS_EMPTY( &( pxQueue->xTasksWaitingToReceive ) ) == pdFALSE )
1162:lib/freertos/src/queue.c **** 						{
1163:lib/freertos/src/queue.c **** 							if( xTaskRemoveFromEventList( &( pxQueue->xTasksWaitingToReceive ) ) != pdFALSE )
1164:lib/freertos/src/queue.c **** 							{
1165:lib/freertos/src/queue.c **** 								/* The task waiting has a higher priority so
1166:lib/freertos/src/queue.c **** 								record that a context switch is required. */
1167:lib/freertos/src/queue.c **** 								if( pxHigherPriorityTaskWoken != NULL )
1168:lib/freertos/src/queue.c **** 								{
1169:lib/freertos/src/queue.c **** 									*pxHigherPriorityTaskWoken = pdTRUE;
1170:lib/freertos/src/queue.c **** 								}
1171:lib/freertos/src/queue.c **** 								else
1172:lib/freertos/src/queue.c **** 								{
1173:lib/freertos/src/queue.c **** 									mtCOVERAGE_TEST_MARKER();
1174:lib/freertos/src/queue.c **** 								}
1175:lib/freertos/src/queue.c **** 							}
1176:lib/freertos/src/queue.c **** 							else
1177:lib/freertos/src/queue.c **** 							{
1178:lib/freertos/src/queue.c **** 								mtCOVERAGE_TEST_MARKER();
1179:lib/freertos/src/queue.c **** 							}
1180:lib/freertos/src/queue.c **** 						}
1181:lib/freertos/src/queue.c **** 						else
1182:lib/freertos/src/queue.c **** 						{
1183:lib/freertos/src/queue.c **** 							mtCOVERAGE_TEST_MARKER();
1184:lib/freertos/src/queue.c **** 						}
GAS LISTING C:\Users\kasie\AppData\Local\Temp\ccBtjLu5.s 			page 22


1185:lib/freertos/src/queue.c **** 					}
1186:lib/freertos/src/queue.c **** 				}
1187:lib/freertos/src/queue.c **** 				#else /* configUSE_QUEUE_SETS */
1188:lib/freertos/src/queue.c **** 				{
1189:lib/freertos/src/queue.c **** 					if( listLIST_IS_EMPTY( &( pxQueue->xTasksWaitingToReceive ) ) == pdFALSE )
1190:lib/freertos/src/queue.c **** 					{
1191:lib/freertos/src/queue.c **** 						if( xTaskRemoveFromEventList( &( pxQueue->xTasksWaitingToReceive ) ) != pdFALSE )
1192:lib/freertos/src/queue.c **** 						{
1193:lib/freertos/src/queue.c **** 							/* The task waiting has a higher priority so record that a
1194:lib/freertos/src/queue.c **** 							context	switch is required. */
1195:lib/freertos/src/queue.c **** 							if( pxHigherPriorityTaskWoken != NULL )
1196:lib/freertos/src/queue.c **** 							{
1197:lib/freertos/src/queue.c **** 								*pxHigherPriorityTaskWoken = pdTRUE;
1198:lib/freertos/src/queue.c **** 							}
1199:lib/freertos/src/queue.c **** 							else
1200:lib/freertos/src/queue.c **** 							{
1201:lib/freertos/src/queue.c **** 								mtCOVERAGE_TEST_MARKER();
1202:lib/freertos/src/queue.c **** 							}
1203:lib/freertos/src/queue.c **** 						}
1204:lib/freertos/src/queue.c **** 						else
1205:lib/freertos/src/queue.c **** 						{
1206:lib/freertos/src/queue.c **** 							mtCOVERAGE_TEST_MARKER();
1207:lib/freertos/src/queue.c **** 						}
1208:lib/freertos/src/queue.c **** 					}
1209:lib/freertos/src/queue.c **** 					else
1210:lib/freertos/src/queue.c **** 					{
1211:lib/freertos/src/queue.c **** 						mtCOVERAGE_TEST_MARKER();
1212:lib/freertos/src/queue.c **** 					}
1213:lib/freertos/src/queue.c **** 				}
1214:lib/freertos/src/queue.c **** 				#endif /* configUSE_QUEUE_SETS */
1215:lib/freertos/src/queue.c **** 			}
1216:lib/freertos/src/queue.c **** 			else
1217:lib/freertos/src/queue.c **** 			{
1218:lib/freertos/src/queue.c **** 				/* Increment the lock count so the task that unlocks the queue
1219:lib/freertos/src/queue.c **** 				knows that data was posted while it was locked. */
1220:lib/freertos/src/queue.c **** 				pxQueue->cTxLock = ( int8_t ) ( cTxLock + 1 );
1221:lib/freertos/src/queue.c **** 			}
1222:lib/freertos/src/queue.c **** 
1223:lib/freertos/src/queue.c **** 			xReturn = pdPASS;
1224:lib/freertos/src/queue.c **** 		}
1225:lib/freertos/src/queue.c **** 		else
1226:lib/freertos/src/queue.c **** 		{
1227:lib/freertos/src/queue.c **** 			traceQUEUE_SEND_FROM_ISR_FAILED( pxQueue );
1228:lib/freertos/src/queue.c **** 			xReturn = errQUEUE_FULL;
1229:lib/freertos/src/queue.c **** 		}
1230:lib/freertos/src/queue.c **** 	}
1231:lib/freertos/src/queue.c **** 	portCLEAR_INTERRUPT_MASK_FROM_ISR( uxSavedInterruptStatus );
1232:lib/freertos/src/queue.c **** 
1233:lib/freertos/src/queue.c **** 	return xReturn;
1234:lib/freertos/src/queue.c **** }
1235:lib/freertos/src/queue.c **** /*-----------------------------------------------------------*/
1236:lib/freertos/src/queue.c **** 
1237:lib/freertos/src/queue.c **** BaseType_t xQueueGenericReceive( QueueHandle_t xQueue, void * const pvBuffer, TickType_t xTicksToWa
1238:lib/freertos/src/queue.c **** {
1239:lib/freertos/src/queue.c **** BaseType_t xEntryTimeSet = pdFALSE;
1240:lib/freertos/src/queue.c **** TimeOut_t xTimeOut;
1241:lib/freertos/src/queue.c **** int8_t *pcOriginalReadPosition;
GAS LISTING C:\Users\kasie\AppData\Local\Temp\ccBtjLu5.s 			page 23


1242:lib/freertos/src/queue.c **** Queue_t * const pxQueue = ( Queue_t * ) xQueue;
1243:lib/freertos/src/queue.c **** 
1244:lib/freertos/src/queue.c **** 	configASSERT( pxQueue );
1245:lib/freertos/src/queue.c **** 	configASSERT( !( ( pvBuffer == NULL ) && ( pxQueue->uxItemSize != ( UBaseType_t ) 0U ) ) );
1246:lib/freertos/src/queue.c **** 	#if ( ( INCLUDE_xTaskGetSchedulerState == 1 ) || ( configUSE_TIMERS == 1 ) )
1247:lib/freertos/src/queue.c **** 	{
1248:lib/freertos/src/queue.c **** 		configASSERT( !( ( xTaskGetSchedulerState() == taskSCHEDULER_SUSPENDED ) && ( xTicksToWait != 0 )
1249:lib/freertos/src/queue.c **** 	}
1250:lib/freertos/src/queue.c **** 	#endif
1251:lib/freertos/src/queue.c **** 
1252:lib/freertos/src/queue.c **** 	/* This function relaxes the coding standard somewhat to allow return
1253:lib/freertos/src/queue.c **** 	statements within the function itself.  This is done in the interest
1254:lib/freertos/src/queue.c **** 	of execution time efficiency. */
1255:lib/freertos/src/queue.c **** 
1256:lib/freertos/src/queue.c **** 	for( ;; )
1257:lib/freertos/src/queue.c **** 	{
1258:lib/freertos/src/queue.c **** 		taskENTER_CRITICAL();
1259:lib/freertos/src/queue.c **** 		{
1260:lib/freertos/src/queue.c **** 			const UBaseType_t uxMessagesWaiting = pxQueue->uxMessagesWaiting;
1261:lib/freertos/src/queue.c **** 
1262:lib/freertos/src/queue.c **** 			/* Is there data in the queue now?  To be running the calling task
1263:lib/freertos/src/queue.c **** 			must be the highest priority task wanting to access the queue. */
1264:lib/freertos/src/queue.c **** 			if( uxMessagesWaiting > ( UBaseType_t ) 0 )
1265:lib/freertos/src/queue.c **** 			{
1266:lib/freertos/src/queue.c **** 				/* Remember the read position in case the queue is only being
1267:lib/freertos/src/queue.c **** 				peeked. */
1268:lib/freertos/src/queue.c **** 				pcOriginalReadPosition = pxQueue->u.pcReadFrom;
1269:lib/freertos/src/queue.c **** 
1270:lib/freertos/src/queue.c **** 				prvCopyDataFromQueue( pxQueue, pvBuffer );
1271:lib/freertos/src/queue.c **** 
1272:lib/freertos/src/queue.c **** 				if( xJustPeeking == pdFALSE )
1273:lib/freertos/src/queue.c **** 				{
1274:lib/freertos/src/queue.c **** 					traceQUEUE_RECEIVE( pxQueue );
1275:lib/freertos/src/queue.c **** 
1276:lib/freertos/src/queue.c **** 					/* Actually removing data, not just peeking. */
1277:lib/freertos/src/queue.c **** 					pxQueue->uxMessagesWaiting = uxMessagesWaiting - 1;
1278:lib/freertos/src/queue.c **** 
1279:lib/freertos/src/queue.c **** 					#if ( configUSE_MUTEXES == 1 )
1280:lib/freertos/src/queue.c **** 					{
1281:lib/freertos/src/queue.c **** 						if( pxQueue->uxQueueType == queueQUEUE_IS_MUTEX )
1282:lib/freertos/src/queue.c **** 						{
1283:lib/freertos/src/queue.c **** 							/* Record the information required to implement
1284:lib/freertos/src/queue.c **** 							priority inheritance should it become necessary. */
1285:lib/freertos/src/queue.c **** 							pxQueue->pxMutexHolder = ( int8_t * ) pvTaskIncrementMutexHeldCount(); /*lint !e961 Cast is 
1286:lib/freertos/src/queue.c **** 						}
1287:lib/freertos/src/queue.c **** 						else
1288:lib/freertos/src/queue.c **** 						{
1289:lib/freertos/src/queue.c **** 							mtCOVERAGE_TEST_MARKER();
1290:lib/freertos/src/queue.c **** 						}
1291:lib/freertos/src/queue.c **** 					}
1292:lib/freertos/src/queue.c **** 					#endif /* configUSE_MUTEXES */
1293:lib/freertos/src/queue.c **** 
1294:lib/freertos/src/queue.c **** 					if( listLIST_IS_EMPTY( &( pxQueue->xTasksWaitingToSend ) ) == pdFALSE )
1295:lib/freertos/src/queue.c **** 					{
1296:lib/freertos/src/queue.c **** 						if( xTaskRemoveFromEventList( &( pxQueue->xTasksWaitingToSend ) ) != pdFALSE )
1297:lib/freertos/src/queue.c **** 						{
1298:lib/freertos/src/queue.c **** 							queueYIELD_IF_USING_PREEMPTION();
GAS LISTING C:\Users\kasie\AppData\Local\Temp\ccBtjLu5.s 			page 24


1299:lib/freertos/src/queue.c **** 						}
1300:lib/freertos/src/queue.c **** 						else
1301:lib/freertos/src/queue.c **** 						{
1302:lib/freertos/src/queue.c **** 							mtCOVERAGE_TEST_MARKER();
1303:lib/freertos/src/queue.c **** 						}
1304:lib/freertos/src/queue.c **** 					}
1305:lib/freertos/src/queue.c **** 					else
1306:lib/freertos/src/queue.c **** 					{
1307:lib/freertos/src/queue.c **** 						mtCOVERAGE_TEST_MARKER();
1308:lib/freertos/src/queue.c **** 					}
1309:lib/freertos/src/queue.c **** 				}
1310:lib/freertos/src/queue.c **** 				else
1311:lib/freertos/src/queue.c **** 				{
1312:lib/freertos/src/queue.c **** 					traceQUEUE_PEEK( pxQueue );
1313:lib/freertos/src/queue.c **** 
1314:lib/freertos/src/queue.c **** 					/* The data is not being removed, so reset the read
1315:lib/freertos/src/queue.c **** 					pointer. */
1316:lib/freertos/src/queue.c **** 					pxQueue->u.pcReadFrom = pcOriginalReadPosition;
1317:lib/freertos/src/queue.c **** 
1318:lib/freertos/src/queue.c **** 					/* The data is being left in the queue, so see if there are
1319:lib/freertos/src/queue.c **** 					any other tasks waiting for the data. */
1320:lib/freertos/src/queue.c **** 					if( listLIST_IS_EMPTY( &( pxQueue->xTasksWaitingToReceive ) ) == pdFALSE )
1321:lib/freertos/src/queue.c **** 					{
1322:lib/freertos/src/queue.c **** 						if( xTaskRemoveFromEventList( &( pxQueue->xTasksWaitingToReceive ) ) != pdFALSE )
1323:lib/freertos/src/queue.c **** 						{
1324:lib/freertos/src/queue.c **** 							/* The task waiting has a higher priority than this task. */
1325:lib/freertos/src/queue.c **** 							queueYIELD_IF_USING_PREEMPTION();
1326:lib/freertos/src/queue.c **** 						}
1327:lib/freertos/src/queue.c **** 						else
1328:lib/freertos/src/queue.c **** 						{
1329:lib/freertos/src/queue.c **** 							mtCOVERAGE_TEST_MARKER();
1330:lib/freertos/src/queue.c **** 						}
1331:lib/freertos/src/queue.c **** 					}
1332:lib/freertos/src/queue.c **** 					else
1333:lib/freertos/src/queue.c **** 					{
1334:lib/freertos/src/queue.c **** 						mtCOVERAGE_TEST_MARKER();
1335:lib/freertos/src/queue.c **** 					}
1336:lib/freertos/src/queue.c **** 				}
1337:lib/freertos/src/queue.c **** 
1338:lib/freertos/src/queue.c **** 				taskEXIT_CRITICAL();
1339:lib/freertos/src/queue.c **** 				return pdPASS;
1340:lib/freertos/src/queue.c **** 			}
1341:lib/freertos/src/queue.c **** 			else
1342:lib/freertos/src/queue.c **** 			{
1343:lib/freertos/src/queue.c **** 				if( xTicksToWait == ( TickType_t ) 0 )
1344:lib/freertos/src/queue.c **** 				{
1345:lib/freertos/src/queue.c **** 					/* The queue was empty and no block time is specified (or
1346:lib/freertos/src/queue.c **** 					the block time has expired) so leave now. */
1347:lib/freertos/src/queue.c **** 					taskEXIT_CRITICAL();
1348:lib/freertos/src/queue.c **** 					traceQUEUE_RECEIVE_FAILED( pxQueue );
1349:lib/freertos/src/queue.c **** 					return errQUEUE_EMPTY;
1350:lib/freertos/src/queue.c **** 				}
1351:lib/freertos/src/queue.c **** 				else if( xEntryTimeSet == pdFALSE )
1352:lib/freertos/src/queue.c **** 				{
1353:lib/freertos/src/queue.c **** 					/* The queue was empty and a block time was specified so
1354:lib/freertos/src/queue.c **** 					configure the timeout structure. */
1355:lib/freertos/src/queue.c **** 					vTaskSetTimeOutState( &xTimeOut );
GAS LISTING C:\Users\kasie\AppData\Local\Temp\ccBtjLu5.s 			page 25


1356:lib/freertos/src/queue.c **** 					xEntryTimeSet = pdTRUE;
1357:lib/freertos/src/queue.c **** 				}
1358:lib/freertos/src/queue.c **** 				else
1359:lib/freertos/src/queue.c **** 				{
1360:lib/freertos/src/queue.c **** 					/* Entry time was already set. */
1361:lib/freertos/src/queue.c **** 					mtCOVERAGE_TEST_MARKER();
1362:lib/freertos/src/queue.c **** 				}
1363:lib/freertos/src/queue.c **** 			}
1364:lib/freertos/src/queue.c **** 		}
1365:lib/freertos/src/queue.c **** 		taskEXIT_CRITICAL();
1366:lib/freertos/src/queue.c **** 
1367:lib/freertos/src/queue.c **** 		/* Interrupts and other tasks can send to and receive from the queue
1368:lib/freertos/src/queue.c **** 		now the critical section has been exited. */
1369:lib/freertos/src/queue.c **** 
1370:lib/freertos/src/queue.c **** 		vTaskSuspendAll();
1371:lib/freertos/src/queue.c **** 		prvLockQueue( pxQueue );
1372:lib/freertos/src/queue.c **** 
1373:lib/freertos/src/queue.c **** 		/* Update the timeout state to see if it has expired yet. */
1374:lib/freertos/src/queue.c **** 		if( xTaskCheckForTimeOut( &xTimeOut, &xTicksToWait ) == pdFALSE )
1375:lib/freertos/src/queue.c **** 		{
1376:lib/freertos/src/queue.c **** 			if( prvIsQueueEmpty( pxQueue ) != pdFALSE )
1377:lib/freertos/src/queue.c **** 			{
1378:lib/freertos/src/queue.c **** 				traceBLOCKING_ON_QUEUE_RECEIVE( pxQueue );
1379:lib/freertos/src/queue.c **** 
1380:lib/freertos/src/queue.c **** 				#if ( configUSE_MUTEXES == 1 )
1381:lib/freertos/src/queue.c **** 				{
1382:lib/freertos/src/queue.c **** 					if( pxQueue->uxQueueType == queueQUEUE_IS_MUTEX )
1383:lib/freertos/src/queue.c **** 					{
1384:lib/freertos/src/queue.c **** 						taskENTER_CRITICAL();
1385:lib/freertos/src/queue.c **** 						{
1386:lib/freertos/src/queue.c **** 							vTaskPriorityInherit( ( void * ) pxQueue->pxMutexHolder );
1387:lib/freertos/src/queue.c **** 						}
1388:lib/freertos/src/queue.c **** 						taskEXIT_CRITICAL();
1389:lib/freertos/src/queue.c **** 					}
1390:lib/freertos/src/queue.c **** 					else
1391:lib/freertos/src/queue.c **** 					{
1392:lib/freertos/src/queue.c **** 						mtCOVERAGE_TEST_MARKER();
1393:lib/freertos/src/queue.c **** 					}
1394:lib/freertos/src/queue.c **** 				}
1395:lib/freertos/src/queue.c **** 				#endif
1396:lib/freertos/src/queue.c **** 
1397:lib/freertos/src/queue.c **** 				vTaskPlaceOnEventList( &( pxQueue->xTasksWaitingToReceive ), xTicksToWait );
1398:lib/freertos/src/queue.c **** 				prvUnlockQueue( pxQueue );
1399:lib/freertos/src/queue.c **** 				if( xTaskResumeAll() == pdFALSE )
1400:lib/freertos/src/queue.c **** 				{
1401:lib/freertos/src/queue.c **** 					portYIELD_WITHIN_API();
1402:lib/freertos/src/queue.c **** 				}
1403:lib/freertos/src/queue.c **** 				else
1404:lib/freertos/src/queue.c **** 				{
1405:lib/freertos/src/queue.c **** 					mtCOVERAGE_TEST_MARKER();
1406:lib/freertos/src/queue.c **** 				}
1407:lib/freertos/src/queue.c **** 			}
1408:lib/freertos/src/queue.c **** 			else
1409:lib/freertos/src/queue.c **** 			{
1410:lib/freertos/src/queue.c **** 				/* Try again. */
1411:lib/freertos/src/queue.c **** 				prvUnlockQueue( pxQueue );
1412:lib/freertos/src/queue.c **** 				( void ) xTaskResumeAll();
GAS LISTING C:\Users\kasie\AppData\Local\Temp\ccBtjLu5.s 			page 26


1413:lib/freertos/src/queue.c **** 			}
1414:lib/freertos/src/queue.c **** 		}
1415:lib/freertos/src/queue.c **** 		else
1416:lib/freertos/src/queue.c **** 		{
1417:lib/freertos/src/queue.c **** 			prvUnlockQueue( pxQueue );
1418:lib/freertos/src/queue.c **** 			( void ) xTaskResumeAll();
1419:lib/freertos/src/queue.c **** 
1420:lib/freertos/src/queue.c **** 			if( prvIsQueueEmpty( pxQueue ) != pdFALSE )
1421:lib/freertos/src/queue.c **** 			{
1422:lib/freertos/src/queue.c **** 				traceQUEUE_RECEIVE_FAILED( pxQueue );
1423:lib/freertos/src/queue.c **** 				return errQUEUE_EMPTY;
1424:lib/freertos/src/queue.c **** 			}
1425:lib/freertos/src/queue.c **** 			else
1426:lib/freertos/src/queue.c **** 			{
1427:lib/freertos/src/queue.c **** 				mtCOVERAGE_TEST_MARKER();
1428:lib/freertos/src/queue.c **** 			}
1429:lib/freertos/src/queue.c **** 		}
1430:lib/freertos/src/queue.c **** 	}
1431:lib/freertos/src/queue.c **** }
1432:lib/freertos/src/queue.c **** /*-----------------------------------------------------------*/
1433:lib/freertos/src/queue.c **** 
1434:lib/freertos/src/queue.c **** BaseType_t xQueueReceiveFromISR( QueueHandle_t xQueue, void * const pvBuffer, BaseType_t * const px
1435:lib/freertos/src/queue.c **** {
1436:lib/freertos/src/queue.c **** BaseType_t xReturn;
1437:lib/freertos/src/queue.c **** UBaseType_t uxSavedInterruptStatus;
1438:lib/freertos/src/queue.c **** Queue_t * const pxQueue = ( Queue_t * ) xQueue;
1439:lib/freertos/src/queue.c **** 
1440:lib/freertos/src/queue.c **** 	configASSERT( pxQueue );
1441:lib/freertos/src/queue.c **** 	configASSERT( !( ( pvBuffer == NULL ) && ( pxQueue->uxItemSize != ( UBaseType_t ) 0U ) ) );
1442:lib/freertos/src/queue.c **** 
1443:lib/freertos/src/queue.c **** 	/* RTOS ports that support interrupt nesting have the concept of a maximum
1444:lib/freertos/src/queue.c **** 	system call (or maximum API call) interrupt priority.  Interrupts that are
1445:lib/freertos/src/queue.c **** 	above the maximum system call priority are kept permanently enabled, even
1446:lib/freertos/src/queue.c **** 	when the RTOS kernel is in a critical section, but cannot make any calls to
1447:lib/freertos/src/queue.c **** 	FreeRTOS API functions.  If configASSERT() is defined in FreeRTOSConfig.h
1448:lib/freertos/src/queue.c **** 	then portASSERT_IF_INTERRUPT_PRIORITY_INVALID() will result in an assertion
1449:lib/freertos/src/queue.c **** 	failure if a FreeRTOS API function is called from an interrupt that has been
1450:lib/freertos/src/queue.c **** 	assigned a priority above the configured maximum system call priority.
1451:lib/freertos/src/queue.c **** 	Only FreeRTOS functions that end in FromISR can be called from interrupts
1452:lib/freertos/src/queue.c **** 	that have been assigned a priority at or (logically) below the maximum
1453:lib/freertos/src/queue.c **** 	system call	interrupt priority.  FreeRTOS maintains a separate interrupt
1454:lib/freertos/src/queue.c **** 	safe API to ensure interrupt entry is as fast and as simple as possible.
1455:lib/freertos/src/queue.c **** 	More information (albeit Cortex-M specific) is provided on the following
1456:lib/freertos/src/queue.c **** 	link: http://www.freertos.org/RTOS-Cortex-M3-M4.html */
1457:lib/freertos/src/queue.c **** 	portASSERT_IF_INTERRUPT_PRIORITY_INVALID();
1458:lib/freertos/src/queue.c **** 
1459:lib/freertos/src/queue.c **** 	uxSavedInterruptStatus = portSET_INTERRUPT_MASK_FROM_ISR();
1460:lib/freertos/src/queue.c **** 	{
1461:lib/freertos/src/queue.c **** 		const UBaseType_t uxMessagesWaiting = pxQueue->uxMessagesWaiting;
1462:lib/freertos/src/queue.c **** 
1463:lib/freertos/src/queue.c **** 		/* Cannot block in an ISR, so check there is data available. */
1464:lib/freertos/src/queue.c **** 		if( uxMessagesWaiting > ( UBaseType_t ) 0 )
1465:lib/freertos/src/queue.c **** 		{
1466:lib/freertos/src/queue.c **** 			const int8_t cRxLock = pxQueue->cRxLock;
1467:lib/freertos/src/queue.c **** 
1468:lib/freertos/src/queue.c **** 			traceQUEUE_RECEIVE_FROM_ISR( pxQueue );
1469:lib/freertos/src/queue.c **** 
GAS LISTING C:\Users\kasie\AppData\Local\Temp\ccBtjLu5.s 			page 27


1470:lib/freertos/src/queue.c **** 			prvCopyDataFromQueue( pxQueue, pvBuffer );
1471:lib/freertos/src/queue.c **** 			pxQueue->uxMessagesWaiting = uxMessagesWaiting - 1;
1472:lib/freertos/src/queue.c **** 
1473:lib/freertos/src/queue.c **** 			/* If the queue is locked the event list will not be modified.
1474:lib/freertos/src/queue.c **** 			Instead update the lock count so the task that unlocks the queue
1475:lib/freertos/src/queue.c **** 			will know that an ISR has removed data while the queue was
1476:lib/freertos/src/queue.c **** 			locked. */
1477:lib/freertos/src/queue.c **** 			if( cRxLock == queueUNLOCKED )
1478:lib/freertos/src/queue.c **** 			{
1479:lib/freertos/src/queue.c **** 				if( listLIST_IS_EMPTY( &( pxQueue->xTasksWaitingToSend ) ) == pdFALSE )
1480:lib/freertos/src/queue.c **** 				{
1481:lib/freertos/src/queue.c **** 					if( xTaskRemoveFromEventList( &( pxQueue->xTasksWaitingToSend ) ) != pdFALSE )
1482:lib/freertos/src/queue.c **** 					{
1483:lib/freertos/src/queue.c **** 						/* The task waiting has a higher priority than us so
1484:lib/freertos/src/queue.c **** 						force a context switch. */
1485:lib/freertos/src/queue.c **** 						if( pxHigherPriorityTaskWoken != NULL )
1486:lib/freertos/src/queue.c **** 						{
1487:lib/freertos/src/queue.c **** 							*pxHigherPriorityTaskWoken = pdTRUE;
1488:lib/freertos/src/queue.c **** 						}
1489:lib/freertos/src/queue.c **** 						else
1490:lib/freertos/src/queue.c **** 						{
1491:lib/freertos/src/queue.c **** 							mtCOVERAGE_TEST_MARKER();
1492:lib/freertos/src/queue.c **** 						}
1493:lib/freertos/src/queue.c **** 					}
1494:lib/freertos/src/queue.c **** 					else
1495:lib/freertos/src/queue.c **** 					{
1496:lib/freertos/src/queue.c **** 						mtCOVERAGE_TEST_MARKER();
1497:lib/freertos/src/queue.c **** 					}
1498:lib/freertos/src/queue.c **** 				}
1499:lib/freertos/src/queue.c **** 				else
1500:lib/freertos/src/queue.c **** 				{
1501:lib/freertos/src/queue.c **** 					mtCOVERAGE_TEST_MARKER();
1502:lib/freertos/src/queue.c **** 				}
1503:lib/freertos/src/queue.c **** 			}
1504:lib/freertos/src/queue.c **** 			else
1505:lib/freertos/src/queue.c **** 			{
1506:lib/freertos/src/queue.c **** 				/* Increment the lock count so the task that unlocks the queue
1507:lib/freertos/src/queue.c **** 				knows that data was removed while it was locked. */
1508:lib/freertos/src/queue.c **** 				pxQueue->cRxLock = ( int8_t ) ( cRxLock + 1 );
1509:lib/freertos/src/queue.c **** 			}
1510:lib/freertos/src/queue.c **** 
1511:lib/freertos/src/queue.c **** 			xReturn = pdPASS;
1512:lib/freertos/src/queue.c **** 		}
1513:lib/freertos/src/queue.c **** 		else
1514:lib/freertos/src/queue.c **** 		{
1515:lib/freertos/src/queue.c **** 			xReturn = pdFAIL;
1516:lib/freertos/src/queue.c **** 			traceQUEUE_RECEIVE_FROM_ISR_FAILED( pxQueue );
1517:lib/freertos/src/queue.c **** 		}
1518:lib/freertos/src/queue.c **** 	}
1519:lib/freertos/src/queue.c **** 	portCLEAR_INTERRUPT_MASK_FROM_ISR( uxSavedInterruptStatus );
1520:lib/freertos/src/queue.c **** 
1521:lib/freertos/src/queue.c **** 	return xReturn;
1522:lib/freertos/src/queue.c **** }
1523:lib/freertos/src/queue.c **** /*-----------------------------------------------------------*/
1524:lib/freertos/src/queue.c **** 
1525:lib/freertos/src/queue.c **** BaseType_t xQueuePeekFromISR( QueueHandle_t xQueue,  void * const pvBuffer )
1526:lib/freertos/src/queue.c **** {
GAS LISTING C:\Users\kasie\AppData\Local\Temp\ccBtjLu5.s 			page 28


1527:lib/freertos/src/queue.c **** BaseType_t xReturn;
1528:lib/freertos/src/queue.c **** UBaseType_t uxSavedInterruptStatus;
1529:lib/freertos/src/queue.c **** int8_t *pcOriginalReadPosition;
1530:lib/freertos/src/queue.c **** Queue_t * const pxQueue = ( Queue_t * ) xQueue;
1531:lib/freertos/src/queue.c **** 
1532:lib/freertos/src/queue.c **** 	configASSERT( pxQueue );
1533:lib/freertos/src/queue.c **** 	configASSERT( !( ( pvBuffer == NULL ) && ( pxQueue->uxItemSize != ( UBaseType_t ) 0U ) ) );
1534:lib/freertos/src/queue.c **** 	configASSERT( pxQueue->uxItemSize != 0 ); /* Can't peek a semaphore. */
1535:lib/freertos/src/queue.c **** 
1536:lib/freertos/src/queue.c **** 	/* RTOS ports that support interrupt nesting have the concept of a maximum
1537:lib/freertos/src/queue.c **** 	system call (or maximum API call) interrupt priority.  Interrupts that are
1538:lib/freertos/src/queue.c **** 	above the maximum system call priority are kept permanently enabled, even
1539:lib/freertos/src/queue.c **** 	when the RTOS kernel is in a critical section, but cannot make any calls to
1540:lib/freertos/src/queue.c **** 	FreeRTOS API functions.  If configASSERT() is defined in FreeRTOSConfig.h
1541:lib/freertos/src/queue.c **** 	then portASSERT_IF_INTERRUPT_PRIORITY_INVALID() will result in an assertion
1542:lib/freertos/src/queue.c **** 	failure if a FreeRTOS API function is called from an interrupt that has been
1543:lib/freertos/src/queue.c **** 	assigned a priority above the configured maximum system call priority.
1544:lib/freertos/src/queue.c **** 	Only FreeRTOS functions that end in FromISR can be called from interrupts
1545:lib/freertos/src/queue.c **** 	that have been assigned a priority at or (logically) below the maximum
1546:lib/freertos/src/queue.c **** 	system call	interrupt priority.  FreeRTOS maintains a separate interrupt
1547:lib/freertos/src/queue.c **** 	safe API to ensure interrupt entry is as fast and as simple as possible.
1548:lib/freertos/src/queue.c **** 	More information (albeit Cortex-M specific) is provided on the following
1549:lib/freertos/src/queue.c **** 	link: http://www.freertos.org/RTOS-Cortex-M3-M4.html */
1550:lib/freertos/src/queue.c **** 	portASSERT_IF_INTERRUPT_PRIORITY_INVALID();
1551:lib/freertos/src/queue.c **** 
1552:lib/freertos/src/queue.c **** 	uxSavedInterruptStatus = portSET_INTERRUPT_MASK_FROM_ISR();
1553:lib/freertos/src/queue.c **** 	{
1554:lib/freertos/src/queue.c **** 		/* Cannot block in an ISR, so check there is data available. */
1555:lib/freertos/src/queue.c **** 		if( pxQueue->uxMessagesWaiting > ( UBaseType_t ) 0 )
1556:lib/freertos/src/queue.c **** 		{
1557:lib/freertos/src/queue.c **** 			traceQUEUE_PEEK_FROM_ISR( pxQueue );
1558:lib/freertos/src/queue.c **** 
1559:lib/freertos/src/queue.c **** 			/* Remember the read position so it can be reset as nothing is
1560:lib/freertos/src/queue.c **** 			actually being removed from the queue. */
1561:lib/freertos/src/queue.c **** 			pcOriginalReadPosition = pxQueue->u.pcReadFrom;
1562:lib/freertos/src/queue.c **** 			prvCopyDataFromQueue( pxQueue, pvBuffer );
1563:lib/freertos/src/queue.c **** 			pxQueue->u.pcReadFrom = pcOriginalReadPosition;
1564:lib/freertos/src/queue.c **** 
1565:lib/freertos/src/queue.c **** 			xReturn = pdPASS;
1566:lib/freertos/src/queue.c **** 		}
1567:lib/freertos/src/queue.c **** 		else
1568:lib/freertos/src/queue.c **** 		{
1569:lib/freertos/src/queue.c **** 			xReturn = pdFAIL;
1570:lib/freertos/src/queue.c **** 			traceQUEUE_PEEK_FROM_ISR_FAILED( pxQueue );
1571:lib/freertos/src/queue.c **** 		}
1572:lib/freertos/src/queue.c **** 	}
1573:lib/freertos/src/queue.c **** 	portCLEAR_INTERRUPT_MASK_FROM_ISR( uxSavedInterruptStatus );
1574:lib/freertos/src/queue.c **** 
1575:lib/freertos/src/queue.c **** 	return xReturn;
1576:lib/freertos/src/queue.c **** }
1577:lib/freertos/src/queue.c **** /*-----------------------------------------------------------*/
1578:lib/freertos/src/queue.c **** 
1579:lib/freertos/src/queue.c **** UBaseType_t uxQueueMessagesWaiting( const QueueHandle_t xQueue )
1580:lib/freertos/src/queue.c **** {
1581:lib/freertos/src/queue.c **** UBaseType_t uxReturn;
1582:lib/freertos/src/queue.c **** 
1583:lib/freertos/src/queue.c **** 	configASSERT( xQueue );
GAS LISTING C:\Users\kasie\AppData\Local\Temp\ccBtjLu5.s 			page 29


1584:lib/freertos/src/queue.c **** 
1585:lib/freertos/src/queue.c **** 	taskENTER_CRITICAL();
1586:lib/freertos/src/queue.c **** 	{
1587:lib/freertos/src/queue.c **** 		uxReturn = ( ( Queue_t * ) xQueue )->uxMessagesWaiting;
1588:lib/freertos/src/queue.c **** 	}
1589:lib/freertos/src/queue.c **** 	taskEXIT_CRITICAL();
1590:lib/freertos/src/queue.c **** 
1591:lib/freertos/src/queue.c **** 	return uxReturn;
1592:lib/freertos/src/queue.c **** } /*lint !e818 Pointer cannot be declared const as xQueue is a typedef not pointer. */
1593:lib/freertos/src/queue.c **** /*-----------------------------------------------------------*/
1594:lib/freertos/src/queue.c **** 
1595:lib/freertos/src/queue.c **** UBaseType_t uxQueueSpacesAvailable( const QueueHandle_t xQueue )
1596:lib/freertos/src/queue.c **** {
1597:lib/freertos/src/queue.c **** UBaseType_t uxReturn;
1598:lib/freertos/src/queue.c **** Queue_t *pxQueue;
1599:lib/freertos/src/queue.c **** 
1600:lib/freertos/src/queue.c **** 	pxQueue = ( Queue_t * ) xQueue;
1601:lib/freertos/src/queue.c **** 	configASSERT( pxQueue );
1602:lib/freertos/src/queue.c **** 
1603:lib/freertos/src/queue.c **** 	taskENTER_CRITICAL();
1604:lib/freertos/src/queue.c **** 	{
1605:lib/freertos/src/queue.c **** 		uxReturn = pxQueue->uxLength - pxQueue->uxMessagesWaiting;
1606:lib/freertos/src/queue.c **** 	}
1607:lib/freertos/src/queue.c **** 	taskEXIT_CRITICAL();
1608:lib/freertos/src/queue.c **** 
1609:lib/freertos/src/queue.c **** 	return uxReturn;
1610:lib/freertos/src/queue.c **** } /*lint !e818 Pointer cannot be declared const as xQueue is a typedef not pointer. */
1611:lib/freertos/src/queue.c **** /*-----------------------------------------------------------*/
1612:lib/freertos/src/queue.c **** 
1613:lib/freertos/src/queue.c **** UBaseType_t uxQueueMessagesWaitingFromISR( const QueueHandle_t xQueue )
1614:lib/freertos/src/queue.c **** {
1615:lib/freertos/src/queue.c **** UBaseType_t uxReturn;
1616:lib/freertos/src/queue.c **** 
1617:lib/freertos/src/queue.c **** 	configASSERT( xQueue );
1618:lib/freertos/src/queue.c **** 
1619:lib/freertos/src/queue.c **** 	uxReturn = ( ( Queue_t * ) xQueue )->uxMessagesWaiting;
1620:lib/freertos/src/queue.c **** 
1621:lib/freertos/src/queue.c **** 	return uxReturn;
1622:lib/freertos/src/queue.c **** } /*lint !e818 Pointer cannot be declared const as xQueue is a typedef not pointer. */
1623:lib/freertos/src/queue.c **** /*-----------------------------------------------------------*/
1624:lib/freertos/src/queue.c **** 
1625:lib/freertos/src/queue.c **** void vQueueDelete( QueueHandle_t xQueue )
1626:lib/freertos/src/queue.c **** {
1627:lib/freertos/src/queue.c **** Queue_t * const pxQueue = ( Queue_t * ) xQueue;
1628:lib/freertos/src/queue.c **** 
1629:lib/freertos/src/queue.c **** 	configASSERT( pxQueue );
1630:lib/freertos/src/queue.c **** 	traceQUEUE_DELETE( pxQueue );
1631:lib/freertos/src/queue.c **** 
1632:lib/freertos/src/queue.c **** 	#if ( configQUEUE_REGISTRY_SIZE > 0 )
1633:lib/freertos/src/queue.c **** 	{
1634:lib/freertos/src/queue.c **** 		vQueueUnregisterQueue( pxQueue );
1635:lib/freertos/src/queue.c **** 	}
1636:lib/freertos/src/queue.c **** 	#endif
1637:lib/freertos/src/queue.c **** 
1638:lib/freertos/src/queue.c **** 	#if( ( configSUPPORT_DYNAMIC_ALLOCATION == 1 ) && ( configSUPPORT_STATIC_ALLOCATION == 0 ) )
1639:lib/freertos/src/queue.c **** 	{
1640:lib/freertos/src/queue.c **** 		/* The queue can only have been allocated dynamically - free it
GAS LISTING C:\Users\kasie\AppData\Local\Temp\ccBtjLu5.s 			page 30


1641:lib/freertos/src/queue.c **** 		again. */
1642:lib/freertos/src/queue.c **** 		vPortFree( pxQueue );
1643:lib/freertos/src/queue.c **** 	}
1644:lib/freertos/src/queue.c **** 	#elif( ( configSUPPORT_DYNAMIC_ALLOCATION == 1 ) && ( configSUPPORT_STATIC_ALLOCATION == 1 ) )
1645:lib/freertos/src/queue.c **** 	{
1646:lib/freertos/src/queue.c **** 		/* The queue could have been allocated statically or dynamically, so
1647:lib/freertos/src/queue.c **** 		check before attempting to free the memory. */
1648:lib/freertos/src/queue.c **** 		if( pxQueue->ucStaticallyAllocated == ( uint8_t ) pdFALSE )
1649:lib/freertos/src/queue.c **** 		{
1650:lib/freertos/src/queue.c **** 			vPortFree( pxQueue );
1651:lib/freertos/src/queue.c **** 		}
1652:lib/freertos/src/queue.c **** 		else
1653:lib/freertos/src/queue.c **** 		{
1654:lib/freertos/src/queue.c **** 			mtCOVERAGE_TEST_MARKER();
1655:lib/freertos/src/queue.c **** 		}
1656:lib/freertos/src/queue.c **** 	}
1657:lib/freertos/src/queue.c **** 	#else
1658:lib/freertos/src/queue.c **** 	{
1659:lib/freertos/src/queue.c **** 		/* The queue must have been statically allocated, so is not going to be
1660:lib/freertos/src/queue.c **** 		deleted.  Avoid compiler warnings about the unused parameter. */
1661:lib/freertos/src/queue.c **** 		( void ) pxQueue;
1662:lib/freertos/src/queue.c **** 	}
1663:lib/freertos/src/queue.c **** 	#endif /* configSUPPORT_DYNAMIC_ALLOCATION */
1664:lib/freertos/src/queue.c **** }
1665:lib/freertos/src/queue.c **** /*-----------------------------------------------------------*/
1666:lib/freertos/src/queue.c **** 
1667:lib/freertos/src/queue.c **** #if ( configUSE_TRACE_FACILITY == 1 )
1668:lib/freertos/src/queue.c **** 
1669:lib/freertos/src/queue.c **** 	UBaseType_t uxQueueGetQueueNumber( QueueHandle_t xQueue )
1670:lib/freertos/src/queue.c **** 	{
1671:lib/freertos/src/queue.c **** 		return ( ( Queue_t * ) xQueue )->uxQueueNumber;
1672:lib/freertos/src/queue.c **** 	}
1673:lib/freertos/src/queue.c **** 
1674:lib/freertos/src/queue.c **** #endif /* configUSE_TRACE_FACILITY */
1675:lib/freertos/src/queue.c **** /*-----------------------------------------------------------*/
1676:lib/freertos/src/queue.c **** 
1677:lib/freertos/src/queue.c **** #if ( configUSE_TRACE_FACILITY == 1 )
1678:lib/freertos/src/queue.c **** 
1679:lib/freertos/src/queue.c **** 	void vQueueSetQueueNumber( QueueHandle_t xQueue, UBaseType_t uxQueueNumber )
1680:lib/freertos/src/queue.c **** 	{
1681:lib/freertos/src/queue.c **** 		( ( Queue_t * ) xQueue )->uxQueueNumber = uxQueueNumber;
1682:lib/freertos/src/queue.c **** 	}
1683:lib/freertos/src/queue.c **** 
1684:lib/freertos/src/queue.c **** #endif /* configUSE_TRACE_FACILITY */
1685:lib/freertos/src/queue.c **** /*-----------------------------------------------------------*/
1686:lib/freertos/src/queue.c **** 
1687:lib/freertos/src/queue.c **** #if ( configUSE_TRACE_FACILITY == 1 )
1688:lib/freertos/src/queue.c **** 
1689:lib/freertos/src/queue.c **** 	uint8_t ucQueueGetQueueType( QueueHandle_t xQueue )
1690:lib/freertos/src/queue.c **** 	{
1691:lib/freertos/src/queue.c **** 		return ( ( Queue_t * ) xQueue )->ucQueueType;
1692:lib/freertos/src/queue.c **** 	}
1693:lib/freertos/src/queue.c **** 
1694:lib/freertos/src/queue.c **** #endif /* configUSE_TRACE_FACILITY */
1695:lib/freertos/src/queue.c **** /*-----------------------------------------------------------*/
1696:lib/freertos/src/queue.c **** 
1697:lib/freertos/src/queue.c **** static BaseType_t prvCopyDataToQueue( Queue_t * const pxQueue, const void *pvItemToQueue, const Bas
GAS LISTING C:\Users\kasie\AppData\Local\Temp\ccBtjLu5.s 			page 31


1698:lib/freertos/src/queue.c **** {
  15              		.loc 1 1698 1
  16              		.cfi_startproc
  17              	.LVL0:
1699:lib/freertos/src/queue.c **** BaseType_t xReturn = pdFALSE;
  18              		.loc 1 1699 1
1700:lib/freertos/src/queue.c **** UBaseType_t uxMessagesWaiting;
  19              		.loc 1 1700 1
1701:lib/freertos/src/queue.c **** 
1702:lib/freertos/src/queue.c **** 	/* This function is called from a critical section. */
1703:lib/freertos/src/queue.c **** 
1704:lib/freertos/src/queue.c **** 	uxMessagesWaiting = pxQueue->uxMessagesWaiting;
  20              		.loc 1 1704 2
1698:lib/freertos/src/queue.c **** BaseType_t xReturn = pdFALSE;
  21              		.loc 1 1698 1 is_stmt 0
  22 0000 4111     		addi	sp,sp,-16
  23              	.LCFI0:
  24              		.cfi_def_cfa_offset 16
  25 0002 26C2     		sw	s1,4(sp)
  26              		.cfi_offset 9, -12
  27 0004 B284     		mv	s1,a2
1705:lib/freertos/src/queue.c **** 
1706:lib/freertos/src/queue.c **** 	if( pxQueue->uxItemSize == ( UBaseType_t ) 0 )
  28              		.loc 1 1706 13
  29 0006 3041     		lw	a2,64(a0)
  30              	.LVL1:
1698:lib/freertos/src/queue.c **** BaseType_t xReturn = pdFALSE;
  31              		.loc 1 1698 1
  32 0008 4AC0     		sw	s2,0(sp)
  33              		.cfi_offset 18, -16
1704:lib/freertos/src/queue.c **** 
  34              		.loc 1 1704 20
  35 000a 03298503 		lw	s2,56(a0)
  36              	.LVL2:
  37              		.loc 1 1706 2 is_stmt 1
1698:lib/freertos/src/queue.c **** BaseType_t xReturn = pdFALSE;
  38              		.loc 1 1698 1 is_stmt 0
  39 000e 22C4     		sw	s0,8(sp)
  40 0010 06C6     		sw	ra,12(sp)
  41              		.cfi_offset 8, -8
  42              		.cfi_offset 1, -4
1698:lib/freertos/src/queue.c **** BaseType_t xReturn = pdFALSE;
  43              		.loc 1 1698 1
  44 0012 2A84     		mv	s0,a0
  45              		.loc 1 1706 4
  46 0014 15E6     		bne	a2,zero,.L2
1707:lib/freertos/src/queue.c **** 	{
1708:lib/freertos/src/queue.c **** 		#if ( configUSE_MUTEXES == 1 )
1709:lib/freertos/src/queue.c **** 		{
1710:lib/freertos/src/queue.c **** 			if( pxQueue->uxQueueType == queueQUEUE_IS_MUTEX )
  47              		.loc 1 1710 4 is_stmt 1
  48              		.loc 1 1710 6 is_stmt 0
  49 0016 1C41     		lw	a5,0(a0)
1699:lib/freertos/src/queue.c **** UBaseType_t uxMessagesWaiting;
  50              		.loc 1 1699 12
  51 0018 8144     		li	s1,0
  52              	.LVL3:
GAS LISTING C:\Users\kasie\AppData\Local\Temp\ccBtjLu5.s 			page 32


  53              		.loc 1 1710 6
  54 001a 89EB     		bne	a5,zero,.L3
1711:lib/freertos/src/queue.c **** 			{
1712:lib/freertos/src/queue.c **** 				/* The mutex is no longer being held. */
1713:lib/freertos/src/queue.c **** 				xReturn = xTaskPriorityDisinherit( ( void * ) pxQueue->pxMutexHolder );
  55              		.loc 1 1713 5 is_stmt 1
  56              		.loc 1 1713 15 is_stmt 0
  57 001c 4841     		lw	a0,4(a0)
  58              	.LVL4:
  59 001e 97000000 		call	xTaskPriorityDisinherit
  59      E7800000 
  60              	.LVL5:
  61 0026 AA84     		mv	s1,a0
  62              	.LVL6:
1714:lib/freertos/src/queue.c **** 				pxQueue->pxMutexHolder = NULL;
  63              		.loc 1 1714 5 is_stmt 1
  64              		.loc 1 1714 28 is_stmt 0
  65 0028 23220400 		sw	zero,4(s0)
  66              	.LVL7:
  67              	.L3:
1715:lib/freertos/src/queue.c **** 			}
1716:lib/freertos/src/queue.c **** 			else
1717:lib/freertos/src/queue.c **** 			{
1718:lib/freertos/src/queue.c **** 				mtCOVERAGE_TEST_MARKER();
1719:lib/freertos/src/queue.c **** 			}
1720:lib/freertos/src/queue.c **** 		}
1721:lib/freertos/src/queue.c **** 		#endif /* configUSE_MUTEXES */
1722:lib/freertos/src/queue.c **** 	}
1723:lib/freertos/src/queue.c **** 	else if( xPosition == queueSEND_TO_BACK )
1724:lib/freertos/src/queue.c **** 	{
1725:lib/freertos/src/queue.c **** 		( void ) memcpy( ( void * ) pxQueue->pcWriteTo, pvItemToQueue, ( size_t ) pxQueue->uxItemSize ); 
1726:lib/freertos/src/queue.c **** 		pxQueue->pcWriteTo += pxQueue->uxItemSize;
1727:lib/freertos/src/queue.c **** 		if( pxQueue->pcWriteTo >= pxQueue->pcTail ) /*lint !e946 MISRA exception justified as comparison 
1728:lib/freertos/src/queue.c **** 		{
1729:lib/freertos/src/queue.c **** 			pxQueue->pcWriteTo = pxQueue->pcHead;
1730:lib/freertos/src/queue.c **** 		}
1731:lib/freertos/src/queue.c **** 		else
1732:lib/freertos/src/queue.c **** 		{
1733:lib/freertos/src/queue.c **** 			mtCOVERAGE_TEST_MARKER();
1734:lib/freertos/src/queue.c **** 		}
1735:lib/freertos/src/queue.c **** 	}
1736:lib/freertos/src/queue.c **** 	else
1737:lib/freertos/src/queue.c **** 	{
1738:lib/freertos/src/queue.c **** 		( void ) memcpy( ( void * ) pxQueue->u.pcReadFrom, pvItemToQueue, ( size_t ) pxQueue->uxItemSize 
1739:lib/freertos/src/queue.c **** 		pxQueue->u.pcReadFrom -= pxQueue->uxItemSize;
1740:lib/freertos/src/queue.c **** 		if( pxQueue->u.pcReadFrom < pxQueue->pcHead ) /*lint !e946 MISRA exception justified as compariso
1741:lib/freertos/src/queue.c **** 		{
1742:lib/freertos/src/queue.c **** 			pxQueue->u.pcReadFrom = ( pxQueue->pcTail - pxQueue->uxItemSize );
1743:lib/freertos/src/queue.c **** 		}
1744:lib/freertos/src/queue.c **** 		else
1745:lib/freertos/src/queue.c **** 		{
1746:lib/freertos/src/queue.c **** 			mtCOVERAGE_TEST_MARKER();
1747:lib/freertos/src/queue.c **** 		}
1748:lib/freertos/src/queue.c **** 
1749:lib/freertos/src/queue.c **** 		if( xPosition == queueOVERWRITE )
1750:lib/freertos/src/queue.c **** 		{
1751:lib/freertos/src/queue.c **** 			if( uxMessagesWaiting > ( UBaseType_t ) 0 )
GAS LISTING C:\Users\kasie\AppData\Local\Temp\ccBtjLu5.s 			page 33


1752:lib/freertos/src/queue.c **** 			{
1753:lib/freertos/src/queue.c **** 				/* An item is not being added but overwritten, so subtract
1754:lib/freertos/src/queue.c **** 				one from the recorded number of items in the queue so when
1755:lib/freertos/src/queue.c **** 				one is added again below the number of recorded items remains
1756:lib/freertos/src/queue.c **** 				correct. */
1757:lib/freertos/src/queue.c **** 				--uxMessagesWaiting;
1758:lib/freertos/src/queue.c **** 			}
1759:lib/freertos/src/queue.c **** 			else
1760:lib/freertos/src/queue.c **** 			{
1761:lib/freertos/src/queue.c **** 				mtCOVERAGE_TEST_MARKER();
1762:lib/freertos/src/queue.c **** 			}
1763:lib/freertos/src/queue.c **** 		}
1764:lib/freertos/src/queue.c **** 		else
1765:lib/freertos/src/queue.c **** 		{
1766:lib/freertos/src/queue.c **** 			mtCOVERAGE_TEST_MARKER();
  68              		.loc 1 1766 28 is_stmt 1
1767:lib/freertos/src/queue.c **** 		}
1768:lib/freertos/src/queue.c **** 	}
1769:lib/freertos/src/queue.c **** 
1770:lib/freertos/src/queue.c **** 	pxQueue->uxMessagesWaiting = uxMessagesWaiting + 1;
  69              		.loc 1 1770 2
  70              		.loc 1 1770 49 is_stmt 0
  71 002c 0509     		addi	s2,s2,1
  72              	.LVL8:
  73              		.loc 1 1770 29
  74 002e 232C2403 		sw	s2,56(s0)
1771:lib/freertos/src/queue.c **** 
1772:lib/freertos/src/queue.c **** 	return xReturn;
  75              		.loc 1 1772 2 is_stmt 1
1773:lib/freertos/src/queue.c **** }
  76              		.loc 1 1773 1 is_stmt 0
  77 0032 B240     		lw	ra,12(sp)
  78              		.cfi_remember_state
  79              		.cfi_restore 1
  80 0034 2244     		lw	s0,8(sp)
  81              		.cfi_restore 8
  82              	.LVL9:
  83 0036 2685     		mv	a0,s1
  84 0038 0249     		lw	s2,0(sp)
  85              		.cfi_restore 18
  86              	.LVL10:
  87 003a 9244     		lw	s1,4(sp)
  88              		.cfi_restore 9
  89              	.LVL11:
  90 003c 4101     		addi	sp,sp,16
  91              	.LCFI1:
  92              		.cfi_def_cfa_offset 0
  93 003e 8280     		jr	ra
  94              	.LVL12:
  95              	.L2:
  96              	.LCFI2:
  97              		.cfi_restore_state
1723:lib/freertos/src/queue.c **** 	{
  98              		.loc 1 1723 7 is_stmt 1
1723:lib/freertos/src/queue.c **** 	{
  99              		.loc 1 1723 9 is_stmt 0
 100 0040 85E0     		bne	s1,zero,.L4
GAS LISTING C:\Users\kasie\AppData\Local\Temp\ccBtjLu5.s 			page 34


1725:lib/freertos/src/queue.c **** 		pxQueue->pcWriteTo += pxQueue->uxItemSize;
 101              		.loc 1 1725 3 is_stmt 1
1725:lib/freertos/src/queue.c **** 		pxQueue->pcWriteTo += pxQueue->uxItemSize;
 102              		.loc 1 1725 12 is_stmt 0
 103 0042 0845     		lw	a0,8(a0)
 104 0044 97000000 		call	memcpy
 104      E7800000 
 105              	.LVL13:
1726:lib/freertos/src/queue.c **** 		if( pxQueue->pcWriteTo >= pxQueue->pcTail ) /*lint !e946 MISRA exception justified as comparison 
 106              		.loc 1 1726 3 is_stmt 1
1726:lib/freertos/src/queue.c **** 		if( pxQueue->pcWriteTo >= pxQueue->pcTail ) /*lint !e946 MISRA exception justified as comparison 
 107              		.loc 1 1726 22 is_stmt 0
 108 004c 1C44     		lw	a5,8(s0)
 109 004e 3840     		lw	a4,64(s0)
 110 0050 BA97     		add	a5,a5,a4
1727:lib/freertos/src/queue.c **** 		{
 111              		.loc 1 1727 5
 112 0052 5840     		lw	a4,4(s0)
1726:lib/freertos/src/queue.c **** 		if( pxQueue->pcWriteTo >= pxQueue->pcTail ) /*lint !e946 MISRA exception justified as comparison 
 113              		.loc 1 1726 22
 114 0054 1CC4     		sw	a5,8(s0)
1727:lib/freertos/src/queue.c **** 		{
 115              		.loc 1 1727 3 is_stmt 1
1727:lib/freertos/src/queue.c **** 		{
 116              		.loc 1 1727 5 is_stmt 0
 117 0056 E3EBE7FC 		bltu	a5,a4,.L3
1729:lib/freertos/src/queue.c **** 		}
 118              		.loc 1 1729 4 is_stmt 1
1729:lib/freertos/src/queue.c **** 		}
 119              		.loc 1 1729 23 is_stmt 0
 120 005a 1C40     		lw	a5,0(s0)
 121 005c 1CC4     		sw	a5,8(s0)
 122 005e F9B7     		j	.L3
 123              	.LVL14:
 124              	.L4:
1738:lib/freertos/src/queue.c **** 		pxQueue->u.pcReadFrom -= pxQueue->uxItemSize;
 125              		.loc 1 1738 3 is_stmt 1
1738:lib/freertos/src/queue.c **** 		pxQueue->u.pcReadFrom -= pxQueue->uxItemSize;
 126              		.loc 1 1738 12 is_stmt 0
 127 0060 4845     		lw	a0,12(a0)
 128 0062 97000000 		call	memcpy
 128      E7800000 
 129              	.LVL15:
1739:lib/freertos/src/queue.c **** 		if( pxQueue->u.pcReadFrom < pxQueue->pcHead ) /*lint !e946 MISRA exception justified as compariso
 130              		.loc 1 1739 3 is_stmt 1
1739:lib/freertos/src/queue.c **** 		if( pxQueue->u.pcReadFrom < pxQueue->pcHead ) /*lint !e946 MISRA exception justified as compariso
 131              		.loc 1 1739 25 is_stmt 0
 132 006a 3C40     		lw	a5,64(s0)
 133 006c 5844     		lw	a4,12(s0)
1740:lib/freertos/src/queue.c **** 		{
 134              		.loc 1 1740 5
 135 006e 1440     		lw	a3,0(s0)
1739:lib/freertos/src/queue.c **** 		if( pxQueue->u.pcReadFrom < pxQueue->pcHead ) /*lint !e946 MISRA exception justified as compariso
 136              		.loc 1 1739 25
 137 0070 B307F040 		neg	a5,a5
 138 0074 3E97     		add	a4,a4,a5
 139 0076 58C4     		sw	a4,12(s0)
GAS LISTING C:\Users\kasie\AppData\Local\Temp\ccBtjLu5.s 			page 35


1740:lib/freertos/src/queue.c **** 		{
 140              		.loc 1 1740 3 is_stmt 1
1740:lib/freertos/src/queue.c **** 		{
 141              		.loc 1 1740 5 is_stmt 0
 142 0078 6375D700 		bgeu	a4,a3,.L5
1742:lib/freertos/src/queue.c **** 		}
 143              		.loc 1 1742 4 is_stmt 1
1742:lib/freertos/src/queue.c **** 		}
 144              		.loc 1 1742 46 is_stmt 0
 145 007c 5840     		lw	a4,4(s0)
 146 007e BA97     		add	a5,a4,a5
1742:lib/freertos/src/queue.c **** 		}
 147              		.loc 1 1742 26
 148 0080 5CC4     		sw	a5,12(s0)
 149              	.L5:
1746:lib/freertos/src/queue.c **** 		}
 150              		.loc 1 1746 28 is_stmt 1
1749:lib/freertos/src/queue.c **** 		{
 151              		.loc 1 1749 3
1749:lib/freertos/src/queue.c **** 		{
 152              		.loc 1 1749 5 is_stmt 0
 153 0082 8947     		li	a5,2
 154 0084 6397F400 		bne	s1,a5,.L7
1751:lib/freertos/src/queue.c **** 			{
 155              		.loc 1 1751 4 is_stmt 1
1699:lib/freertos/src/queue.c **** UBaseType_t uxMessagesWaiting;
 156              		.loc 1 1699 12 is_stmt 0
 157 0088 8144     		li	s1,0
 158              	.LVL16:
1751:lib/freertos/src/queue.c **** 			{
 159              		.loc 1 1751 6
 160 008a E30109FA 		beq	s2,zero,.L3
1757:lib/freertos/src/queue.c **** 			}
 161              		.loc 1 1757 5 is_stmt 1
 162 008e 7D19     		addi	s2,s2,-1
 163              	.LVL17:
 164 0090 71BF     		j	.L3
 165              	.LVL18:
 166              	.L7:
1699:lib/freertos/src/queue.c **** UBaseType_t uxMessagesWaiting;
 167              		.loc 1 1699 12 is_stmt 0
 168 0092 8144     		li	s1,0
 169              	.LVL19:
 170 0094 61BF     		j	.L3
 171              		.cfi_endproc
 172              	.LFE22:
 174              		.section	.text.prvCopyDataFromQueue,"ax",@progbits
 175              		.align	1
 177              	prvCopyDataFromQueue:
 178              	.LFB23:
1774:lib/freertos/src/queue.c **** /*-----------------------------------------------------------*/
1775:lib/freertos/src/queue.c **** 
1776:lib/freertos/src/queue.c **** static void prvCopyDataFromQueue( Queue_t * const pxQueue, void * const pvBuffer )
1777:lib/freertos/src/queue.c **** {
 179              		.loc 1 1777 1 is_stmt 1
 180              		.cfi_startproc
 181              	.LVL20:
GAS LISTING C:\Users\kasie\AppData\Local\Temp\ccBtjLu5.s 			page 36


1778:lib/freertos/src/queue.c **** 	if( pxQueue->uxItemSize != ( UBaseType_t ) 0 )
 182              		.loc 1 1778 2
1777:lib/freertos/src/queue.c **** 	if( pxQueue->uxItemSize != ( UBaseType_t ) 0 )
 183              		.loc 1 1777 1 is_stmt 0
 184 0000 AA87     		mv	a5,a0
 185              		.loc 1 1778 13
 186 0002 B043     		lw	a2,64(a5)
1777:lib/freertos/src/queue.c **** 	if( pxQueue->uxItemSize != ( UBaseType_t ) 0 )
 187              		.loc 1 1777 1
 188 0004 2E85     		mv	a0,a1
 189              	.LVL21:
 190              		.loc 1 1778 4
 191 0006 11CE     		beq	a2,zero,.L11
1779:lib/freertos/src/queue.c **** 	{
1780:lib/freertos/src/queue.c **** 		pxQueue->u.pcReadFrom += pxQueue->uxItemSize;
 192              		.loc 1 1780 3 is_stmt 1
 193              		.loc 1 1780 25 is_stmt 0
 194 0008 D847     		lw	a4,12(a5)
1781:lib/freertos/src/queue.c **** 		if( pxQueue->u.pcReadFrom >= pxQueue->pcTail ) /*lint !e946 MISRA exception justified as use of t
 195              		.loc 1 1781 5
 196 000a D443     		lw	a3,4(a5)
1780:lib/freertos/src/queue.c **** 		if( pxQueue->u.pcReadFrom >= pxQueue->pcTail ) /*lint !e946 MISRA exception justified as use of t
 197              		.loc 1 1780 25
 198 000c 3297     		add	a4,a4,a2
 199 000e D8C7     		sw	a4,12(a5)
 200              		.loc 1 1781 3 is_stmt 1
 201              		.loc 1 1781 5 is_stmt 0
 202 0010 6364D700 		bltu	a4,a3,.L13
1782:lib/freertos/src/queue.c **** 		{
1783:lib/freertos/src/queue.c **** 			pxQueue->u.pcReadFrom = pxQueue->pcHead;
 203              		.loc 1 1783 4 is_stmt 1
 204              		.loc 1 1783 26 is_stmt 0
 205 0014 9843     		lw	a4,0(a5)
 206 0016 D8C7     		sw	a4,12(a5)
 207              	.L13:
1784:lib/freertos/src/queue.c **** 		}
1785:lib/freertos/src/queue.c **** 		else
1786:lib/freertos/src/queue.c **** 		{
1787:lib/freertos/src/queue.c **** 			mtCOVERAGE_TEST_MARKER();
 208              		.loc 1 1787 28 is_stmt 1
1788:lib/freertos/src/queue.c **** 		}
1789:lib/freertos/src/queue.c **** 		( void ) memcpy( ( void * ) pvBuffer, ( void * ) pxQueue->u.pcReadFrom, ( size_t ) pxQueue->uxIte
 209              		.loc 1 1789 3
 210              		.loc 1 1789 12 is_stmt 0
 211 0018 CC47     		lw	a1,12(a5)
 212              	.LVL22:
 213 001a 17030000 		tail	memcpy
 213      67000300 
 214              	.LVL23:
 215              	.L11:
1790:lib/freertos/src/queue.c **** 	}
1791:lib/freertos/src/queue.c **** }
 216              		.loc 1 1791 1
 217 0022 8280     		ret
 218              		.cfi_endproc
 219              	.LFE23:
 221              		.section	.text.prvUnlockQueue,"ax",@progbits
GAS LISTING C:\Users\kasie\AppData\Local\Temp\ccBtjLu5.s 			page 37


 222              		.align	1
 224              	prvUnlockQueue:
 225              	.LFB24:
1792:lib/freertos/src/queue.c **** /*-----------------------------------------------------------*/
1793:lib/freertos/src/queue.c **** 
1794:lib/freertos/src/queue.c **** static void prvUnlockQueue( Queue_t * const pxQueue )
1795:lib/freertos/src/queue.c **** {
 226              		.loc 1 1795 1 is_stmt 1
 227              		.cfi_startproc
 228              	.LVL24:
1796:lib/freertos/src/queue.c **** 	/* THIS FUNCTION MUST BE CALLED WITH THE SCHEDULER SUSPENDED. */
1797:lib/freertos/src/queue.c **** 
1798:lib/freertos/src/queue.c **** 	/* The lock counts contains the number of extra data items placed or
1799:lib/freertos/src/queue.c **** 	removed from the queue while the queue was locked.  When a queue is
1800:lib/freertos/src/queue.c **** 	locked items can be added or removed, but the event lists cannot be
1801:lib/freertos/src/queue.c **** 	updated. */
1802:lib/freertos/src/queue.c **** 	taskENTER_CRITICAL();
 229              		.loc 1 1802 2
1795:lib/freertos/src/queue.c **** 	/* THIS FUNCTION MUST BE CALLED WITH THE SCHEDULER SUSPENDED. */
 230              		.loc 1 1795 1 is_stmt 0
 231 0000 4111     		addi	sp,sp,-16
 232              	.LCFI3:
 233              		.cfi_def_cfa_offset 16
 234 0002 22C4     		sw	s0,8(sp)
 235              		.cfi_offset 8, -8
 236 0004 2A84     		mv	s0,a0
 237 0006 26C2     		sw	s1,4(sp)
 238 0008 4AC0     		sw	s2,0(sp)
 239 000a 06C6     		sw	ra,12(sp)
 240              		.cfi_offset 9, -12
 241              		.cfi_offset 18, -16
 242              		.cfi_offset 1, -4
 243              		.loc 1 1802 2
 244 000c 97000000 		call	vPortEnterCritical
 244      E7800000 
 245              	.LVL25:
 246              	.LBB8:
1803:lib/freertos/src/queue.c **** 	{
1804:lib/freertos/src/queue.c **** 		int8_t cTxLock = pxQueue->cTxLock;
 247              		.loc 1 1804 3 is_stmt 1
 248              		.loc 1 1804 10 is_stmt 0
 249 0014 83445404 		lbu	s1,69(s0)
1805:lib/freertos/src/queue.c **** 
1806:lib/freertos/src/queue.c **** 		/* See if data was added to the queue while it was locked. */
1807:lib/freertos/src/queue.c **** 		while( cTxLock > queueLOCKED_UNMODIFIED )
1808:lib/freertos/src/queue.c **** 		{
1809:lib/freertos/src/queue.c **** 			/* Data was posted while the queue was locked.  Are any tasks
1810:lib/freertos/src/queue.c **** 			blocked waiting for data to become available? */
1811:lib/freertos/src/queue.c **** 			#if ( configUSE_QUEUE_SETS == 1 )
1812:lib/freertos/src/queue.c **** 			{
1813:lib/freertos/src/queue.c **** 				if( pxQueue->pxQueueSetContainer != NULL )
1814:lib/freertos/src/queue.c **** 				{
1815:lib/freertos/src/queue.c **** 					if( prvNotifyQueueSetContainer( pxQueue, queueSEND_TO_BACK ) != pdFALSE )
1816:lib/freertos/src/queue.c **** 					{
1817:lib/freertos/src/queue.c **** 						/* The queue is a member of a queue set, and posting to
1818:lib/freertos/src/queue.c **** 						the queue set caused a higher priority task to unblock.
1819:lib/freertos/src/queue.c **** 						A context switch is required. */
GAS LISTING C:\Users\kasie\AppData\Local\Temp\ccBtjLu5.s 			page 38


1820:lib/freertos/src/queue.c **** 						vTaskMissedYield();
1821:lib/freertos/src/queue.c **** 					}
1822:lib/freertos/src/queue.c **** 					else
1823:lib/freertos/src/queue.c **** 					{
1824:lib/freertos/src/queue.c **** 						mtCOVERAGE_TEST_MARKER();
1825:lib/freertos/src/queue.c **** 					}
1826:lib/freertos/src/queue.c **** 				}
1827:lib/freertos/src/queue.c **** 				else
1828:lib/freertos/src/queue.c **** 				{
1829:lib/freertos/src/queue.c **** 					/* Tasks that are removed from the event list will get
1830:lib/freertos/src/queue.c **** 					added to the pending ready list as the scheduler is still
1831:lib/freertos/src/queue.c **** 					suspended. */
1832:lib/freertos/src/queue.c **** 					if( listLIST_IS_EMPTY( &( pxQueue->xTasksWaitingToReceive ) ) == pdFALSE )
1833:lib/freertos/src/queue.c **** 					{
1834:lib/freertos/src/queue.c **** 						if( xTaskRemoveFromEventList( &( pxQueue->xTasksWaitingToReceive ) ) != pdFALSE )
1835:lib/freertos/src/queue.c **** 						{
1836:lib/freertos/src/queue.c **** 							/* The task waiting has a higher priority so record that a
1837:lib/freertos/src/queue.c **** 							context	switch is required. */
1838:lib/freertos/src/queue.c **** 							vTaskMissedYield();
1839:lib/freertos/src/queue.c **** 						}
1840:lib/freertos/src/queue.c **** 						else
1841:lib/freertos/src/queue.c **** 						{
1842:lib/freertos/src/queue.c **** 							mtCOVERAGE_TEST_MARKER();
1843:lib/freertos/src/queue.c **** 						}
1844:lib/freertos/src/queue.c **** 					}
1845:lib/freertos/src/queue.c **** 					else
1846:lib/freertos/src/queue.c **** 					{
1847:lib/freertos/src/queue.c **** 						break;
1848:lib/freertos/src/queue.c **** 					}
1849:lib/freertos/src/queue.c **** 				}
1850:lib/freertos/src/queue.c **** 			}
1851:lib/freertos/src/queue.c **** 			#else /* configUSE_QUEUE_SETS */
1852:lib/freertos/src/queue.c **** 			{
1853:lib/freertos/src/queue.c **** 				/* Tasks that are removed from the event list will get added to
1854:lib/freertos/src/queue.c **** 				the pending ready list as the scheduler is still suspended. */
1855:lib/freertos/src/queue.c **** 				if( listLIST_IS_EMPTY( &( pxQueue->xTasksWaitingToReceive ) ) == pdFALSE )
1856:lib/freertos/src/queue.c **** 				{
1857:lib/freertos/src/queue.c **** 					if( xTaskRemoveFromEventList( &( pxQueue->xTasksWaitingToReceive ) ) != pdFALSE )
 250              		.loc 1 1857 36
 251 0018 13094402 		addi	s2,s0,36
1804:lib/freertos/src/queue.c **** 
 252              		.loc 1 1804 10
 253 001c E204     		slli	s1,s1,24
 254 001e E184     		srai	s1,s1,24
 255              	.LVL26:
1807:lib/freertos/src/queue.c **** 		{
 256              		.loc 1 1807 3 is_stmt 1
 257              	.L15:
1807:lib/freertos/src/queue.c **** 		{
 258              		.loc 1 1807 8 is_stmt 0
 259 0020 63419004 		bgt	s1,zero,.L18
 260              	.L16:
1858:lib/freertos/src/queue.c **** 					{
1859:lib/freertos/src/queue.c **** 						/* The task waiting has a higher priority so record that
1860:lib/freertos/src/queue.c **** 						a context switch is required. */
1861:lib/freertos/src/queue.c **** 						vTaskMissedYield();
1862:lib/freertos/src/queue.c **** 					}
GAS LISTING C:\Users\kasie\AppData\Local\Temp\ccBtjLu5.s 			page 39


1863:lib/freertos/src/queue.c **** 					else
1864:lib/freertos/src/queue.c **** 					{
1865:lib/freertos/src/queue.c **** 						mtCOVERAGE_TEST_MARKER();
1866:lib/freertos/src/queue.c **** 					}
1867:lib/freertos/src/queue.c **** 				}
1868:lib/freertos/src/queue.c **** 				else
1869:lib/freertos/src/queue.c **** 				{
1870:lib/freertos/src/queue.c **** 					break;
1871:lib/freertos/src/queue.c **** 				}
1872:lib/freertos/src/queue.c **** 			}
1873:lib/freertos/src/queue.c **** 			#endif /* configUSE_QUEUE_SETS */
1874:lib/freertos/src/queue.c **** 
1875:lib/freertos/src/queue.c **** 			--cTxLock;
1876:lib/freertos/src/queue.c **** 		}
1877:lib/freertos/src/queue.c **** 
1878:lib/freertos/src/queue.c **** 		pxQueue->cTxLock = queueUNLOCKED;
 261              		.loc 1 1878 3 is_stmt 1
 262              		.loc 1 1878 20 is_stmt 0
 263 0024 FD57     		li	a5,-1
 264 0026 A302F404 		sb	a5,69(s0)
 265              	.LBE8:
1879:lib/freertos/src/queue.c **** 	}
1880:lib/freertos/src/queue.c **** 	taskEXIT_CRITICAL();
 266              		.loc 1 1880 2 is_stmt 1
 267 002a 97000000 		call	vPortExitCritical
 267      E7800000 
 268              	.LVL27:
1881:lib/freertos/src/queue.c **** 
1882:lib/freertos/src/queue.c **** 	/* Do the same for the Rx lock. */
1883:lib/freertos/src/queue.c **** 	taskENTER_CRITICAL();
 269              		.loc 1 1883 2
 270 0032 97000000 		call	vPortEnterCritical
 270      E7800000 
 271              	.LVL28:
 272              	.LBB9:
1884:lib/freertos/src/queue.c **** 	{
1885:lib/freertos/src/queue.c **** 		int8_t cRxLock = pxQueue->cRxLock;
 273              		.loc 1 1885 3
 274              		.loc 1 1885 10 is_stmt 0
 275 003a 83444404 		lbu	s1,68(s0)
 276              	.LVL29:
1886:lib/freertos/src/queue.c **** 
1887:lib/freertos/src/queue.c **** 		while( cRxLock > queueLOCKED_UNMODIFIED )
1888:lib/freertos/src/queue.c **** 		{
1889:lib/freertos/src/queue.c **** 			if( listLIST_IS_EMPTY( &( pxQueue->xTasksWaitingToSend ) ) == pdFALSE )
1890:lib/freertos/src/queue.c **** 			{
1891:lib/freertos/src/queue.c **** 				if( xTaskRemoveFromEventList( &( pxQueue->xTasksWaitingToSend ) ) != pdFALSE )
 277              		.loc 1 1891 35
 278 003e 13090401 		addi	s2,s0,16
1885:lib/freertos/src/queue.c **** 
 279              		.loc 1 1885 10
 280 0042 E204     		slli	s1,s1,24
 281 0044 E184     		srai	s1,s1,24
 282              	.LVL30:
1887:lib/freertos/src/queue.c **** 		{
 283              		.loc 1 1887 3 is_stmt 1
 284              	.L19:
GAS LISTING C:\Users\kasie\AppData\Local\Temp\ccBtjLu5.s 			page 40


1887:lib/freertos/src/queue.c **** 		{
 285              		.loc 1 1887 8 is_stmt 0
 286 0046 634E9002 		bgt	s1,zero,.L22
 287              	.L20:
1892:lib/freertos/src/queue.c **** 				{
1893:lib/freertos/src/queue.c **** 					vTaskMissedYield();
1894:lib/freertos/src/queue.c **** 				}
1895:lib/freertos/src/queue.c **** 				else
1896:lib/freertos/src/queue.c **** 				{
1897:lib/freertos/src/queue.c **** 					mtCOVERAGE_TEST_MARKER();
1898:lib/freertos/src/queue.c **** 				}
1899:lib/freertos/src/queue.c **** 
1900:lib/freertos/src/queue.c **** 				--cRxLock;
1901:lib/freertos/src/queue.c **** 			}
1902:lib/freertos/src/queue.c **** 			else
1903:lib/freertos/src/queue.c **** 			{
1904:lib/freertos/src/queue.c **** 				break;
1905:lib/freertos/src/queue.c **** 			}
1906:lib/freertos/src/queue.c **** 		}
1907:lib/freertos/src/queue.c **** 
1908:lib/freertos/src/queue.c **** 		pxQueue->cRxLock = queueUNLOCKED;
 288              		.loc 1 1908 3 is_stmt 1
 289              		.loc 1 1908 20 is_stmt 0
 290 004a FD57     		li	a5,-1
 291 004c 2302F404 		sb	a5,68(s0)
 292              	.LBE9:
1909:lib/freertos/src/queue.c **** 	}
1910:lib/freertos/src/queue.c **** 	taskEXIT_CRITICAL();
 293              		.loc 1 1910 2 is_stmt 1
1911:lib/freertos/src/queue.c **** }
 294              		.loc 1 1911 1 is_stmt 0
 295 0050 2244     		lw	s0,8(sp)
 296              		.cfi_remember_state
 297              		.cfi_restore 8
 298              	.LVL31:
 299 0052 B240     		lw	ra,12(sp)
 300              		.cfi_restore 1
 301 0054 9244     		lw	s1,4(sp)
 302              		.cfi_restore 9
 303              	.LVL32:
 304 0056 0249     		lw	s2,0(sp)
 305              		.cfi_restore 18
 306              	.LVL33:
 307 0058 4101     		addi	sp,sp,16
 308              	.LCFI4:
 309              		.cfi_def_cfa_offset 0
1910:lib/freertos/src/queue.c **** }
 310              		.loc 1 1910 2
 311 005a 17030000 		tail	vPortExitCritical
 311      67000300 
 312              	.LVL34:
 313              	.L18:
 314              	.LCFI5:
 315              		.cfi_restore_state
 316              	.LBB10:
1855:lib/freertos/src/queue.c **** 				{
 317              		.loc 1 1855 5 is_stmt 1
GAS LISTING C:\Users\kasie\AppData\Local\Temp\ccBtjLu5.s 			page 41


1855:lib/freertos/src/queue.c **** 				{
 318              		.loc 1 1855 7 is_stmt 0
 319 0062 5C50     		lw	a5,36(s0)
 320 0064 E1D3     		beq	a5,zero,.L16
1857:lib/freertos/src/queue.c **** 					{
 321              		.loc 1 1857 6 is_stmt 1
1857:lib/freertos/src/queue.c **** 					{
 322              		.loc 1 1857 10 is_stmt 0
 323 0066 4A85     		mv	a0,s2
 324 0068 97000000 		call	xTaskRemoveFromEventList
 324      E7800000 
 325              	.LVL35:
1857:lib/freertos/src/queue.c **** 					{
 326              		.loc 1 1857 8
 327 0070 09C5     		beq	a0,zero,.L17
1861:lib/freertos/src/queue.c **** 					}
 328              		.loc 1 1861 7 is_stmt 1
 329 0072 97000000 		call	vTaskMissedYield
 329      E7800000 
 330              	.LVL36:
 331              	.L17:
1865:lib/freertos/src/queue.c **** 					}
 332              		.loc 1 1865 31
1875:lib/freertos/src/queue.c **** 		}
 333              		.loc 1 1875 4
 334 007a FD14     		addi	s1,s1,-1
 335              	.LVL37:
 336 007c E204     		slli	s1,s1,24
 337 007e E184     		srai	s1,s1,24
 338              	.LVL38:
 339 0080 45B7     		j	.L15
 340              	.LVL39:
 341              	.L22:
 342              	.LBE10:
 343              	.LBB11:
1889:lib/freertos/src/queue.c **** 			{
 344              		.loc 1 1889 4
1889:lib/freertos/src/queue.c **** 			{
 345              		.loc 1 1889 6 is_stmt 0
 346 0082 1C48     		lw	a5,16(s0)
 347 0084 F9D3     		beq	a5,zero,.L20
1891:lib/freertos/src/queue.c **** 				{
 348              		.loc 1 1891 5 is_stmt 1
1891:lib/freertos/src/queue.c **** 				{
 349              		.loc 1 1891 9 is_stmt 0
 350 0086 4A85     		mv	a0,s2
 351 0088 97000000 		call	xTaskRemoveFromEventList
 351      E7800000 
 352              	.LVL40:
1891:lib/freertos/src/queue.c **** 				{
 353              		.loc 1 1891 7
 354 0090 09C5     		beq	a0,zero,.L21
1893:lib/freertos/src/queue.c **** 				}
 355              		.loc 1 1893 6 is_stmt 1
 356 0092 97000000 		call	vTaskMissedYield
 356      E7800000 
 357              	.LVL41:
GAS LISTING C:\Users\kasie\AppData\Local\Temp\ccBtjLu5.s 			page 42


 358              	.L21:
1897:lib/freertos/src/queue.c **** 				}
 359              		.loc 1 1897 30
1900:lib/freertos/src/queue.c **** 			}
 360              		.loc 1 1900 5
 361 009a FD14     		addi	s1,s1,-1
 362              	.LVL42:
 363 009c E204     		slli	s1,s1,24
 364 009e E184     		srai	s1,s1,24
 365              	.LVL43:
 366 00a0 5DB7     		j	.L19
 367              	.LBE11:
 368              		.cfi_endproc
 369              	.LFE24:
 371              		.section	.text.xQueueGenericReset,"ax",@progbits
 372              		.align	1
 373              		.globl	xQueueGenericReset
 375              	xQueueGenericReset:
 376              	.LFB3:
 280:lib/freertos/src/queue.c **** Queue_t * const pxQueue = ( Queue_t * ) xQueue;
 377              		.loc 1 280 1
 378              		.cfi_startproc
 379              	.LVL44:
 281:lib/freertos/src/queue.c **** 
 380              		.loc 1 281 1
 283:lib/freertos/src/queue.c **** 
 381              		.loc 1 283 2
 382 0000 01E5     		bne	a0,zero,.L37
 283:lib/freertos/src/queue.c **** 
 383              		.loc 1 283 2 discriminator 3
 384              	.LBB17:
 283:lib/freertos/src/queue.c **** 
 385              		.loc 1 283 2 discriminator 3
 283:lib/freertos/src/queue.c **** 
 386              		.loc 1 283 2 discriminator 3
 283:lib/freertos/src/queue.c **** 
 387              		.loc 1 283 2 discriminator 3
 388              	 #APP
 389              	# 283 "lib/freertos/src/queue.c" 1
 390              		csrrc a5, mstatus, 8
 391              	# 0 "" 2
 392              	.LVL45:
 283:lib/freertos/src/queue.c **** 
 393              		.loc 1 283 2 discriminator 3
 394              	 #NO_APP
 395              	.L38:
 396              	.LBE17:
 283:lib/freertos/src/queue.c **** 
 397              		.loc 1 283 2 discriminator 1
 283:lib/freertos/src/queue.c **** 
 398              		.loc 1 283 2 discriminator 1
 283:lib/freertos/src/queue.c **** 
 399              		.loc 1 283 2 discriminator 1
 400 0006 01A0     		j	.L38
 401              	.L37:
 280:lib/freertos/src/queue.c **** Queue_t * const pxQueue = ( Queue_t * ) xQueue;
 402              		.loc 1 280 1 is_stmt 0
GAS LISTING C:\Users\kasie\AppData\Local\Temp\ccBtjLu5.s 			page 43


 403 0008 4111     		addi	sp,sp,-16
 404              	.LCFI6:
 405              		.cfi_def_cfa_offset 16
 406 000a 22C4     		sw	s0,8(sp)
 407 000c 26C2     		sw	s1,4(sp)
 408              		.cfi_offset 8, -8
 409              		.cfi_offset 9, -12
 410 000e 2A84     		mv	s0,a0
 411              	.LVL46:
 412 0010 06C6     		sw	ra,12(sp)
 413              		.cfi_offset 1, -4
 414 0012 AE84     		mv	s1,a1
 415              	.LVL47:
 416              	.LBB18:
 417              	.LBB19:
 283:lib/freertos/src/queue.c **** 
 418              		.loc 1 283 25 is_stmt 1
 285:lib/freertos/src/queue.c **** 	{
 419              		.loc 1 285 2
 420 0014 97000000 		call	vPortEnterCritical
 420      E7800000 
 421              	.LVL48:
 287:lib/freertos/src/queue.c **** 		pxQueue->uxMessagesWaiting = ( UBaseType_t ) 0U;
 422              		.loc 1 287 3
 287:lib/freertos/src/queue.c **** 		pxQueue->uxMessagesWaiting = ( UBaseType_t ) 0U;
 423              		.loc 1 287 68 is_stmt 0
 424 001c 3040     		lw	a2,64(s0)
 287:lib/freertos/src/queue.c **** 		pxQueue->uxMessagesWaiting = ( UBaseType_t ) 0U;
 425              		.loc 1 287 59
 426 001e 585C     		lw	a4,60(s0)
 287:lib/freertos/src/queue.c **** 		pxQueue->uxMessagesWaiting = ( UBaseType_t ) 0U;
 427              		.loc 1 287 28
 428 0020 1440     		lw	a3,0(s0)
 288:lib/freertos/src/queue.c **** 		pxQueue->pcWriteTo = pxQueue->pcHead;
 429              		.loc 1 288 30
 430 0022 232C0402 		sw	zero,56(s0)
 287:lib/freertos/src/queue.c **** 		pxQueue->uxMessagesWaiting = ( UBaseType_t ) 0U;
 431              		.loc 1 287 59
 432 0026 B307E602 		mul	a5,a2,a4
 289:lib/freertos/src/queue.c **** 		pxQueue->u.pcReadFrom = pxQueue->pcHead + ( ( pxQueue->uxLength - ( UBaseType_t ) 1U ) * pxQueue-
 433              		.loc 1 289 22
 434 002a 14C4     		sw	a3,8(s0)
 287:lib/freertos/src/queue.c **** 		pxQueue->uxMessagesWaiting = ( UBaseType_t ) 0U;
 435              		.loc 1 287 37
 436 002c 3387F600 		add	a4,a3,a5
 290:lib/freertos/src/queue.c **** 		pxQueue->cRxLock = queueUNLOCKED;
 437              		.loc 1 290 43
 438 0030 918F     		sub	a5,a5,a2
 439 0032 B697     		add	a5,a3,a5
 290:lib/freertos/src/queue.c **** 		pxQueue->cRxLock = queueUNLOCKED;
 440              		.loc 1 290 25
 441 0034 5CC4     		sw	a5,12(s0)
 291:lib/freertos/src/queue.c **** 		pxQueue->cTxLock = queueUNLOCKED;
 442              		.loc 1 291 20
 443 0036 FD57     		li	a5,-1
 444 0038 2302F404 		sb	a5,68(s0)
 287:lib/freertos/src/queue.c **** 		pxQueue->uxMessagesWaiting = ( UBaseType_t ) 0U;
GAS LISTING C:\Users\kasie\AppData\Local\Temp\ccBtjLu5.s 			page 44


 445              		.loc 1 287 19
 446 003c 58C0     		sw	a4,4(s0)
 288:lib/freertos/src/queue.c **** 		pxQueue->pcWriteTo = pxQueue->pcHead;
 447              		.loc 1 288 3 is_stmt 1
 289:lib/freertos/src/queue.c **** 		pxQueue->u.pcReadFrom = pxQueue->pcHead + ( ( pxQueue->uxLength - ( UBaseType_t ) 1U ) * pxQueue-
 448              		.loc 1 289 3
 290:lib/freertos/src/queue.c **** 		pxQueue->cRxLock = queueUNLOCKED;
 449              		.loc 1 290 3
 291:lib/freertos/src/queue.c **** 		pxQueue->cTxLock = queueUNLOCKED;
 450              		.loc 1 291 3
 292:lib/freertos/src/queue.c **** 
 451              		.loc 1 292 3
 292:lib/freertos/src/queue.c **** 
 452              		.loc 1 292 20 is_stmt 0
 453 003e A302F404 		sb	a5,69(s0)
 294:lib/freertos/src/queue.c **** 		{
 454              		.loc 1 294 3 is_stmt 1
 294:lib/freertos/src/queue.c **** 		{
 455              		.loc 1 294 5 is_stmt 0
 456 0042 85E8     		bne	s1,zero,.L39
 301:lib/freertos/src/queue.c **** 			{
 457              		.loc 1 301 4 is_stmt 1
 301:lib/freertos/src/queue.c **** 			{
 458              		.loc 1 301 6 is_stmt 0
 459 0044 1C48     		lw	a5,16(s0)
 460 0046 81CF     		beq	a5,zero,.L41
 303:lib/freertos/src/queue.c **** 				{
 461              		.loc 1 303 5 is_stmt 1
 303:lib/freertos/src/queue.c **** 				{
 462              		.loc 1 303 9 is_stmt 0
 463 0048 13050401 		addi	a0,s0,16
 464 004c 97000000 		call	xTaskRemoveFromEventList
 464      E7800000 
 465              	.LVL49:
 303:lib/freertos/src/queue.c **** 				{
 466              		.loc 1 303 7
 467 0054 09C5     		beq	a0,zero,.L41
 305:lib/freertos/src/queue.c **** 				}
 468              		.loc 1 305 6 is_stmt 1
 469              	.LBB20:
 305:lib/freertos/src/queue.c **** 				}
 470              		.loc 1 305 6
 471 0056 13068002 		li	a2,40
 305:lib/freertos/src/queue.c **** 				}
 472              		.loc 1 305 6
 473              	 #APP
 474              	# 305 "lib/freertos/src/queue.c" 1
 305:lib/freertos/src/queue.c **** 				}
 475              		ecall
 476              	# 0 "" 2
 477              		.loc 1 305 6
 478              	 #NO_APP
 479              	.LBE20:
 305:lib/freertos/src/queue.c **** 				}
 480              		.loc 1 305 38
 481              	.L41:
 324:lib/freertos/src/queue.c **** 
GAS LISTING C:\Users\kasie\AppData\Local\Temp\ccBtjLu5.s 			page 45


 482              		.loc 1 324 2
 483 005e 97000000 		call	vPortExitCritical
 483      E7800000 
 484              	.LVL50:
 328:lib/freertos/src/queue.c **** }
 485              		.loc 1 328 2
 486              	.LBE19:
 487              	.LBE18:
 329:lib/freertos/src/queue.c **** /*-----------------------------------------------------------*/
 488              		.loc 1 329 1 is_stmt 0
 489 0066 B240     		lw	ra,12(sp)
 490              		.cfi_remember_state
 491              		.cfi_restore 1
 492 0068 2244     		lw	s0,8(sp)
 493              		.cfi_restore 8
 494              	.LVL51:
 495 006a 9244     		lw	s1,4(sp)
 496              		.cfi_restore 9
 497              	.LVL52:
 498 006c 0545     		li	a0,1
 499 006e 4101     		addi	sp,sp,16
 500              	.LCFI7:
 501              		.cfi_def_cfa_offset 0
 502 0070 8280     		jr	ra
 503              	.LVL53:
 504              	.L39:
 505              	.LCFI8:
 506              		.cfi_restore_state
 507              	.LBB22:
 508              	.LBB21:
 320:lib/freertos/src/queue.c **** 			vListInitialise( &( pxQueue->xTasksWaitingToReceive ) );
 509              		.loc 1 320 4 is_stmt 1
 510 0072 13050401 		addi	a0,s0,16
 511 0076 97000000 		call	vListInitialise
 511      E7800000 
 512              	.LVL54:
 321:lib/freertos/src/queue.c **** 		}
 513              		.loc 1 321 4
 514 007e 13054402 		addi	a0,s0,36
 515 0082 97000000 		call	vListInitialise
 515      E7800000 
 516              	.LVL55:
 517 008a D1BF     		j	.L41
 518              	.LBE21:
 519              	.LBE22:
 520              		.cfi_endproc
 521              	.LFE3:
 523              		.section	.text.xQueueGenericCreate,"ax",@progbits
 524              		.align	1
 525              		.globl	xQueueGenericCreate
 527              	xQueueGenericCreate:
 528              	.LFB4:
 387:lib/freertos/src/queue.c **** 	Queue_t *pxNewQueue;
 529              		.loc 1 387 2
 530              		.cfi_startproc
 531              	.LVL56:
 388:lib/freertos/src/queue.c **** 	size_t xQueueSizeInBytes;
GAS LISTING C:\Users\kasie\AppData\Local\Temp\ccBtjLu5.s 			page 46


 532              		.loc 1 388 2
 389:lib/freertos/src/queue.c **** 	uint8_t *pucQueueStorage;
 533              		.loc 1 389 2
 390:lib/freertos/src/queue.c **** 
 534              		.loc 1 390 2
 392:lib/freertos/src/queue.c **** 
 535              		.loc 1 392 3
 536 0000 01E5     		bne	a0,zero,.L49
 392:lib/freertos/src/queue.c **** 
 537              		.loc 1 392 3 discriminator 3
 538              	.LBB29:
 392:lib/freertos/src/queue.c **** 
 539              		.loc 1 392 3 discriminator 3
 392:lib/freertos/src/queue.c **** 
 540              		.loc 1 392 3 discriminator 3
 392:lib/freertos/src/queue.c **** 
 541              		.loc 1 392 3 discriminator 3
 542              	 #APP
 543              	# 392 "lib/freertos/src/queue.c" 1
 544              		csrrc a5, mstatus, 8
 545              	# 0 "" 2
 546              	.LVL57:
 392:lib/freertos/src/queue.c **** 
 547              		.loc 1 392 3 discriminator 3
 548              	 #NO_APP
 549              	.L50:
 550              	.LBE29:
 392:lib/freertos/src/queue.c **** 
 551              		.loc 1 392 3 discriminator 1
 392:lib/freertos/src/queue.c **** 
 552              		.loc 1 392 3 discriminator 1
 392:lib/freertos/src/queue.c **** 
 553              		.loc 1 392 3 discriminator 1
 554 0006 01A0     		j	.L50
 555              	.L49:
 387:lib/freertos/src/queue.c **** 	Queue_t *pxNewQueue;
 556              		.loc 1 387 2 is_stmt 0
 557 0008 0111     		addi	sp,sp,-32
 558              	.LCFI9:
 559              		.cfi_def_cfa_offset 32
 560 000a 4AC8     		sw	s2,16(sp)
 561              		.cfi_offset 18, -16
 562 000c 2A89     		mv	s2,a0
 563              	.LVL58:
 564              	.LBB30:
 565              	.LBB31:
 403:lib/freertos/src/queue.c **** 		}
 566              		.loc 1 403 22
 567 000e 3305B502 		mul	a0,a0,a1
 568              	.LVL59:
 569              	.LBE31:
 570              	.LBE30:
 387:lib/freertos/src/queue.c **** 	Queue_t *pxNewQueue;
 571              		.loc 1 387 2
 572 0012 22CC     		sw	s0,24(sp)
 573 0014 26CA     		sw	s1,20(sp)
 574 0016 4EC6     		sw	s3,12(sp)
GAS LISTING C:\Users\kasie\AppData\Local\Temp\ccBtjLu5.s 			page 47


 575 0018 06CE     		sw	ra,28(sp)
 576              		.cfi_offset 8, -8
 577              		.cfi_offset 9, -12
 578              		.cfi_offset 19, -20
 579              		.cfi_offset 1, -4
 580 001a B289     		mv	s3,a2
 581              	.LVL60:
 582              	.LBB37:
 583              	.LBB36:
 392:lib/freertos/src/queue.c **** 
 584              		.loc 1 392 52 is_stmt 1
 394:lib/freertos/src/queue.c **** 		{
 585              		.loc 1 394 3
 406:lib/freertos/src/queue.c **** 
 586              		.loc 1 406 3
 587 001c AE84     		mv	s1,a1
 406:lib/freertos/src/queue.c **** 
 588              		.loc 1 406 30 is_stmt 0
 589 001e 13050505 		addi	a0,a0,80
 590 0022 97000000 		call	pvPortMalloc
 590      E7800000 
 591              	.LVL61:
 592 002a 2A84     		mv	s0,a0
 593              	.LVL62:
 408:lib/freertos/src/queue.c **** 		{
 594              		.loc 1 408 3 is_stmt 1
 408:lib/freertos/src/queue.c **** 		{
 595              		.loc 1 408 5 is_stmt 0
 596 002c 0DC1     		beq	a0,zero,.L48
 412:lib/freertos/src/queue.c **** 
 597              		.loc 1 412 4 is_stmt 1
 598              	.LVL63:
 423:lib/freertos/src/queue.c **** 		}
 599              		.loc 1 423 4
 600              	.LBB32:
 601              	.LBB33:
 436:lib/freertos/src/queue.c **** 
 602              		.loc 1 436 2
 438:lib/freertos/src/queue.c **** 	{
 603              		.loc 1 438 2
 438:lib/freertos/src/queue.c **** 	{
 604              		.loc 1 438 4 is_stmt 0
 605 002e AA87     		mv	a5,a0
 606 0030 99C0     		beq	s1,zero,.L52
 607              	.LBE33:
 608              	.LBE32:
 412:lib/freertos/src/queue.c **** 
 609              		.loc 1 412 20
 610 0032 93070505 		addi	a5,a0,80
 611              	.LVL64:
 612              	.LBB35:
 613              	.LBB34:
 449:lib/freertos/src/queue.c **** 	}
 614              		.loc 1 449 3 is_stmt 1
 615              	.L52:
 616 0036 1CC0     		sw	a5,0(s0)
 454:lib/freertos/src/queue.c **** 	pxNewQueue->uxItemSize = uxItemSize;
GAS LISTING C:\Users\kasie\AppData\Local\Temp\ccBtjLu5.s 			page 48


 617              		.loc 1 454 2
 454:lib/freertos/src/queue.c **** 	pxNewQueue->uxItemSize = uxItemSize;
 618              		.loc 1 454 23 is_stmt 0
 619 0038 232E2403 		sw	s2,60(s0)
 455:lib/freertos/src/queue.c **** 	( void ) xQueueGenericReset( pxNewQueue, pdTRUE );
 620              		.loc 1 455 2 is_stmt 1
 455:lib/freertos/src/queue.c **** 	( void ) xQueueGenericReset( pxNewQueue, pdTRUE );
 621              		.loc 1 455 25 is_stmt 0
 622 003c 24C0     		sw	s1,64(s0)
 456:lib/freertos/src/queue.c **** 
 623              		.loc 1 456 2 is_stmt 1
 456:lib/freertos/src/queue.c **** 
 624              		.loc 1 456 11 is_stmt 0
 625 003e 8545     		li	a1,1
 626 0040 2285     		mv	a0,s0
 627 0042 97000000 		call	xQueueGenericReset
 627      E7800000 
 628              	.LVL65:
 460:lib/freertos/src/queue.c **** 	}
 629              		.loc 1 460 3 is_stmt 1
 460:lib/freertos/src/queue.c **** 	}
 630              		.loc 1 460 27 is_stmt 0
 631 004a 23063405 		sb	s3,76(s0)
 470:lib/freertos/src/queue.c **** }
 632              		.loc 1 470 33 is_stmt 1
 633              	.LBE34:
 634              	.LBE35:
 426:lib/freertos/src/queue.c **** 	}
 635              		.loc 1 426 3
 636              	.LVL66:
 637              	.LBE36:
 638              	.LBE37:
 426:lib/freertos/src/queue.c **** 	}
 639              		.loc 1 426 3
 640              	.L48:
 427:lib/freertos/src/queue.c **** 
 641              		.loc 1 427 2 is_stmt 0
 642 004e 2285     		mv	a0,s0
 643 0050 F240     		lw	ra,28(sp)
 644              		.cfi_restore 1
 645 0052 6244     		lw	s0,24(sp)
 646              		.cfi_restore 8
 647 0054 D244     		lw	s1,20(sp)
 648              		.cfi_restore 9
 649              	.LVL67:
 650 0056 4249     		lw	s2,16(sp)
 651              		.cfi_restore 18
 652              	.LVL68:
 653 0058 B249     		lw	s3,12(sp)
 654              		.cfi_restore 19
 655 005a 0561     		addi	sp,sp,32
 656              	.LCFI10:
 657              		.cfi_def_cfa_offset 0
 658 005c 8280     		jr	ra
 659              		.cfi_endproc
 660              	.LFE4:
 662              		.section	.text.xQueueCreateCountingSemaphore,"ax",@progbits
GAS LISTING C:\Users\kasie\AppData\Local\Temp\ccBtjLu5.s 			page 49


 663              		.align	1
 664              		.globl	xQueueCreateCountingSemaphore
 666              	xQueueCreateCountingSemaphore:
 667              	.LFB8:
 698:lib/freertos/src/queue.c **** 	QueueHandle_t xHandle;
 668              		.loc 1 698 2 is_stmt 1
 669              		.cfi_startproc
 670              	.LVL69:
 699:lib/freertos/src/queue.c **** 
 671              		.loc 1 699 2
 701:lib/freertos/src/queue.c **** 		configASSERT( uxInitialCount <= uxMaxCount );
 672              		.loc 1 701 3
 673 0000 01E5     		bne	a0,zero,.L61
 701:lib/freertos/src/queue.c **** 		configASSERT( uxInitialCount <= uxMaxCount );
 674              		.loc 1 701 3 discriminator 3
 675              	.LBB38:
 701:lib/freertos/src/queue.c **** 		configASSERT( uxInitialCount <= uxMaxCount );
 676              		.loc 1 701 3 discriminator 3
 701:lib/freertos/src/queue.c **** 		configASSERT( uxInitialCount <= uxMaxCount );
 677              		.loc 1 701 3 discriminator 3
 701:lib/freertos/src/queue.c **** 		configASSERT( uxInitialCount <= uxMaxCount );
 678              		.loc 1 701 3 discriminator 3
 679              	 #APP
 680              	# 701 "lib/freertos/src/queue.c" 1
 681              		csrrc a5, mstatus, 8
 682              	# 0 "" 2
 683              	.LVL70:
 701:lib/freertos/src/queue.c **** 		configASSERT( uxInitialCount <= uxMaxCount );
 684              		.loc 1 701 3 discriminator 3
 685              	 #NO_APP
 686              	.L62:
 687              	.LBE38:
 701:lib/freertos/src/queue.c **** 		configASSERT( uxInitialCount <= uxMaxCount );
 688              		.loc 1 701 3 discriminator 1
 701:lib/freertos/src/queue.c **** 		configASSERT( uxInitialCount <= uxMaxCount );
 689              		.loc 1 701 3 discriminator 1
 701:lib/freertos/src/queue.c **** 		configASSERT( uxInitialCount <= uxMaxCount );
 690              		.loc 1 701 3 discriminator 1
 691 0006 01A0     		j	.L62
 692              	.L61:
 701:lib/freertos/src/queue.c **** 		configASSERT( uxInitialCount <= uxMaxCount );
 693              		.loc 1 701 34 discriminator 2
 702:lib/freertos/src/queue.c **** 
 694              		.loc 1 702 3 discriminator 2
 695 0008 6375B500 		bgeu	a0,a1,.L63
 702:lib/freertos/src/queue.c **** 
 696              		.loc 1 702 3 discriminator 3
 697              	.LBB39:
 702:lib/freertos/src/queue.c **** 
 698              		.loc 1 702 3 discriminator 3
 702:lib/freertos/src/queue.c **** 
 699              		.loc 1 702 3 discriminator 3
 702:lib/freertos/src/queue.c **** 
 700              		.loc 1 702 3 discriminator 3
 701              	 #APP
 702              	# 702 "lib/freertos/src/queue.c" 1
 703              		csrrc a5, mstatus, 8
GAS LISTING C:\Users\kasie\AppData\Local\Temp\ccBtjLu5.s 			page 50


 704              	# 0 "" 2
 705              	.LVL71:
 702:lib/freertos/src/queue.c **** 
 706              		.loc 1 702 3 discriminator 3
 707              	 #NO_APP
 708              	.L64:
 709              	.LBE39:
 702:lib/freertos/src/queue.c **** 
 710              		.loc 1 702 3 discriminator 2
 702:lib/freertos/src/queue.c **** 
 711              		.loc 1 702 3 discriminator 2
 702:lib/freertos/src/queue.c **** 
 712              		.loc 1 702 3 discriminator 2
 713 0010 01A0     		j	.L64
 714              	.L63:
 698:lib/freertos/src/queue.c **** 	QueueHandle_t xHandle;
 715              		.loc 1 698 2 is_stmt 0 discriminator 2
 716 0012 4111     		addi	sp,sp,-16
 717              	.LCFI11:
 718              		.cfi_def_cfa_offset 16
 719 0014 22C4     		sw	s0,8(sp)
 704:lib/freertos/src/queue.c **** 
 720              		.loc 1 704 13 discriminator 2
 721 0016 0946     		li	a2,2
 722              		.cfi_offset 8, -8
 723 0018 2E84     		mv	s0,a1
 702:lib/freertos/src/queue.c **** 
 724              		.loc 1 702 47 is_stmt 1 discriminator 2
 704:lib/freertos/src/queue.c **** 
 725              		.loc 1 704 3 discriminator 2
 704:lib/freertos/src/queue.c **** 
 726              		.loc 1 704 13 is_stmt 0 discriminator 2
 727 001a 8145     		li	a1,0
 728              	.LVL72:
 698:lib/freertos/src/queue.c **** 	QueueHandle_t xHandle;
 729              		.loc 1 698 2 discriminator 2
 730 001c 06C6     		sw	ra,12(sp)
 731              		.cfi_offset 1, -4
 704:lib/freertos/src/queue.c **** 
 732              		.loc 1 704 13 discriminator 2
 733 001e 97000000 		call	xQueueGenericCreate
 733      E7800000 
 734              	.LVL73:
 706:lib/freertos/src/queue.c **** 		{
 735              		.loc 1 706 3 is_stmt 1 discriminator 2
 706:lib/freertos/src/queue.c **** 		{
 736              		.loc 1 706 5 is_stmt 0 discriminator 2
 737 0026 11C1     		beq	a0,zero,.L60
 708:lib/freertos/src/queue.c **** 
 738              		.loc 1 708 4 is_stmt 1
 708:lib/freertos/src/queue.c **** 
 739              		.loc 1 708 49 is_stmt 0
 740 0028 00DD     		sw	s0,56(a0)
 710:lib/freertos/src/queue.c **** 		}
 741              		.loc 1 710 36 is_stmt 1
 714:lib/freertos/src/queue.c **** 		}
 742              		.loc 1 714 43
GAS LISTING C:\Users\kasie\AppData\Local\Temp\ccBtjLu5.s 			page 51


 717:lib/freertos/src/queue.c **** 	}
 743              		.loc 1 717 3
 744              	.L60:
 718:lib/freertos/src/queue.c **** 
 745              		.loc 1 718 2 is_stmt 0
 746 002a B240     		lw	ra,12(sp)
 747              		.cfi_restore 1
 748 002c 2244     		lw	s0,8(sp)
 749              		.cfi_restore 8
 750              	.LVL74:
 751 002e 4101     		addi	sp,sp,16
 752              	.LCFI12:
 753              		.cfi_def_cfa_offset 0
 754 0030 8280     		jr	ra
 755              		.cfi_endproc
 756              	.LFE8:
 758              		.section	.text.xQueueGenericSend,"ax",@progbits
 759              		.align	1
 760              		.globl	xQueueGenericSend
 762              	xQueueGenericSend:
 763              	.LFB9:
 724:lib/freertos/src/queue.c **** BaseType_t xEntryTimeSet = pdFALSE, xYieldRequired;
 764              		.loc 1 724 1 is_stmt 1
 765              		.cfi_startproc
 766              	.LVL75:
 725:lib/freertos/src/queue.c **** TimeOut_t xTimeOut;
 767              		.loc 1 725 1
 726:lib/freertos/src/queue.c **** Queue_t * const pxQueue = ( Queue_t * ) xQueue;
 768              		.loc 1 726 1
 727:lib/freertos/src/queue.c **** 
 769              		.loc 1 727 1
 729:lib/freertos/src/queue.c **** 	configASSERT( !( ( pvItemToQueue == NULL ) && ( pxQueue->uxItemSize != ( UBaseType_t ) 0U ) ) );
 770              		.loc 1 729 2
 724:lib/freertos/src/queue.c **** BaseType_t xEntryTimeSet = pdFALSE, xYieldRequired;
 771              		.loc 1 724 1 is_stmt 0
 772 0000 3971     		addi	sp,sp,-64
 773              	.LCFI13:
 774              		.cfi_def_cfa_offset 64
 775 0002 06DE     		sw	ra,60(sp)
 776 0004 22DC     		sw	s0,56(sp)
 777 0006 26DA     		sw	s1,52(sp)
 778 0008 4AD8     		sw	s2,48(sp)
 779 000a 4ED6     		sw	s3,44(sp)
 780 000c 52D4     		sw	s4,40(sp)
 781 000e 56D2     		sw	s5,36(sp)
 782              		.cfi_offset 1, -4
 783              		.cfi_offset 8, -8
 784              		.cfi_offset 9, -12
 785              		.cfi_offset 18, -16
 786              		.cfi_offset 19, -20
 787              		.cfi_offset 20, -24
 788              		.cfi_offset 21, -28
 724:lib/freertos/src/queue.c **** BaseType_t xEntryTimeSet = pdFALSE, xYieldRequired;
 789              		.loc 1 724 1
 790 0010 32C6     		sw	a2,12(sp)
 729:lib/freertos/src/queue.c **** 	configASSERT( !( ( pvItemToQueue == NULL ) && ( pxQueue->uxItemSize != ( UBaseType_t ) 0U ) ) );
 791              		.loc 1 729 2
GAS LISTING C:\Users\kasie\AppData\Local\Temp\ccBtjLu5.s 			page 52


 792 0012 01E5     		bne	a0,zero,.L72
 729:lib/freertos/src/queue.c **** 	configASSERT( !( ( pvItemToQueue == NULL ) && ( pxQueue->uxItemSize != ( UBaseType_t ) 0U ) ) );
 793              		.loc 1 729 2 is_stmt 1 discriminator 3
 794              	.LBB49:
 729:lib/freertos/src/queue.c **** 	configASSERT( !( ( pvItemToQueue == NULL ) && ( pxQueue->uxItemSize != ( UBaseType_t ) 0U ) ) );
 795              		.loc 1 729 2 discriminator 3
 729:lib/freertos/src/queue.c **** 	configASSERT( !( ( pvItemToQueue == NULL ) && ( pxQueue->uxItemSize != ( UBaseType_t ) 0U ) ) );
 796              		.loc 1 729 2 discriminator 3
 729:lib/freertos/src/queue.c **** 	configASSERT( !( ( pvItemToQueue == NULL ) && ( pxQueue->uxItemSize != ( UBaseType_t ) 0U ) ) );
 797              		.loc 1 729 2 discriminator 3
 798              	 #APP
 799              	# 729 "lib/freertos/src/queue.c" 1
 800              		csrrc a5, mstatus, 8
 801              	# 0 "" 2
 802              	.LVL76:
 729:lib/freertos/src/queue.c **** 	configASSERT( !( ( pvItemToQueue == NULL ) && ( pxQueue->uxItemSize != ( UBaseType_t ) 0U ) ) );
 803              		.loc 1 729 2 discriminator 3
 804              	 #NO_APP
 805              	.L73:
 806              	.LBE49:
 729:lib/freertos/src/queue.c **** 	configASSERT( !( ( pvItemToQueue == NULL ) && ( pxQueue->uxItemSize != ( UBaseType_t ) 0U ) ) );
 807              		.loc 1 729 2 discriminator 1
 729:lib/freertos/src/queue.c **** 	configASSERT( !( ( pvItemToQueue == NULL ) && ( pxQueue->uxItemSize != ( UBaseType_t ) 0U ) ) );
 808              		.loc 1 729 2 discriminator 1
 729:lib/freertos/src/queue.c **** 	configASSERT( !( ( pvItemToQueue == NULL ) && ( pxQueue->uxItemSize != ( UBaseType_t ) 0U ) ) );
 809              		.loc 1 729 2 discriminator 1
 810 0018 01A0     		j	.L73
 811              	.L72:
 729:lib/freertos/src/queue.c **** 	configASSERT( !( ( pvItemToQueue == NULL ) && ( pxQueue->uxItemSize != ( UBaseType_t ) 0U ) ) );
 812              		.loc 1 729 25 discriminator 2
 730:lib/freertos/src/queue.c **** 	configASSERT( !( ( xCopyPosition == queueOVERWRITE ) && ( pxQueue->uxLength != 1 ) ) );
 813              		.loc 1 730 2 discriminator 2
 814 001a 91E5     		bne	a1,zero,.L74
 815 001c 3C41     		lw	a5,64(a0)
 816 001e 81C7     		beq	a5,zero,.L74
 730:lib/freertos/src/queue.c **** 	configASSERT( !( ( xCopyPosition == queueOVERWRITE ) && ( pxQueue->uxLength != 1 ) ) );
 817              		.loc 1 730 2
 818              	.LBB50:
 730:lib/freertos/src/queue.c **** 	configASSERT( !( ( xCopyPosition == queueOVERWRITE ) && ( pxQueue->uxLength != 1 ) ) );
 819              		.loc 1 730 2
 730:lib/freertos/src/queue.c **** 	configASSERT( !( ( xCopyPosition == queueOVERWRITE ) && ( pxQueue->uxLength != 1 ) ) );
 820              		.loc 1 730 2
 730:lib/freertos/src/queue.c **** 	configASSERT( !( ( xCopyPosition == queueOVERWRITE ) && ( pxQueue->uxLength != 1 ) ) );
 821              		.loc 1 730 2
 822              	 #APP
 823              	# 730 "lib/freertos/src/queue.c" 1
 824              		csrrc a5, mstatus, 8
 825              	# 0 "" 2
 826              	.LVL77:
 730:lib/freertos/src/queue.c **** 	configASSERT( !( ( xCopyPosition == queueOVERWRITE ) && ( pxQueue->uxLength != 1 ) ) );
 827              		.loc 1 730 2
 828              	 #NO_APP
 829              	.L75:
 830              	.LBE50:
 730:lib/freertos/src/queue.c **** 	configASSERT( !( ( xCopyPosition == queueOVERWRITE ) && ( pxQueue->uxLength != 1 ) ) );
 831              		.loc 1 730 2 discriminator 2
 730:lib/freertos/src/queue.c **** 	configASSERT( !( ( xCopyPosition == queueOVERWRITE ) && ( pxQueue->uxLength != 1 ) ) );
GAS LISTING C:\Users\kasie\AppData\Local\Temp\ccBtjLu5.s 			page 53


 832              		.loc 1 730 2 discriminator 2
 730:lib/freertos/src/queue.c **** 	configASSERT( !( ( xCopyPosition == queueOVERWRITE ) && ( pxQueue->uxLength != 1 ) ) );
 833              		.loc 1 730 2 discriminator 2
 834 0024 01A0     		j	.L75
 835              	.L74:
 730:lib/freertos/src/queue.c **** 	configASSERT( !( ( xCopyPosition == queueOVERWRITE ) && ( pxQueue->uxLength != 1 ) ) );
 836              		.loc 1 730 97 discriminator 8
 731:lib/freertos/src/queue.c **** 	#if ( ( INCLUDE_xTaskGetSchedulerState == 1 ) || ( configUSE_TIMERS == 1 ) )
 837              		.loc 1 731 2 discriminator 8
 838 0026 8947     		li	a5,2
 839 0028 6399F600 		bne	a3,a5,.L76
 731:lib/freertos/src/queue.c **** 	#if ( ( INCLUDE_xTaskGetSchedulerState == 1 ) || ( configUSE_TIMERS == 1 ) )
 840              		.loc 1 731 2 is_stmt 0 discriminator 2
 841 002c 585D     		lw	a4,60(a0)
 842 002e 8547     		li	a5,1
 843 0030 6305F700 		beq	a4,a5,.L76
 731:lib/freertos/src/queue.c **** 	#if ( ( INCLUDE_xTaskGetSchedulerState == 1 ) || ( configUSE_TIMERS == 1 ) )
 844              		.loc 1 731 2 is_stmt 1
 845              	.LBB51:
 731:lib/freertos/src/queue.c **** 	#if ( ( INCLUDE_xTaskGetSchedulerState == 1 ) || ( configUSE_TIMERS == 1 ) )
 846              		.loc 1 731 2
 731:lib/freertos/src/queue.c **** 	#if ( ( INCLUDE_xTaskGetSchedulerState == 1 ) || ( configUSE_TIMERS == 1 ) )
 847              		.loc 1 731 2
 731:lib/freertos/src/queue.c **** 	#if ( ( INCLUDE_xTaskGetSchedulerState == 1 ) || ( configUSE_TIMERS == 1 ) )
 848              		.loc 1 731 2
 849              	 #APP
 850              	# 731 "lib/freertos/src/queue.c" 1
 851              		csrrc a5, mstatus, 8
 852              	# 0 "" 2
 853              	.LVL78:
 731:lib/freertos/src/queue.c **** 	#if ( ( INCLUDE_xTaskGetSchedulerState == 1 ) || ( configUSE_TIMERS == 1 ) )
 854              		.loc 1 731 2
 855              	 #NO_APP
 856              	.L77:
 857              	.LBE51:
 731:lib/freertos/src/queue.c **** 	#if ( ( INCLUDE_xTaskGetSchedulerState == 1 ) || ( configUSE_TIMERS == 1 ) )
 858              		.loc 1 731 2 discriminator 3
 731:lib/freertos/src/queue.c **** 	#if ( ( INCLUDE_xTaskGetSchedulerState == 1 ) || ( configUSE_TIMERS == 1 ) )
 859              		.loc 1 731 2 discriminator 3
 731:lib/freertos/src/queue.c **** 	#if ( ( INCLUDE_xTaskGetSchedulerState == 1 ) || ( configUSE_TIMERS == 1 ) )
 860              		.loc 1 731 2 discriminator 3
 861 0038 01A0     		j	.L77
 862              	.L76:
 863 003a B684     		mv	s1,a3
 864 003c AE89     		mv	s3,a1
 865 003e 2A84     		mv	s0,a0
 731:lib/freertos/src/queue.c **** 	#if ( ( INCLUDE_xTaskGetSchedulerState == 1 ) || ( configUSE_TIMERS == 1 ) )
 866              		.loc 1 731 88 discriminator 8
 734:lib/freertos/src/queue.c **** 	}
 867              		.loc 1 734 3 discriminator 8
 868 0040 97000000 		call	xTaskGetSchedulerState
 868      E7800000 
 869              	.LVL79:
 870 0048 11E5     		bne	a0,zero,.L96
 734:lib/freertos/src/queue.c **** 	}
 871              		.loc 1 734 3 is_stmt 0 discriminator 2
 872 004a B247     		lw	a5,12(sp)
GAS LISTING C:\Users\kasie\AppData\Local\Temp\ccBtjLu5.s 			page 54


 873 004c 89C7     		beq	a5,zero,.L78
 734:lib/freertos/src/queue.c **** 	}
 874              		.loc 1 734 3 is_stmt 1
 875              	.LBB52:
 734:lib/freertos/src/queue.c **** 	}
 876              		.loc 1 734 3
 734:lib/freertos/src/queue.c **** 	}
 877              		.loc 1 734 3
 734:lib/freertos/src/queue.c **** 	}
 878              		.loc 1 734 3
 879              	 #APP
 880              	# 734 "lib/freertos/src/queue.c" 1
 881              		csrrc a5, mstatus, 8
 882              	# 0 "" 2
 883              	.LVL80:
 734:lib/freertos/src/queue.c **** 	}
 884              		.loc 1 734 3
 885              	 #NO_APP
 886              	.L79:
 887              	.LBE52:
 734:lib/freertos/src/queue.c **** 	}
 888              		.loc 1 734 3 discriminator 4
 734:lib/freertos/src/queue.c **** 	}
 889              		.loc 1 734 3 discriminator 4
 734:lib/freertos/src/queue.c **** 	}
 890              		.loc 1 734 3 discriminator 4
 891 0052 01A0     		j	.L79
 892              	.L96:
 893 0054 0145     		li	a0,0
 894              	.L78:
 750:lib/freertos/src/queue.c **** 			{
 895              		.loc 1 750 59 is_stmt 0 discriminator 8
 896 0056 094A     		li	s4,2
 874:lib/freertos/src/queue.c **** 
 897              		.loc 1 874 3 discriminator 8
 898 0058 7D59     		li	s2,-1
 882:lib/freertos/src/queue.c **** 
 899              		.loc 1 882 5 discriminator 8
 900 005a 930A0401 		addi	s5,s0,16
 901 005e 5DA0     		j	.L80
 902              	.LVL81:
 903              	.L82:
 843:lib/freertos/src/queue.c **** 				{
 904              		.loc 1 843 5 is_stmt 1
 843:lib/freertos/src/queue.c **** 				{
 905              		.loc 1 843 7 is_stmt 0
 906 0060 B247     		lw	a5,12(sp)
 907 0062 99E7     		bne	a5,zero,.L88
 847:lib/freertos/src/queue.c **** 
 908              		.loc 1 847 6 is_stmt 1
 909 0064 97000000 		call	vPortExitCritical
 909      E7800000 
 910              	.LVL82:
 851:lib/freertos/src/queue.c **** 					return errQUEUE_FULL;
 911              		.loc 1 851 39
 852:lib/freertos/src/queue.c **** 				}
 912              		.loc 1 852 6
GAS LISTING C:\Users\kasie\AppData\Local\Temp\ccBtjLu5.s 			page 55


 913              	.L108:
 914:lib/freertos/src/queue.c **** 			return errQUEUE_FULL;
 914              		.loc 1 914 37
 915:lib/freertos/src/queue.c **** 		}
 915              		.loc 1 915 4
 915:lib/freertos/src/queue.c **** 		}
 916              		.loc 1 915 11 is_stmt 0
 917 006c 0145     		li	a0,0
 918 006e C5A0     		j	.L71
 919              	.LVL83:
 920              	.L88:
 854:lib/freertos/src/queue.c **** 				{
 921              		.loc 1 854 10 is_stmt 1
 854:lib/freertos/src/queue.c **** 				{
 922              		.loc 1 854 12 is_stmt 0
 923 0070 11E5     		bne	a0,zero,.L89
 858:lib/freertos/src/queue.c **** 					xEntryTimeSet = pdTRUE;
 924              		.loc 1 858 6 is_stmt 1
 925 0072 2808     		addi	a0,sp,24
 926 0074 97000000 		call	vTaskSetTimeOutState
 926      E7800000 
 927              	.LVL84:
 859:lib/freertos/src/queue.c **** 				}
 928              		.loc 1 859 6
 929              	.L89:
 864:lib/freertos/src/queue.c **** 				}
 930              		.loc 1 864 30
 868:lib/freertos/src/queue.c **** 
 931              		.loc 1 868 3
 932 007c 97000000 		call	vPortExitCritical
 932      E7800000 
 933              	.LVL85:
 873:lib/freertos/src/queue.c **** 		prvLockQueue( pxQueue );
 934              		.loc 1 873 3
 935 0084 97000000 		call	vTaskSuspendAll
 935      E7800000 
 936              	.LVL86:
 874:lib/freertos/src/queue.c **** 
 937              		.loc 1 874 3
 938 008c 97000000 		call	vPortEnterCritical
 938      E7800000 
 939              	.LVL87:
 874:lib/freertos/src/queue.c **** 
 940              		.loc 1 874 3
 941 0094 83474404 		lbu	a5,68(s0)
 942 0098 E207     		slli	a5,a5,24
 943 009a E187     		srai	a5,a5,24
 944 009c 63942701 		bne	a5,s2,.L90
 874:lib/freertos/src/queue.c **** 
 945              		.loc 1 874 3 discriminator 1
 946 00a0 23020404 		sb	zero,68(s0)
 947              	.L90:
 874:lib/freertos/src/queue.c **** 
 948              		.loc 1 874 3 discriminator 3
 949 00a4 83475404 		lbu	a5,69(s0)
 950 00a8 E207     		slli	a5,a5,24
 951 00aa E187     		srai	a5,a5,24
GAS LISTING C:\Users\kasie\AppData\Local\Temp\ccBtjLu5.s 			page 56


 952 00ac 63942701 		bne	a5,s2,.L91
 874:lib/freertos/src/queue.c **** 
 953              		.loc 1 874 3 discriminator 4
 954 00b0 A3020404 		sb	zero,69(s0)
 955              	.L91:
 874:lib/freertos/src/queue.c **** 
 956              		.loc 1 874 3 discriminator 6
 957 00b4 97000000 		call	vPortExitCritical
 957      E7800000 
 958              	.LVL88:
 877:lib/freertos/src/queue.c **** 		{
 959              		.loc 1 877 3 discriminator 6
 877:lib/freertos/src/queue.c **** 		{
 960              		.loc 1 877 7 is_stmt 0 discriminator 6
 961 00bc 6C00     		addi	a1,sp,12
 962 00be 2808     		addi	a0,sp,24
 963 00c0 97000000 		call	xTaskCheckForTimeOut
 963      E7800000 
 964              	.LVL89:
 877:lib/freertos/src/queue.c **** 		{
 965              		.loc 1 877 5 discriminator 6
 966 00c8 5DED     		bne	a0,zero,.L92
 879:lib/freertos/src/queue.c **** 			{
 967              		.loc 1 879 4 is_stmt 1
 968              	.LVL90:
 969              	.LBB53:
 970              	.LBB54:
1912:lib/freertos/src/queue.c **** /*-----------------------------------------------------------*/
1913:lib/freertos/src/queue.c **** 
1914:lib/freertos/src/queue.c **** static BaseType_t prvIsQueueEmpty( const Queue_t *pxQueue )
1915:lib/freertos/src/queue.c **** {
1916:lib/freertos/src/queue.c **** BaseType_t xReturn;
1917:lib/freertos/src/queue.c **** 
1918:lib/freertos/src/queue.c **** 	taskENTER_CRITICAL();
1919:lib/freertos/src/queue.c **** 	{
1920:lib/freertos/src/queue.c **** 		if( pxQueue->uxMessagesWaiting == ( UBaseType_t )  0 )
1921:lib/freertos/src/queue.c **** 		{
1922:lib/freertos/src/queue.c **** 			xReturn = pdTRUE;
1923:lib/freertos/src/queue.c **** 		}
1924:lib/freertos/src/queue.c **** 		else
1925:lib/freertos/src/queue.c **** 		{
1926:lib/freertos/src/queue.c **** 			xReturn = pdFALSE;
1927:lib/freertos/src/queue.c **** 		}
1928:lib/freertos/src/queue.c **** 	}
1929:lib/freertos/src/queue.c **** 	taskEXIT_CRITICAL();
1930:lib/freertos/src/queue.c **** 
1931:lib/freertos/src/queue.c **** 	return xReturn;
1932:lib/freertos/src/queue.c **** }
1933:lib/freertos/src/queue.c **** /*-----------------------------------------------------------*/
1934:lib/freertos/src/queue.c **** 
1935:lib/freertos/src/queue.c **** BaseType_t xQueueIsQueueEmptyFromISR( const QueueHandle_t xQueue )
1936:lib/freertos/src/queue.c **** {
1937:lib/freertos/src/queue.c **** BaseType_t xReturn;
1938:lib/freertos/src/queue.c **** 
1939:lib/freertos/src/queue.c **** 	configASSERT( xQueue );
1940:lib/freertos/src/queue.c **** 	if( ( ( Queue_t * ) xQueue )->uxMessagesWaiting == ( UBaseType_t ) 0 )
1941:lib/freertos/src/queue.c **** 	{
GAS LISTING C:\Users\kasie\AppData\Local\Temp\ccBtjLu5.s 			page 57


1942:lib/freertos/src/queue.c **** 		xReturn = pdTRUE;
1943:lib/freertos/src/queue.c **** 	}
1944:lib/freertos/src/queue.c **** 	else
1945:lib/freertos/src/queue.c **** 	{
1946:lib/freertos/src/queue.c **** 		xReturn = pdFALSE;
1947:lib/freertos/src/queue.c **** 	}
1948:lib/freertos/src/queue.c **** 
1949:lib/freertos/src/queue.c **** 	return xReturn;
1950:lib/freertos/src/queue.c **** } /*lint !e818 xQueue could not be pointer to const because it is a typedef. */
1951:lib/freertos/src/queue.c **** /*-----------------------------------------------------------*/
1952:lib/freertos/src/queue.c **** 
1953:lib/freertos/src/queue.c **** static BaseType_t prvIsQueueFull( const Queue_t *pxQueue )
1954:lib/freertos/src/queue.c **** {
1955:lib/freertos/src/queue.c **** BaseType_t xReturn;
 971              		.loc 1 1955 1
1956:lib/freertos/src/queue.c **** 
1957:lib/freertos/src/queue.c **** 	taskENTER_CRITICAL();
 972              		.loc 1 1957 2
 973 00ca 97000000 		call	vPortEnterCritical
 973      E7800000 
 974              	.LVL91:
1958:lib/freertos/src/queue.c **** 	{
1959:lib/freertos/src/queue.c **** 		if( pxQueue->uxMessagesWaiting == pxQueue->uxLength )
 975              		.loc 1 1959 3
 976              		.loc 1 1959 14 is_stmt 0
 977 00d2 185C     		lw	a4,56(s0)
 978              		.loc 1 1959 5
 979 00d4 5C5C     		lw	a5,60(s0)
 980 00d6 6315F708 		bne	a4,a5,.L93
 981              	.LVL92:
1960:lib/freertos/src/queue.c **** 		{
1961:lib/freertos/src/queue.c **** 			xReturn = pdTRUE;
1962:lib/freertos/src/queue.c **** 		}
1963:lib/freertos/src/queue.c **** 		else
1964:lib/freertos/src/queue.c **** 		{
1965:lib/freertos/src/queue.c **** 			xReturn = pdFALSE;
1966:lib/freertos/src/queue.c **** 		}
1967:lib/freertos/src/queue.c **** 	}
1968:lib/freertos/src/queue.c **** 	taskEXIT_CRITICAL();
 982              		.loc 1 1968 2 is_stmt 1
 983 00da 97000000 		call	vPortExitCritical
 983      E7800000 
 984              	.LVL93:
1969:lib/freertos/src/queue.c **** 
1970:lib/freertos/src/queue.c **** 	return xReturn;
 985              		.loc 1 1970 2
 986              	.LBE54:
 987              	.LBE53:
 881:lib/freertos/src/queue.c **** 				vTaskPlaceOnEventList( &( pxQueue->xTasksWaitingToSend ), xTicksToWait );
 988              		.loc 1 881 43
 882:lib/freertos/src/queue.c **** 
 989              		.loc 1 882 5
 990 00e2 B245     		lw	a1,12(sp)
 991 00e4 5685     		mv	a0,s5
 992 00e6 97000000 		call	vTaskPlaceOnEventList
 992      E7800000 
 993              	.LVL94:
GAS LISTING C:\Users\kasie\AppData\Local\Temp\ccBtjLu5.s 			page 58


 889:lib/freertos/src/queue.c **** 
 994              		.loc 1 889 5
 995 00ee 2285     		mv	a0,s0
 996 00f0 97000000 		call	prvUnlockQueue
 996      E7800000 
 997              	.LVL95:
 896:lib/freertos/src/queue.c **** 				{
 998              		.loc 1 896 5
 896:lib/freertos/src/queue.c **** 				{
 999              		.loc 1 896 9 is_stmt 0
 1000 00f8 97000000 		call	xTaskResumeAll
 1000      E7800000 
 1001              	.LVL96:
 896:lib/freertos/src/queue.c **** 				{
 1002              		.loc 1 896 7
 1003 0100 35CD     		beq	a0,zero,.L94
 1004              	.L95:
 1005 0102 0545     		li	a0,1
 1006              	.LVL97:
 1007              	.L80:
 1008 0104 2AC4     		sw	a0,8(sp)
 1009              	.LVL98:
 734:lib/freertos/src/queue.c **** 	}
 1010              		.loc 1 734 104 is_stmt 1 discriminator 8
 742:lib/freertos/src/queue.c **** 	{
 1011              		.loc 1 742 2 discriminator 8
 744:lib/freertos/src/queue.c **** 		{
 1012              		.loc 1 744 3 discriminator 8
 1013 0106 97000000 		call	vPortEnterCritical
 1013      E7800000 
 1014              	.LVL99:
 750:lib/freertos/src/queue.c **** 			{
 1015              		.loc 1 750 4 discriminator 8
 750:lib/freertos/src/queue.c **** 			{
 1016              		.loc 1 750 17 is_stmt 0 discriminator 8
 1017 010e 185C     		lw	a4,56(s0)
 750:lib/freertos/src/queue.c **** 			{
 1018              		.loc 1 750 6 discriminator 8
 1019 0110 5C5C     		lw	a5,60(s0)
 1020 0112 6365F700 		bltu	a4,a5,.L81
 750:lib/freertos/src/queue.c **** 			{
 1021              		.loc 1 750 59 discriminator 1
 1022 0116 2245     		lw	a0,8(sp)
 1023 0118 E39444F5 		bne	s1,s4,.L82
 1024              	.L81:
 752:lib/freertos/src/queue.c **** 				xYieldRequired = prvCopyDataToQueue( pxQueue, pvItemToQueue, xCopyPosition );
 1025              		.loc 1 752 31 is_stmt 1
 753:lib/freertos/src/queue.c **** 
 1026              		.loc 1 753 5
 753:lib/freertos/src/queue.c **** 
 1027              		.loc 1 753 22 is_stmt 0
 1028 011c 2686     		mv	a2,s1
 1029 011e CE85     		mv	a1,s3
 1030 0120 2285     		mv	a0,s0
 1031 0122 97000000 		call	prvCopyDataToQueue
 1031      E7800000 
 1032              	.LVL100:
GAS LISTING C:\Users\kasie\AppData\Local\Temp\ccBtjLu5.s 			page 59


 808:lib/freertos/src/queue.c **** 					{
 1033              		.loc 1 808 6 is_stmt 1
 808:lib/freertos/src/queue.c **** 					{
 1034              		.loc 1 808 8 is_stmt 0
 1035 012a 5C50     		lw	a5,36(s0)
 1036 012c 99C7     		beq	a5,zero,.L83
 810:lib/freertos/src/queue.c **** 						{
 1037              		.loc 1 810 7 is_stmt 1
 810:lib/freertos/src/queue.c **** 						{
 1038              		.loc 1 810 11 is_stmt 0
 1039 012e 13054402 		addi	a0,s0,36
 1040              	.LVL101:
 1041 0132 97000000 		call	xTaskRemoveFromEventList
 1041      E7800000 
 1042              	.LVL102:
 1043              	.L83:
 823:lib/freertos/src/queue.c **** 					{
 1044              		.loc 1 823 11 is_stmt 1
 823:lib/freertos/src/queue.c **** 					{
 1045              		.loc 1 823 13 is_stmt 0
 1046 013a 09C5     		beq	a0,zero,.L85
 829:lib/freertos/src/queue.c **** 					}
 1047              		.loc 1 829 7 is_stmt 1
 1048              	.LBB56:
 829:lib/freertos/src/queue.c **** 					}
 1049              		.loc 1 829 7
 1050 013c 13068002 		li	a2,40
 829:lib/freertos/src/queue.c **** 					}
 1051              		.loc 1 829 7
 1052              	 #APP
 1053              	# 829 "lib/freertos/src/queue.c" 1
 829:lib/freertos/src/queue.c **** 					}
 1054              		ecall
 1055              	# 0 "" 2
 1056              		.loc 1 829 7
 1057              	 #NO_APP
 1058              	.LBE56:
 829:lib/freertos/src/queue.c **** 					}
 1059              		.loc 1 829 39
 1060              	.L85:
 833:lib/freertos/src/queue.c **** 					}
 1061              		.loc 1 833 31
 838:lib/freertos/src/queue.c **** 				return pdPASS;
 1062              		.loc 1 838 5
 1063 0144 97000000 		call	vPortExitCritical
 1063      E7800000 
 1064              	.LVL103:
 839:lib/freertos/src/queue.c **** 			}
 1065              		.loc 1 839 5
 839:lib/freertos/src/queue.c **** 			}
 1066              		.loc 1 839 12 is_stmt 0
 1067 014c 0545     		li	a0,1
 1068              	.LVL104:
 1069              	.L71:
 918:lib/freertos/src/queue.c **** /*-----------------------------------------------------------*/
 1070              		.loc 1 918 1
 1071 014e F250     		lw	ra,60(sp)
GAS LISTING C:\Users\kasie\AppData\Local\Temp\ccBtjLu5.s 			page 60


 1072              		.cfi_remember_state
 1073              		.cfi_restore 1
 1074 0150 6254     		lw	s0,56(sp)
 1075              		.cfi_restore 8
 1076              	.LVL105:
 1077 0152 D254     		lw	s1,52(sp)
 1078              		.cfi_restore 9
 1079              	.LVL106:
 1080 0154 4259     		lw	s2,48(sp)
 1081              		.cfi_restore 18
 1082 0156 B259     		lw	s3,44(sp)
 1083              		.cfi_restore 19
 1084              	.LVL107:
 1085 0158 225A     		lw	s4,40(sp)
 1086              		.cfi_restore 20
 1087 015a 925A     		lw	s5,36(sp)
 1088              		.cfi_restore 21
 1089              	.LVL108:
 1090 015c 2161     		addi	sp,sp,64
 1091              	.LCFI14:
 1092              		.cfi_def_cfa_offset 0
 1093 015e 8280     		jr	ra
 1094              	.LVL109:
 1095              	.L93:
 1096              	.LCFI15:
 1097              		.cfi_restore_state
 1098              	.LBB57:
 1099              	.LBB55:
1965:lib/freertos/src/queue.c **** 		}
 1100              		.loc 1 1965 4 is_stmt 1
1968:lib/freertos/src/queue.c **** 
 1101              		.loc 1 1968 2
 1102 0160 97000000 		call	vPortExitCritical
 1102      E7800000 
 1103              	.LVL110:
 1104              		.loc 1 1970 2
 1105              	.LBE55:
 1106              	.LBE57:
 904:lib/freertos/src/queue.c **** 				( void ) xTaskResumeAll();
 1107              		.loc 1 904 5
 1108 0168 2285     		mv	a0,s0
 1109 016a 97000000 		call	prvUnlockQueue
 1109      E7800000 
 1110              	.LVL111:
 905:lib/freertos/src/queue.c **** 			}
 1111              		.loc 1 905 5
 905:lib/freertos/src/queue.c **** 			}
 1112              		.loc 1 905 14 is_stmt 0
 1113 0172 97000000 		call	xTaskResumeAll
 1113      E7800000 
 1114              	.LVL112:
 1115 017a 61B7     		j	.L95
 1116              	.L94:
 898:lib/freertos/src/queue.c **** 				}
 1117              		.loc 1 898 6 is_stmt 1
 1118              	.LBB58:
 898:lib/freertos/src/queue.c **** 				}
GAS LISTING C:\Users\kasie\AppData\Local\Temp\ccBtjLu5.s 			page 61


 1119              		.loc 1 898 6
 1120 017c 13068002 		li	a2,40
 898:lib/freertos/src/queue.c **** 				}
 1121              		.loc 1 898 6
 1122              	 #APP
 1123              	# 898 "lib/freertos/src/queue.c" 1
 898:lib/freertos/src/queue.c **** 				}
 1124              		ecall
 1125              	# 0 "" 2
 1126              		.loc 1 898 6
 1127              	 #NO_APP
 1128 0184 BDBF     		j	.L95
 1129              	.L92:
 1130              	.LBE58:
 911:lib/freertos/src/queue.c **** 			( void ) xTaskResumeAll();
 1131              		.loc 1 911 4
 1132 0186 2285     		mv	a0,s0
 1133 0188 97000000 		call	prvUnlockQueue
 1133      E7800000 
 1134              	.LVL113:
 912:lib/freertos/src/queue.c **** 
 1135              		.loc 1 912 4
 912:lib/freertos/src/queue.c **** 
 1136              		.loc 1 912 13 is_stmt 0
 1137 0190 97000000 		call	xTaskResumeAll
 1137      E7800000 
 1138              	.LVL114:
 1139 0198 D1BD     		j	.L108
 1140              		.cfi_endproc
 1141              	.LFE9:
 1143              		.section	.text.xQueueCreateMutex,"ax",@progbits
 1144              		.align	1
 1145              		.globl	xQueueCreateMutex
 1147              	xQueueCreateMutex:
 1148              	.LFB7:
 507:lib/freertos/src/queue.c **** 	Queue_t *pxNewQueue;
 1149              		.loc 1 507 2 is_stmt 1
 1150              		.cfi_startproc
 1151              	.LVL115:
 508:lib/freertos/src/queue.c **** 	const UBaseType_t uxMutexLength = ( UBaseType_t ) 1, uxMutexSize = ( UBaseType_t ) 0;
 1152              		.loc 1 508 2
 509:lib/freertos/src/queue.c **** 
 1153              		.loc 1 509 2
 511:lib/freertos/src/queue.c **** 		prvInitialiseMutex( pxNewQueue );
 1154              		.loc 1 511 3
 507:lib/freertos/src/queue.c **** 	Queue_t *pxNewQueue;
 1155              		.loc 1 507 2 is_stmt 0
 1156 0000 4111     		addi	sp,sp,-16
 1157              	.LCFI16:
 1158              		.cfi_def_cfa_offset 16
 1159 0002 26C2     		sw	s1,4(sp)
 1160              		.cfi_offset 9, -12
 1161 0004 AA84     		mv	s1,a0
 1162              	.LVL116:
 1163              	.LBB68:
 1164              	.LBB69:
 388:lib/freertos/src/queue.c **** 	size_t xQueueSizeInBytes;
GAS LISTING C:\Users\kasie\AppData\Local\Temp\ccBtjLu5.s 			page 62


 1165              		.loc 1 388 2 is_stmt 1
 389:lib/freertos/src/queue.c **** 	uint8_t *pucQueueStorage;
 1166              		.loc 1 389 2
 390:lib/freertos/src/queue.c **** 
 1167              		.loc 1 390 2
 392:lib/freertos/src/queue.c **** 
 1168              		.loc 1 392 3
 1169              	.LBB70:
 1170              	.LBB71:
 392:lib/freertos/src/queue.c **** 
 1171              		.loc 1 392 52
 394:lib/freertos/src/queue.c **** 		{
 1172              		.loc 1 394 3
 406:lib/freertos/src/queue.c **** 
 1173              		.loc 1 406 3
 406:lib/freertos/src/queue.c **** 
 1174              		.loc 1 406 30 is_stmt 0
 1175 0006 13050005 		li	a0,80
 1176              	.LVL117:
 1177              	.LBE71:
 1178              	.LBE70:
 1179              	.LBE69:
 1180              	.LBE68:
 507:lib/freertos/src/queue.c **** 	Queue_t *pxNewQueue;
 1181              		.loc 1 507 2
 1182 000a 22C4     		sw	s0,8(sp)
 1183 000c 06C6     		sw	ra,12(sp)
 1184              		.cfi_offset 8, -8
 1185              		.cfi_offset 1, -4
 1186              	.LBB82:
 1187              	.LBB80:
 1188              	.LBB78:
 1189              	.LBB76:
 406:lib/freertos/src/queue.c **** 
 1190              		.loc 1 406 30
 1191 000e 97000000 		call	pvPortMalloc
 1191      E7800000 
 1192              	.LVL118:
 1193 0016 2A84     		mv	s0,a0
 1194              	.LVL119:
 408:lib/freertos/src/queue.c **** 		{
 1195              		.loc 1 408 3 is_stmt 1
 408:lib/freertos/src/queue.c **** 		{
 1196              		.loc 1 408 5 is_stmt 0
 1197 0018 1DC9     		beq	a0,zero,.L110
 412:lib/freertos/src/queue.c **** 
 1198              		.loc 1 412 4 is_stmt 1
 1199              	.LVL120:
 423:lib/freertos/src/queue.c **** 		}
 1200              		.loc 1 423 4
 1201              	.LBB72:
 1202              	.LBB73:
 436:lib/freertos/src/queue.c **** 
 1203              		.loc 1 436 2
 438:lib/freertos/src/queue.c **** 	{
 1204              		.loc 1 438 2
 444:lib/freertos/src/queue.c **** 	}
GAS LISTING C:\Users\kasie\AppData\Local\Temp\ccBtjLu5.s 			page 63


 1205              		.loc 1 444 3
 444:lib/freertos/src/queue.c **** 	}
 1206              		.loc 1 444 22 is_stmt 0
 1207 001a 08C0     		sw	a0,0(s0)
 454:lib/freertos/src/queue.c **** 	pxNewQueue->uxItemSize = uxItemSize;
 1208              		.loc 1 454 2 is_stmt 1
 454:lib/freertos/src/queue.c **** 	pxNewQueue->uxItemSize = uxItemSize;
 1209              		.loc 1 454 23 is_stmt 0
 1210 001c 8547     		li	a5,1
 456:lib/freertos/src/queue.c **** 
 1211              		.loc 1 456 11
 1212 001e 8545     		li	a1,1
 454:lib/freertos/src/queue.c **** 	pxNewQueue->uxItemSize = uxItemSize;
 1213              		.loc 1 454 23
 1214 0020 5CDD     		sw	a5,60(a0)
 455:lib/freertos/src/queue.c **** 	( void ) xQueueGenericReset( pxNewQueue, pdTRUE );
 1215              		.loc 1 455 2 is_stmt 1
 455:lib/freertos/src/queue.c **** 	( void ) xQueueGenericReset( pxNewQueue, pdTRUE );
 1216              		.loc 1 455 25 is_stmt 0
 1217 0022 23200504 		sw	zero,64(a0)
 456:lib/freertos/src/queue.c **** 
 1218              		.loc 1 456 2 is_stmt 1
 456:lib/freertos/src/queue.c **** 
 1219              		.loc 1 456 11 is_stmt 0
 1220 0026 97000000 		call	xQueueGenericReset
 1220      E7800000 
 1221              	.LVL121:
 460:lib/freertos/src/queue.c **** 	}
 1222              		.loc 1 460 3 is_stmt 1
 1223              	.LBE73:
 1224              	.LBE72:
 1225              	.LBE76:
 1226              	.LBE78:
 1227              	.LBE80:
 1228              	.LBE82:
 1229              	.LBB83:
 1230              	.LBB84:
 493:lib/freertos/src/queue.c **** 		}
 1231              		.loc 1 493 13 is_stmt 0
 1232 002e 8146     		li	a3,0
 1233              	.LBE84:
 1234              	.LBE83:
 1235              	.LBB86:
 1236              	.LBB81:
 1237              	.LBB79:
 1238              	.LBB77:
 1239              	.LBB75:
 1240              	.LBB74:
 460:lib/freertos/src/queue.c **** 	}
 1241              		.loc 1 460 27
 1242 0030 23069404 		sb	s1,76(s0)
 470:lib/freertos/src/queue.c **** }
 1243              		.loc 1 470 33 is_stmt 1
 1244              	.LBE74:
 1245              	.LBE75:
 426:lib/freertos/src/queue.c **** 	}
 1246              		.loc 1 426 3
GAS LISTING C:\Users\kasie\AppData\Local\Temp\ccBtjLu5.s 			page 64


 1247              	.LVL122:
 1248              	.LBE77:
 1249              	.LBE79:
 426:lib/freertos/src/queue.c **** 	}
 1250              		.loc 1 426 3
 1251              	.LBE81:
 1252              	.LBE86:
 512:lib/freertos/src/queue.c **** 
 1253              		.loc 1 512 3
 1254              	.LBB87:
 1255              	.LBB85:
 478:lib/freertos/src/queue.c **** 		{
 1256              		.loc 1 478 3
 484:lib/freertos/src/queue.c **** 			pxNewQueue->uxQueueType = queueQUEUE_IS_MUTEX;
 1257              		.loc 1 484 4
 484:lib/freertos/src/queue.c **** 			pxNewQueue->uxQueueType = queueQUEUE_IS_MUTEX;
 1258              		.loc 1 484 30 is_stmt 0
 1259 0034 23220400 		sw	zero,4(s0)
 485:lib/freertos/src/queue.c **** 
 1260              		.loc 1 485 4 is_stmt 1
 485:lib/freertos/src/queue.c **** 
 1261              		.loc 1 485 28 is_stmt 0
 1262 0038 23200400 		sw	zero,0(s0)
 488:lib/freertos/src/queue.c **** 
 1263              		.loc 1 488 4 is_stmt 1
 488:lib/freertos/src/queue.c **** 
 1264              		.loc 1 488 39 is_stmt 0
 1265 003c 23260400 		sw	zero,12(s0)
 490:lib/freertos/src/queue.c **** 
 1266              		.loc 1 490 35 is_stmt 1
 493:lib/freertos/src/queue.c **** 		}
 1267              		.loc 1 493 4
 493:lib/freertos/src/queue.c **** 		}
 1268              		.loc 1 493 13 is_stmt 0
 1269 0040 0146     		li	a2,0
 1270 0042 8145     		li	a1,0
 1271 0044 2285     		mv	a0,s0
 1272 0046 97000000 		call	xQueueGenericSend
 1272      E7800000 
 1273              	.LVL123:
 497:lib/freertos/src/queue.c **** 		}
 1274              		.loc 1 497 30 is_stmt 1
 1275              	.LBE85:
 1276              	.LBE87:
 514:lib/freertos/src/queue.c **** 	}
 1277              		.loc 1 514 3
 1278              	.L110:
 515:lib/freertos/src/queue.c **** 
 1279              		.loc 1 515 2 is_stmt 0
 1280 004e 2285     		mv	a0,s0
 1281 0050 B240     		lw	ra,12(sp)
 1282              		.cfi_restore 1
 1283 0052 2244     		lw	s0,8(sp)
 1284              		.cfi_restore 8
 1285 0054 9244     		lw	s1,4(sp)
 1286              		.cfi_restore 9
 1287 0056 4101     		addi	sp,sp,16
GAS LISTING C:\Users\kasie\AppData\Local\Temp\ccBtjLu5.s 			page 65


 1288              	.LCFI17:
 1289              		.cfi_def_cfa_offset 0
 1290 0058 8280     		jr	ra
 1291              		.cfi_endproc
 1292              	.LFE7:
 1294              		.section	.text.xQueueGenericSendFromISR,"ax",@progbits
 1295              		.align	1
 1296              		.globl	xQueueGenericSendFromISR
 1298              	xQueueGenericSendFromISR:
 1299              	.LFB10:
 922:lib/freertos/src/queue.c **** BaseType_t xReturn;
 1300              		.loc 1 922 1 is_stmt 1
 1301              		.cfi_startproc
 1302              	.LVL124:
 923:lib/freertos/src/queue.c **** UBaseType_t uxSavedInterruptStatus;
 1303              		.loc 1 923 1
 924:lib/freertos/src/queue.c **** Queue_t * const pxQueue = ( Queue_t * ) xQueue;
 1304              		.loc 1 924 1
 925:lib/freertos/src/queue.c **** 
 1305              		.loc 1 925 1
 927:lib/freertos/src/queue.c **** 	configASSERT( !( ( pvItemToQueue == NULL ) && ( pxQueue->uxItemSize != ( UBaseType_t ) 0U ) ) );
 1306              		.loc 1 927 2
 1307 0000 01E5     		bne	a0,zero,.L117
 927:lib/freertos/src/queue.c **** 	configASSERT( !( ( pvItemToQueue == NULL ) && ( pxQueue->uxItemSize != ( UBaseType_t ) 0U ) ) );
 1308              		.loc 1 927 2 discriminator 3
 1309              	.LBB88:
 927:lib/freertos/src/queue.c **** 	configASSERT( !( ( pvItemToQueue == NULL ) && ( pxQueue->uxItemSize != ( UBaseType_t ) 0U ) ) );
 1310              		.loc 1 927 2 discriminator 3
 927:lib/freertos/src/queue.c **** 	configASSERT( !( ( pvItemToQueue == NULL ) && ( pxQueue->uxItemSize != ( UBaseType_t ) 0U ) ) );
 1311              		.loc 1 927 2 discriminator 3
 927:lib/freertos/src/queue.c **** 	configASSERT( !( ( pvItemToQueue == NULL ) && ( pxQueue->uxItemSize != ( UBaseType_t ) 0U ) ) );
 1312              		.loc 1 927 2 discriminator 3
 1313              	 #APP
 1314              	# 927 "lib/freertos/src/queue.c" 1
 1315              		csrrc a5, mstatus, 8
 1316              	# 0 "" 2
 1317              	.LVL125:
 927:lib/freertos/src/queue.c **** 	configASSERT( !( ( pvItemToQueue == NULL ) && ( pxQueue->uxItemSize != ( UBaseType_t ) 0U ) ) );
 1318              		.loc 1 927 2 discriminator 3
 1319              	 #NO_APP
 1320              	.L118:
 1321              	.LBE88:
 927:lib/freertos/src/queue.c **** 	configASSERT( !( ( pvItemToQueue == NULL ) && ( pxQueue->uxItemSize != ( UBaseType_t ) 0U ) ) );
 1322              		.loc 1 927 2 discriminator 1
 927:lib/freertos/src/queue.c **** 	configASSERT( !( ( pvItemToQueue == NULL ) && ( pxQueue->uxItemSize != ( UBaseType_t ) 0U ) ) );
 1323              		.loc 1 927 2 discriminator 1
 927:lib/freertos/src/queue.c **** 	configASSERT( !( ( pvItemToQueue == NULL ) && ( pxQueue->uxItemSize != ( UBaseType_t ) 0U ) ) );
 1324              		.loc 1 927 2 discriminator 1
 1325 0006 01A0     		j	.L118
 1326              	.L117:
 927:lib/freertos/src/queue.c **** 	configASSERT( !( ( pvItemToQueue == NULL ) && ( pxQueue->uxItemSize != ( UBaseType_t ) 0U ) ) );
 1327              		.loc 1 927 25 discriminator 2
 928:lib/freertos/src/queue.c **** 	configASSERT( !( ( xCopyPosition == queueOVERWRITE ) && ( pxQueue->uxLength != 1 ) ) );
 1328              		.loc 1 928 2 discriminator 2
 1329 0008 91E5     		bne	a1,zero,.L119
 1330 000a 3C41     		lw	a5,64(a0)
 1331 000c 81C7     		beq	a5,zero,.L119
GAS LISTING C:\Users\kasie\AppData\Local\Temp\ccBtjLu5.s 			page 66


 928:lib/freertos/src/queue.c **** 	configASSERT( !( ( xCopyPosition == queueOVERWRITE ) && ( pxQueue->uxLength != 1 ) ) );
 1332              		.loc 1 928 2
 1333              	.LBB89:
 928:lib/freertos/src/queue.c **** 	configASSERT( !( ( xCopyPosition == queueOVERWRITE ) && ( pxQueue->uxLength != 1 ) ) );
 1334              		.loc 1 928 2
 928:lib/freertos/src/queue.c **** 	configASSERT( !( ( xCopyPosition == queueOVERWRITE ) && ( pxQueue->uxLength != 1 ) ) );
 1335              		.loc 1 928 2
 928:lib/freertos/src/queue.c **** 	configASSERT( !( ( xCopyPosition == queueOVERWRITE ) && ( pxQueue->uxLength != 1 ) ) );
 1336              		.loc 1 928 2
 1337              	 #APP
 1338              	# 928 "lib/freertos/src/queue.c" 1
 1339              		csrrc a5, mstatus, 8
 1340              	# 0 "" 2
 1341              	.LVL126:
 928:lib/freertos/src/queue.c **** 	configASSERT( !( ( xCopyPosition == queueOVERWRITE ) && ( pxQueue->uxLength != 1 ) ) );
 1342              		.loc 1 928 2
 1343              	 #NO_APP
 1344              	.L120:
 1345              	.LBE89:
 928:lib/freertos/src/queue.c **** 	configASSERT( !( ( xCopyPosition == queueOVERWRITE ) && ( pxQueue->uxLength != 1 ) ) );
 1346              		.loc 1 928 2 discriminator 2
 928:lib/freertos/src/queue.c **** 	configASSERT( !( ( xCopyPosition == queueOVERWRITE ) && ( pxQueue->uxLength != 1 ) ) );
 1347              		.loc 1 928 2 discriminator 2
 928:lib/freertos/src/queue.c **** 	configASSERT( !( ( xCopyPosition == queueOVERWRITE ) && ( pxQueue->uxLength != 1 ) ) );
 1348              		.loc 1 928 2 discriminator 2
 1349 0012 01A0     		j	.L120
 1350              	.L119:
 928:lib/freertos/src/queue.c **** 	configASSERT( !( ( xCopyPosition == queueOVERWRITE ) && ( pxQueue->uxLength != 1 ) ) );
 1351              		.loc 1 928 97 discriminator 8
 929:lib/freertos/src/queue.c **** 
 1352              		.loc 1 929 2 discriminator 8
 1353 0014 8947     		li	a5,2
 1354 0016 6399F600 		bne	a3,a5,.L121
 929:lib/freertos/src/queue.c **** 
 1355              		.loc 1 929 2 is_stmt 0 discriminator 2
 1356 001a 585D     		lw	a4,60(a0)
 1357 001c 8547     		li	a5,1
 1358 001e 6305F700 		beq	a4,a5,.L121
 929:lib/freertos/src/queue.c **** 
 1359              		.loc 1 929 2 is_stmt 1
 1360              	.LBB90:
 929:lib/freertos/src/queue.c **** 
 1361              		.loc 1 929 2
 929:lib/freertos/src/queue.c **** 
 1362              		.loc 1 929 2
 929:lib/freertos/src/queue.c **** 
 1363              		.loc 1 929 2
 1364              	 #APP
 1365              	# 929 "lib/freertos/src/queue.c" 1
 1366              		csrrc a5, mstatus, 8
 1367              	# 0 "" 2
 1368              	.LVL127:
 929:lib/freertos/src/queue.c **** 
 1369              		.loc 1 929 2
 1370              	 #NO_APP
 1371              	.L122:
 1372              	.LBE90:
GAS LISTING C:\Users\kasie\AppData\Local\Temp\ccBtjLu5.s 			page 67


 929:lib/freertos/src/queue.c **** 
 1373              		.loc 1 929 2 discriminator 3
 929:lib/freertos/src/queue.c **** 
 1374              		.loc 1 929 2 discriminator 3
 929:lib/freertos/src/queue.c **** 
 1375              		.loc 1 929 2 discriminator 3
 1376 0026 01A0     		j	.L122
 1377              	.L121:
 922:lib/freertos/src/queue.c **** BaseType_t xReturn;
 1378              		.loc 1 922 1 is_stmt 0 discriminator 8
 1379 0028 7971     		addi	sp,sp,-48
 1380              	.LCFI18:
 1381              		.cfi_def_cfa_offset 48
 1382 002a 22D4     		sw	s0,40(sp)
 1383 002c 4AD0     		sw	s2,32(sp)
 1384              		.cfi_offset 8, -8
 1385              		.cfi_offset 18, -16
 1386 002e 2A84     		mv	s0,a0
 929:lib/freertos/src/queue.c **** 
 1387              		.loc 1 929 88 is_stmt 1 discriminator 8
 945:lib/freertos/src/queue.c **** 
 1388              		.loc 1 945 44 discriminator 8
 952:lib/freertos/src/queue.c **** 	{
 1389              		.loc 1 952 2 discriminator 8
 922:lib/freertos/src/queue.c **** BaseType_t xReturn;
 1390              		.loc 1 922 1 is_stmt 0 discriminator 8
 1391 0030 4ECE     		sw	s3,28(sp)
 1392 0032 52CC     		sw	s4,24(sp)
 1393 0034 2EC6     		sw	a1,12(sp)
 1394 0036 06D6     		sw	ra,44(sp)
 1395 0038 26D2     		sw	s1,36(sp)
 1396 003a 56CA     		sw	s5,20(sp)
 1397              		.cfi_offset 19, -20
 1398              		.cfi_offset 20, -24
 1399              		.cfi_offset 1, -4
 1400              		.cfi_offset 9, -12
 1401              		.cfi_offset 21, -28
 1402 003c 3689     		mv	s2,a3
 1403 003e B289     		mv	s3,a2
 952:lib/freertos/src/queue.c **** 	{
 1404              		.loc 1 952 27 discriminator 8
 1405 0040 97000000 		call	xPortSetInterruptMask
 1405      E7800000 
 1406              	.LVL128:
 954:lib/freertos/src/queue.c **** 		{
 1407              		.loc 1 954 16 discriminator 8
 1408 0048 185C     		lw	a4,56(s0)
 954:lib/freertos/src/queue.c **** 		{
 1409              		.loc 1 954 5 discriminator 8
 1410 004a 5C5C     		lw	a5,60(s0)
 952:lib/freertos/src/queue.c **** 	{
 1411              		.loc 1 952 27 discriminator 8
 1412 004c 2A8A     		mv	s4,a0
 1413              	.LVL129:
 954:lib/freertos/src/queue.c **** 		{
 1414              		.loc 1 954 3 is_stmt 1 discriminator 8
 954:lib/freertos/src/queue.c **** 		{
GAS LISTING C:\Users\kasie\AppData\Local\Temp\ccBtjLu5.s 			page 68


 1415              		.loc 1 954 5 is_stmt 0 discriminator 8
 1416 004e B245     		lw	a1,12(sp)
 1417 0050 6366F700 		bltu	a4,a5,.L123
 954:lib/freertos/src/queue.c **** 		{
 1418              		.loc 1 954 58 discriminator 1
 1419 0054 8947     		li	a5,2
1063:lib/freertos/src/queue.c **** 		}
 1420              		.loc 1 1063 12 discriminator 1
 1421 0056 8144     		li	s1,0
 954:lib/freertos/src/queue.c **** 		{
 1422              		.loc 1 954 58 discriminator 1
 1423 0058 6314F902 		bne	s2,a5,.L124
 1424              	.L123:
 1425              	.LBB91:
 956:lib/freertos/src/queue.c **** 
 1426              		.loc 1 956 4 is_stmt 1
 956:lib/freertos/src/queue.c **** 
 1427              		.loc 1 956 17 is_stmt 0
 1428 005c 83445404 		lbu	s1,69(s0)
 965:lib/freertos/src/queue.c **** 
 1429              		.loc 1 965 13
 1430 0060 4A86     		mv	a2,s2
 1431 0062 2285     		mv	a0,s0
 1432              	.LVL130:
 956:lib/freertos/src/queue.c **** 
 1433              		.loc 1 956 17
 1434 0064 939A8401 		slli	s5,s1,24
 965:lib/freertos/src/queue.c **** 
 1435              		.loc 1 965 13
 1436 0068 97000000 		call	prvCopyDataToQueue
 1436      E7800000 
 1437              	.LVL131:
 956:lib/freertos/src/queue.c **** 
 1438              		.loc 1 956 17
 1439 0070 93DA8A41 		srai	s5,s5,24
 1440              	.LVL132:
 958:lib/freertos/src/queue.c **** 
 1441              		.loc 1 958 39 is_stmt 1
 965:lib/freertos/src/queue.c **** 
 1442              		.loc 1 965 4
 969:lib/freertos/src/queue.c **** 			{
 1443              		.loc 1 969 4
 969:lib/freertos/src/queue.c **** 			{
 1444              		.loc 1 969 6 is_stmt 0
 1445 0074 FD57     		li	a5,-1
 1446 0076 6391FA04 		bne	s5,a5,.L125
1024:lib/freertos/src/queue.c **** 					{
 1447              		.loc 1 1024 6 is_stmt 1
1024:lib/freertos/src/queue.c **** 					{
 1448              		.loc 1 1024 8 is_stmt 0
 1449 007a 5C50     		lw	a5,36(s0)
 1450 007c 8DE3     		bne	a5,zero,.L126
 1451              	.LVL133:
 1452              	.L140:
1058:lib/freertos/src/queue.c **** 		}
 1453              		.loc 1 1058 12
 1454 007e 8544     		li	s1,1
GAS LISTING C:\Users\kasie\AppData\Local\Temp\ccBtjLu5.s 			page 69


 1455              	.L124:
 1456              	.LVL134:
 1457              	.LBE91:
1066:lib/freertos/src/queue.c **** 
 1458              		.loc 1 1066 2 is_stmt 1
 1459 0080 5285     		mv	a0,s4
 1460 0082 97000000 		call	vPortClearInterruptMask
 1460      E7800000 
 1461              	.LVL135:
1068:lib/freertos/src/queue.c **** }
 1462              		.loc 1 1068 2
1069:lib/freertos/src/queue.c **** /*-----------------------------------------------------------*/
 1463              		.loc 1 1069 1 is_stmt 0
 1464 008a B250     		lw	ra,44(sp)
 1465              		.cfi_remember_state
 1466              		.cfi_restore 1
 1467 008c 2254     		lw	s0,40(sp)
 1468              		.cfi_restore 8
 1469              	.LVL136:
 1470 008e 2685     		mv	a0,s1
 1471 0090 0259     		lw	s2,32(sp)
 1472              		.cfi_restore 18
 1473              	.LVL137:
 1474 0092 9254     		lw	s1,36(sp)
 1475              		.cfi_restore 9
 1476              	.LVL138:
 1477 0094 F249     		lw	s3,28(sp)
 1478              		.cfi_restore 19
 1479              	.LVL139:
 1480 0096 624A     		lw	s4,24(sp)
 1481              		.cfi_restore 20
 1482              	.LVL140:
 1483 0098 D24A     		lw	s5,20(sp)
 1484              		.cfi_restore 21
 1485 009a 4561     		addi	sp,sp,48
 1486              	.LCFI19:
 1487              		.cfi_def_cfa_offset 0
 1488              	.LVL141:
 1489 009c 8280     		jr	ra
 1490              	.LVL142:
 1491              	.L126:
 1492              	.LCFI20:
 1493              		.cfi_restore_state
 1494              	.LBB92:
1026:lib/freertos/src/queue.c **** 						{
 1495              		.loc 1 1026 7 is_stmt 1
1026:lib/freertos/src/queue.c **** 						{
 1496              		.loc 1 1026 11 is_stmt 0
 1497 009e 13054402 		addi	a0,s0,36
 1498 00a2 97000000 		call	xTaskRemoveFromEventList
 1498      E7800000 
 1499              	.LVL143:
1026:lib/freertos/src/queue.c **** 						{
 1500              		.loc 1 1026 9
 1501 00aa 71D9     		beq	a0,zero,.L140
1030:lib/freertos/src/queue.c **** 							{
 1502              		.loc 1 1030 8 is_stmt 1
GAS LISTING C:\Users\kasie\AppData\Local\Temp\ccBtjLu5.s 			page 70


1030:lib/freertos/src/queue.c **** 							{
 1503              		.loc 1 1030 10 is_stmt 0
 1504 00ac E38909FC 		beq	s3,zero,.L140
1032:lib/freertos/src/queue.c **** 							}
 1505              		.loc 1 1032 9 is_stmt 1
1032:lib/freertos/src/queue.c **** 							}
 1506              		.loc 1 1032 36 is_stmt 0
 1507 00b0 8547     		li	a5,1
 1508 00b2 23A0F900 		sw	a5,0(s3)
 1509 00b6 E1B7     		j	.L140
 1510              	.L125:
1055:lib/freertos/src/queue.c **** 			}
 1511              		.loc 1 1055 5 is_stmt 1
1055:lib/freertos/src/queue.c **** 			}
 1512              		.loc 1 1055 45 is_stmt 0
 1513 00b8 8504     		addi	s1,s1,1
 1514              	.LVL144:
1055:lib/freertos/src/queue.c **** 			}
 1515              		.loc 1 1055 24
 1516 00ba E204     		slli	s1,s1,24
 1517 00bc E184     		srai	s1,s1,24
1055:lib/freertos/src/queue.c **** 			}
 1518              		.loc 1 1055 22
 1519 00be A3029404 		sb	s1,69(s0)
 1520 00c2 75BF     		j	.L140
 1521              	.LBE92:
 1522              		.cfi_endproc
 1523              	.LFE10:
 1525              		.section	.text.xQueueGiveFromISR,"ax",@progbits
 1526              		.align	1
 1527              		.globl	xQueueGiveFromISR
 1529              	xQueueGiveFromISR:
 1530              	.LFB11:
1073:lib/freertos/src/queue.c **** BaseType_t xReturn;
 1531              		.loc 1 1073 1 is_stmt 1
 1532              		.cfi_startproc
 1533              	.LVL145:
1074:lib/freertos/src/queue.c **** UBaseType_t uxSavedInterruptStatus;
 1534              		.loc 1 1074 1
1075:lib/freertos/src/queue.c **** Queue_t * const pxQueue = ( Queue_t * ) xQueue;
 1535              		.loc 1 1075 1
1076:lib/freertos/src/queue.c **** 
 1536              		.loc 1 1076 1
1084:lib/freertos/src/queue.c **** 
 1537              		.loc 1 1084 2
 1538 0000 01E5     		bne	a0,zero,.L142
1084:lib/freertos/src/queue.c **** 
 1539              		.loc 1 1084 2 discriminator 3
 1540              	.LBB93:
1084:lib/freertos/src/queue.c **** 
 1541              		.loc 1 1084 2 discriminator 3
1084:lib/freertos/src/queue.c **** 
 1542              		.loc 1 1084 2 discriminator 3
1084:lib/freertos/src/queue.c **** 
 1543              		.loc 1 1084 2 discriminator 3
 1544              	 #APP
 1545              	# 1084 "lib/freertos/src/queue.c" 1
GAS LISTING C:\Users\kasie\AppData\Local\Temp\ccBtjLu5.s 			page 71


 1546              		csrrc a5, mstatus, 8
 1547              	# 0 "" 2
 1548              	.LVL146:
1084:lib/freertos/src/queue.c **** 
 1549              		.loc 1 1084 2 discriminator 3
 1550              	 #NO_APP
 1551              	.L143:
 1552              	.LBE93:
1084:lib/freertos/src/queue.c **** 
 1553              		.loc 1 1084 2 discriminator 1
1084:lib/freertos/src/queue.c **** 
 1554              		.loc 1 1084 2 discriminator 1
1084:lib/freertos/src/queue.c **** 
 1555              		.loc 1 1084 2 discriminator 1
 1556 0006 01A0     		j	.L143
 1557              	.L142:
1084:lib/freertos/src/queue.c **** 
 1558              		.loc 1 1084 25 discriminator 2
1088:lib/freertos/src/queue.c **** 
 1559              		.loc 1 1088 2 discriminator 2
 1560 0008 3C41     		lw	a5,64(a0)
 1561 000a 81C7     		beq	a5,zero,.L144
1088:lib/freertos/src/queue.c **** 
 1562              		.loc 1 1088 2 discriminator 3
 1563              	.LBB94:
1088:lib/freertos/src/queue.c **** 
 1564              		.loc 1 1088 2 discriminator 3
1088:lib/freertos/src/queue.c **** 
 1565              		.loc 1 1088 2 discriminator 3
1088:lib/freertos/src/queue.c **** 
 1566              		.loc 1 1088 2 discriminator 3
 1567              	 #APP
 1568              	# 1088 "lib/freertos/src/queue.c" 1
 1569              		csrrc a5, mstatus, 8
 1570              	# 0 "" 2
 1571              	.LVL147:
1088:lib/freertos/src/queue.c **** 
 1572              		.loc 1 1088 2 discriminator 3
 1573              	 #NO_APP
 1574              	.L145:
 1575              	.LBE94:
1088:lib/freertos/src/queue.c **** 
 1576              		.loc 1 1088 2 discriminator 2
1088:lib/freertos/src/queue.c **** 
 1577              		.loc 1 1088 2 discriminator 2
1088:lib/freertos/src/queue.c **** 
 1578              		.loc 1 1088 2 discriminator 2
 1579 0010 01A0     		j	.L145
 1580              	.L144:
1088:lib/freertos/src/queue.c **** 
 1581              		.loc 1 1088 42 discriminator 2
1093:lib/freertos/src/queue.c **** 
 1582              		.loc 1 1093 2 discriminator 2
 1583 0012 1C41     		lw	a5,0(a0)
 1584 0014 91E7     		bne	a5,zero,.L146
 1585 0016 5C41     		lw	a5,4(a0)
 1586 0018 81C7     		beq	a5,zero,.L146
GAS LISTING C:\Users\kasie\AppData\Local\Temp\ccBtjLu5.s 			page 72


1093:lib/freertos/src/queue.c **** 
 1587              		.loc 1 1093 2
 1588              	.LBB95:
1093:lib/freertos/src/queue.c **** 
 1589              		.loc 1 1093 2
1093:lib/freertos/src/queue.c **** 
 1590              		.loc 1 1093 2
1093:lib/freertos/src/queue.c **** 
 1591              		.loc 1 1093 2
 1592              	 #APP
 1593              	# 1093 "lib/freertos/src/queue.c" 1
 1594              		csrrc a5, mstatus, 8
 1595              	# 0 "" 2
 1596              	.LVL148:
1093:lib/freertos/src/queue.c **** 
 1597              		.loc 1 1093 2
 1598              	 #NO_APP
 1599              	.L147:
 1600              	.LBE95:
1093:lib/freertos/src/queue.c **** 
 1601              		.loc 1 1093 2 discriminator 3
1093:lib/freertos/src/queue.c **** 
 1602              		.loc 1 1093 2 discriminator 3
1093:lib/freertos/src/queue.c **** 
 1603              		.loc 1 1093 2 discriminator 3
 1604 001e 01A0     		j	.L147
 1605              	.L146:
1073:lib/freertos/src/queue.c **** BaseType_t xReturn;
 1606              		.loc 1 1073 1 is_stmt 0 discriminator 8
 1607 0020 0111     		addi	sp,sp,-32
 1608              	.LCFI21:
 1609              		.cfi_def_cfa_offset 32
 1610 0022 22CC     		sw	s0,24(sp)
 1611 0024 26CA     		sw	s1,20(sp)
 1612              		.cfi_offset 8, -8
 1613              		.cfi_offset 9, -12
 1614 0026 2A84     		mv	s0,a0
1093:lib/freertos/src/queue.c **** 
 1615              		.loc 1 1093 108 is_stmt 1 discriminator 8
1109:lib/freertos/src/queue.c **** 
 1616              		.loc 1 1109 44 discriminator 8
1111:lib/freertos/src/queue.c **** 	{
 1617              		.loc 1 1111 2 discriminator 8
1073:lib/freertos/src/queue.c **** BaseType_t xReturn;
 1618              		.loc 1 1073 1 is_stmt 0 discriminator 8
 1619 0028 4AC8     		sw	s2,16(sp)
 1620 002a 4EC6     		sw	s3,12(sp)
 1621 002c 06CE     		sw	ra,28(sp)
 1622              		.cfi_offset 18, -16
 1623              		.cfi_offset 19, -20
 1624              		.cfi_offset 1, -4
 1625 002e 2E89     		mv	s2,a1
1111:lib/freertos/src/queue.c **** 	{
 1626              		.loc 1 1111 27 discriminator 8
 1627 0030 97000000 		call	xPortSetInterruptMask
 1627      E7800000 
 1628              	.LVL149:
GAS LISTING C:\Users\kasie\AppData\Local\Temp\ccBtjLu5.s 			page 73


 1629              	.LBB96:
1113:lib/freertos/src/queue.c **** 
 1630              		.loc 1 1113 21 discriminator 8
 1631 0038 185C     		lw	a4,56(s0)
1118:lib/freertos/src/queue.c **** 		{
 1632              		.loc 1 1118 5 discriminator 8
 1633 003a 5C5C     		lw	a5,60(s0)
 1634              	.LBE96:
1111:lib/freertos/src/queue.c **** 	{
 1635              		.loc 1 1111 27 discriminator 8
 1636 003c AA89     		mv	s3,a0
 1637              	.LVL150:
 1638              	.LBB99:
1113:lib/freertos/src/queue.c **** 
 1639              		.loc 1 1113 3 is_stmt 1 discriminator 8
1118:lib/freertos/src/queue.c **** 		{
 1640              		.loc 1 1118 3 discriminator 8
1228:lib/freertos/src/queue.c **** 		}
 1641              		.loc 1 1228 12 is_stmt 0 discriminator 8
 1642 003e 8144     		li	s1,0
1118:lib/freertos/src/queue.c **** 		{
 1643              		.loc 1 1118 5 discriminator 8
 1644 0040 637FF700 		bleu	a5,a4,.L148
 1645              	.LBB97:
1120:lib/freertos/src/queue.c **** 
 1646              		.loc 1 1120 4 is_stmt 1
1120:lib/freertos/src/queue.c **** 
 1647              		.loc 1 1120 17 is_stmt 0
 1648 0044 83475404 		lbu	a5,69(s0)
1130:lib/freertos/src/queue.c **** 
 1649              		.loc 1 1130 51
 1650 0048 0507     		addi	a4,a4,1
 1651              	.LVL151:
1130:lib/freertos/src/queue.c **** 
 1652              		.loc 1 1130 31
 1653 004a 18DC     		sw	a4,56(s0)
1120:lib/freertos/src/queue.c **** 
 1654              		.loc 1 1120 17
 1655 004c 93968701 		slli	a3,a5,24
 1656 0050 E186     		srai	a3,a3,24
 1657              	.LVL152:
1122:lib/freertos/src/queue.c **** 
 1658              		.loc 1 1122 39 is_stmt 1
1130:lib/freertos/src/queue.c **** 
 1659              		.loc 1 1130 4
1134:lib/freertos/src/queue.c **** 			{
 1660              		.loc 1 1134 4
1134:lib/freertos/src/queue.c **** 			{
 1661              		.loc 1 1134 6 is_stmt 0
 1662 0052 7D57     		li	a4,-1
 1663              	.LVL153:
 1664 0054 639FE602 		bne	a3,a4,.L149
1189:lib/freertos/src/queue.c **** 					{
 1665              		.loc 1 1189 6 is_stmt 1
1189:lib/freertos/src/queue.c **** 					{
 1666              		.loc 1 1189 8 is_stmt 0
 1667 0058 5C50     		lw	a5,36(s0)
GAS LISTING C:\Users\kasie\AppData\Local\Temp\ccBtjLu5.s 			page 74


 1668              	.LVL154:
 1669 005a 99EF     		bne	a5,zero,.L150
 1670              	.LVL155:
 1671              	.L164:
1223:lib/freertos/src/queue.c **** 		}
 1672              		.loc 1 1223 12
 1673 005c 8544     		li	s1,1
 1674              	.L148:
 1675              	.LVL156:
 1676              	.LBE97:
 1677              	.LBE99:
1231:lib/freertos/src/queue.c **** 
 1678              		.loc 1 1231 2 is_stmt 1
 1679 005e 4E85     		mv	a0,s3
 1680 0060 97000000 		call	vPortClearInterruptMask
 1680      E7800000 
 1681              	.LVL157:
1233:lib/freertos/src/queue.c **** }
 1682              		.loc 1 1233 2
1234:lib/freertos/src/queue.c **** /*-----------------------------------------------------------*/
 1683              		.loc 1 1234 1 is_stmt 0
 1684 0068 F240     		lw	ra,28(sp)
 1685              		.cfi_remember_state
 1686              		.cfi_restore 1
 1687 006a 6244     		lw	s0,24(sp)
 1688              		.cfi_restore 8
 1689              	.LVL158:
 1690 006c 2685     		mv	a0,s1
 1691 006e 4249     		lw	s2,16(sp)
 1692              		.cfi_restore 18
 1693              	.LVL159:
 1694 0070 D244     		lw	s1,20(sp)
 1695              		.cfi_restore 9
 1696              	.LVL160:
 1697 0072 B249     		lw	s3,12(sp)
 1698              		.cfi_restore 19
 1699              	.LVL161:
 1700 0074 0561     		addi	sp,sp,32
 1701              	.LCFI22:
 1702              		.cfi_def_cfa_offset 0
 1703 0076 8280     		jr	ra
 1704              	.LVL162:
 1705              	.L150:
 1706              	.LCFI23:
 1707              		.cfi_restore_state
 1708              	.LBB100:
 1709              	.LBB98:
1191:lib/freertos/src/queue.c **** 						{
 1710              		.loc 1 1191 7 is_stmt 1
1191:lib/freertos/src/queue.c **** 						{
 1711              		.loc 1 1191 11 is_stmt 0
 1712 0078 13054402 		addi	a0,s0,36
 1713              	.LVL163:
 1714 007c 97000000 		call	xTaskRemoveFromEventList
 1714      E7800000 
 1715              	.LVL164:
1191:lib/freertos/src/queue.c **** 						{
GAS LISTING C:\Users\kasie\AppData\Local\Temp\ccBtjLu5.s 			page 75


 1716              		.loc 1 1191 9
 1717 0084 61DD     		beq	a0,zero,.L164
1195:lib/freertos/src/queue.c **** 							{
 1718              		.loc 1 1195 8 is_stmt 1
1195:lib/freertos/src/queue.c **** 							{
 1719              		.loc 1 1195 10 is_stmt 0
 1720 0086 E30B09FC 		beq	s2,zero,.L164
1197:lib/freertos/src/queue.c **** 							}
 1721              		.loc 1 1197 9 is_stmt 1
1197:lib/freertos/src/queue.c **** 							}
 1722              		.loc 1 1197 36 is_stmt 0
 1723 008a 8547     		li	a5,1
 1724 008c 2320F900 		sw	a5,0(s2)
 1725 0090 F1B7     		j	.L164
 1726              	.LVL165:
 1727              	.L149:
1220:lib/freertos/src/queue.c **** 			}
 1728              		.loc 1 1220 5 is_stmt 1
1220:lib/freertos/src/queue.c **** 			}
 1729              		.loc 1 1220 45 is_stmt 0
 1730 0092 8507     		addi	a5,a5,1
 1731              	.LVL166:
1220:lib/freertos/src/queue.c **** 			}
 1732              		.loc 1 1220 24
 1733 0094 E207     		slli	a5,a5,24
 1734 0096 E187     		srai	a5,a5,24
1220:lib/freertos/src/queue.c **** 			}
 1735              		.loc 1 1220 22
 1736 0098 A302F404 		sb	a5,69(s0)
 1737              	.LVL167:
 1738 009c C1B7     		j	.L164
 1739              	.LBE98:
 1740              	.LBE100:
 1741              		.cfi_endproc
 1742              	.LFE11:
 1744              		.section	.text.xQueueGenericReceive,"ax",@progbits
 1745              		.align	1
 1746              		.globl	xQueueGenericReceive
 1748              	xQueueGenericReceive:
 1749              	.LFB12:
1238:lib/freertos/src/queue.c **** BaseType_t xEntryTimeSet = pdFALSE;
 1750              		.loc 1 1238 1 is_stmt 1
 1751              		.cfi_startproc
 1752              	.LVL168:
1239:lib/freertos/src/queue.c **** TimeOut_t xTimeOut;
 1753              		.loc 1 1239 1
1240:lib/freertos/src/queue.c **** int8_t *pcOriginalReadPosition;
 1754              		.loc 1 1240 1
1241:lib/freertos/src/queue.c **** Queue_t * const pxQueue = ( Queue_t * ) xQueue;
 1755              		.loc 1 1241 1
1242:lib/freertos/src/queue.c **** 
 1756              		.loc 1 1242 1
1244:lib/freertos/src/queue.c **** 	configASSERT( !( ( pvBuffer == NULL ) && ( pxQueue->uxItemSize != ( UBaseType_t ) 0U ) ) );
 1757              		.loc 1 1244 2
1238:lib/freertos/src/queue.c **** BaseType_t xEntryTimeSet = pdFALSE;
 1758              		.loc 1 1238 1 is_stmt 0
 1759 0000 3971     		addi	sp,sp,-64
GAS LISTING C:\Users\kasie\AppData\Local\Temp\ccBtjLu5.s 			page 76


 1760              	.LCFI24:
 1761              		.cfi_def_cfa_offset 64
 1762 0002 06DE     		sw	ra,60(sp)
 1763 0004 22DC     		sw	s0,56(sp)
 1764 0006 26DA     		sw	s1,52(sp)
 1765 0008 4AD8     		sw	s2,48(sp)
 1766 000a 4ED6     		sw	s3,44(sp)
 1767 000c 52D4     		sw	s4,40(sp)
 1768 000e 56D2     		sw	s5,36(sp)
 1769              		.cfi_offset 1, -4
 1770              		.cfi_offset 8, -8
 1771              		.cfi_offset 9, -12
 1772              		.cfi_offset 18, -16
 1773              		.cfi_offset 19, -20
 1774              		.cfi_offset 20, -24
 1775              		.cfi_offset 21, -28
1238:lib/freertos/src/queue.c **** BaseType_t xEntryTimeSet = pdFALSE;
 1776              		.loc 1 1238 1
 1777 0010 32C6     		sw	a2,12(sp)
1244:lib/freertos/src/queue.c **** 	configASSERT( !( ( pvBuffer == NULL ) && ( pxQueue->uxItemSize != ( UBaseType_t ) 0U ) ) );
 1778              		.loc 1 1244 2
 1779 0012 01E5     		bne	a0,zero,.L166
1244:lib/freertos/src/queue.c **** 	configASSERT( !( ( pvBuffer == NULL ) && ( pxQueue->uxItemSize != ( UBaseType_t ) 0U ) ) );
 1780              		.loc 1 1244 2 is_stmt 1 discriminator 3
 1781              	.LBB112:
1244:lib/freertos/src/queue.c **** 	configASSERT( !( ( pvBuffer == NULL ) && ( pxQueue->uxItemSize != ( UBaseType_t ) 0U ) ) );
 1782              		.loc 1 1244 2 discriminator 3
1244:lib/freertos/src/queue.c **** 	configASSERT( !( ( pvBuffer == NULL ) && ( pxQueue->uxItemSize != ( UBaseType_t ) 0U ) ) );
 1783              		.loc 1 1244 2 discriminator 3
1244:lib/freertos/src/queue.c **** 	configASSERT( !( ( pvBuffer == NULL ) && ( pxQueue->uxItemSize != ( UBaseType_t ) 0U ) ) );
 1784              		.loc 1 1244 2 discriminator 3
 1785              	 #APP
 1786              	# 1244 "lib/freertos/src/queue.c" 1
 1787              		csrrc a5, mstatus, 8
 1788              	# 0 "" 2
 1789              	.LVL169:
1244:lib/freertos/src/queue.c **** 	configASSERT( !( ( pvBuffer == NULL ) && ( pxQueue->uxItemSize != ( UBaseType_t ) 0U ) ) );
 1790              		.loc 1 1244 2 discriminator 3
 1791              	 #NO_APP
 1792              	.L167:
 1793              	.LBE112:
1244:lib/freertos/src/queue.c **** 	configASSERT( !( ( pvBuffer == NULL ) && ( pxQueue->uxItemSize != ( UBaseType_t ) 0U ) ) );
 1794              		.loc 1 1244 2 discriminator 1
1244:lib/freertos/src/queue.c **** 	configASSERT( !( ( pvBuffer == NULL ) && ( pxQueue->uxItemSize != ( UBaseType_t ) 0U ) ) );
 1795              		.loc 1 1244 2 discriminator 1
1244:lib/freertos/src/queue.c **** 	configASSERT( !( ( pvBuffer == NULL ) && ( pxQueue->uxItemSize != ( UBaseType_t ) 0U ) ) );
 1796              		.loc 1 1244 2 discriminator 1
 1797 0018 01A0     		j	.L167
 1798              	.L166:
1244:lib/freertos/src/queue.c **** 	configASSERT( !( ( pvBuffer == NULL ) && ( pxQueue->uxItemSize != ( UBaseType_t ) 0U ) ) );
 1799              		.loc 1 1244 25 discriminator 2
1245:lib/freertos/src/queue.c **** 	#if ( ( INCLUDE_xTaskGetSchedulerState == 1 ) || ( configUSE_TIMERS == 1 ) )
 1800              		.loc 1 1245 2 discriminator 2
 1801 001a 91E5     		bne	a1,zero,.L168
 1802 001c 3C41     		lw	a5,64(a0)
 1803 001e 81C7     		beq	a5,zero,.L168
1245:lib/freertos/src/queue.c **** 	#if ( ( INCLUDE_xTaskGetSchedulerState == 1 ) || ( configUSE_TIMERS == 1 ) )
GAS LISTING C:\Users\kasie\AppData\Local\Temp\ccBtjLu5.s 			page 77


 1804              		.loc 1 1245 2
 1805              	.LBB113:
1245:lib/freertos/src/queue.c **** 	#if ( ( INCLUDE_xTaskGetSchedulerState == 1 ) || ( configUSE_TIMERS == 1 ) )
 1806              		.loc 1 1245 2
1245:lib/freertos/src/queue.c **** 	#if ( ( INCLUDE_xTaskGetSchedulerState == 1 ) || ( configUSE_TIMERS == 1 ) )
 1807              		.loc 1 1245 2
1245:lib/freertos/src/queue.c **** 	#if ( ( INCLUDE_xTaskGetSchedulerState == 1 ) || ( configUSE_TIMERS == 1 ) )
 1808              		.loc 1 1245 2
 1809              	 #APP
 1810              	# 1245 "lib/freertos/src/queue.c" 1
 1811              		csrrc a5, mstatus, 8
 1812              	# 0 "" 2
 1813              	.LVL170:
1245:lib/freertos/src/queue.c **** 	#if ( ( INCLUDE_xTaskGetSchedulerState == 1 ) || ( configUSE_TIMERS == 1 ) )
 1814              		.loc 1 1245 2
 1815              	 #NO_APP
 1816              	.L169:
 1817              	.LBE113:
1245:lib/freertos/src/queue.c **** 	#if ( ( INCLUDE_xTaskGetSchedulerState == 1 ) || ( configUSE_TIMERS == 1 ) )
 1818              		.loc 1 1245 2 discriminator 2
1245:lib/freertos/src/queue.c **** 	#if ( ( INCLUDE_xTaskGetSchedulerState == 1 ) || ( configUSE_TIMERS == 1 ) )
 1819              		.loc 1 1245 2 discriminator 2
1245:lib/freertos/src/queue.c **** 	#if ( ( INCLUDE_xTaskGetSchedulerState == 1 ) || ( configUSE_TIMERS == 1 ) )
 1820              		.loc 1 1245 2 discriminator 2
 1821 0024 01A0     		j	.L169
 1822              	.L168:
 1823 0026 368A     		mv	s4,a3
 1824 0028 AE89     		mv	s3,a1
 1825 002a 2A84     		mv	s0,a0
1245:lib/freertos/src/queue.c **** 	#if ( ( INCLUDE_xTaskGetSchedulerState == 1 ) || ( configUSE_TIMERS == 1 ) )
 1826              		.loc 1 1245 92 discriminator 8
1248:lib/freertos/src/queue.c **** 	}
 1827              		.loc 1 1248 3 discriminator 8
 1828 002c 97000000 		call	xTaskGetSchedulerState
 1828      E7800000 
 1829              	.LVL171:
 1830 0034 11E5     		bne	a0,zero,.L190
1248:lib/freertos/src/queue.c **** 	}
 1831              		.loc 1 1248 3 is_stmt 0 discriminator 2
 1832 0036 B247     		lw	a5,12(sp)
 1833 0038 89C7     		beq	a5,zero,.L170
1248:lib/freertos/src/queue.c **** 	}
 1834              		.loc 1 1248 3 is_stmt 1
 1835              	.LBB114:
1248:lib/freertos/src/queue.c **** 	}
 1836              		.loc 1 1248 3
1248:lib/freertos/src/queue.c **** 	}
 1837              		.loc 1 1248 3
1248:lib/freertos/src/queue.c **** 	}
 1838              		.loc 1 1248 3
 1839              	 #APP
 1840              	# 1248 "lib/freertos/src/queue.c" 1
 1841              		csrrc a5, mstatus, 8
 1842              	# 0 "" 2
 1843              	.LVL172:
1248:lib/freertos/src/queue.c **** 	}
 1844              		.loc 1 1248 3
GAS LISTING C:\Users\kasie\AppData\Local\Temp\ccBtjLu5.s 			page 78


 1845              	 #NO_APP
 1846              	.L171:
 1847              	.LBE114:
1248:lib/freertos/src/queue.c **** 	}
 1848              		.loc 1 1248 3 discriminator 3
1248:lib/freertos/src/queue.c **** 	}
 1849              		.loc 1 1248 3 discriminator 3
1248:lib/freertos/src/queue.c **** 	}
 1850              		.loc 1 1248 3 discriminator 3
 1851 003e 01A0     		j	.L171
 1852              	.L190:
 1853 0040 0145     		li	a0,0
 1854              	.L170:
1371:lib/freertos/src/queue.c **** 
 1855              		.loc 1 1371 3 is_stmt 0 discriminator 8
 1856 0042 7D59     		li	s2,-1
1397:lib/freertos/src/queue.c **** 				prvUnlockQueue( pxQueue );
 1857              		.loc 1 1397 5 discriminator 8
 1858 0044 930A4402 		addi	s5,s0,36
 1859 0048 21A2     		j	.L172
 1860              	.LVL173:
 1861              	.L174:
 1862              	.LBB115:
1312:lib/freertos/src/queue.c **** 
 1863              		.loc 1 1312 32 is_stmt 1
1316:lib/freertos/src/queue.c **** 
 1864              		.loc 1 1316 6
1320:lib/freertos/src/queue.c **** 					{
 1865              		.loc 1 1320 8 is_stmt 0
 1866 004a 5C50     		lw	a5,36(s0)
1316:lib/freertos/src/queue.c **** 
 1867              		.loc 1 1316 28
 1868 004c 23262401 		sw	s2,12(s0)
1320:lib/freertos/src/queue.c **** 					{
 1869              		.loc 1 1320 6 is_stmt 1
1320:lib/freertos/src/queue.c **** 					{
 1870              		.loc 1 1320 8 is_stmt 0
 1871 0050 63800714 		beq	a5,zero,.L177
1322:lib/freertos/src/queue.c **** 						{
 1872              		.loc 1 1322 7 is_stmt 1
1322:lib/freertos/src/queue.c **** 						{
 1873              		.loc 1 1322 11 is_stmt 0
 1874 0054 13054402 		addi	a0,s0,36
 1875              	.LVL174:
 1876              	.L212:
 1877 0058 97000000 		call	xTaskRemoveFromEventList
 1877      E7800000 
 1878              	.LVL175:
1322:lib/freertos/src/queue.c **** 						{
 1879              		.loc 1 1322 9
 1880 0060 63080512 		beq	a0,zero,.L177
1325:lib/freertos/src/queue.c **** 						}
 1881              		.loc 1 1325 8 is_stmt 1
 1882              	.LBB116:
1325:lib/freertos/src/queue.c **** 						}
 1883              		.loc 1 1325 8
 1884 0064 13068002 		li	a2,40
GAS LISTING C:\Users\kasie\AppData\Local\Temp\ccBtjLu5.s 			page 79


1325:lib/freertos/src/queue.c **** 						}
 1885              		.loc 1 1325 8
 1886              	 #APP
 1887              	# 1325 "lib/freertos/src/queue.c" 1
1325:lib/freertos/src/queue.c **** 						}
 1888              		ecall
 1889              	# 0 "" 2
 1890              		.loc 1 1325 8
 1891              	 #NO_APP
 1892              	.LBE116:
1325:lib/freertos/src/queue.c **** 						}
 1893              		.loc 1 1325 40
 1894 006c 15A2     		j	.L177
 1895              	.LVL176:
 1896              	.L173:
1343:lib/freertos/src/queue.c **** 				{
 1897              		.loc 1 1343 5
1343:lib/freertos/src/queue.c **** 				{
 1898              		.loc 1 1343 7 is_stmt 0
 1899 006e B247     		lw	a5,12(sp)
 1900 0070 99E7     		bne	a5,zero,.L180
 1901              	.LVL177:
 1902              	.L189:
1347:lib/freertos/src/queue.c **** 					traceQUEUE_RECEIVE_FAILED( pxQueue );
 1903              		.loc 1 1347 6 is_stmt 1
 1904 0072 97000000 		call	vPortExitCritical
 1904      E7800000 
 1905              	.LVL178:
1348:lib/freertos/src/queue.c **** 					return errQUEUE_EMPTY;
 1906              		.loc 1 1348 42
1349:lib/freertos/src/queue.c **** 				}
 1907              		.loc 1 1349 6
1349:lib/freertos/src/queue.c **** 				}
 1908              		.loc 1 1349 13 is_stmt 0
 1909 007a 0145     		li	a0,0
 1910 007c 39AA     		j	.L165
 1911              	.LVL179:
 1912              	.L180:
1351:lib/freertos/src/queue.c **** 				{
 1913              		.loc 1 1351 10 is_stmt 1
1351:lib/freertos/src/queue.c **** 				{
 1914              		.loc 1 1351 12 is_stmt 0
 1915 007e 11E5     		bne	a0,zero,.L181
1355:lib/freertos/src/queue.c **** 					xEntryTimeSet = pdTRUE;
 1916              		.loc 1 1355 6 is_stmt 1
 1917 0080 2808     		addi	a0,sp,24
 1918 0082 97000000 		call	vTaskSetTimeOutState
 1918      E7800000 
 1919              	.LVL180:
1356:lib/freertos/src/queue.c **** 				}
 1920              		.loc 1 1356 6
 1921              	.L181:
1361:lib/freertos/src/queue.c **** 				}
 1922              		.loc 1 1361 30
 1923              	.LBE115:
1365:lib/freertos/src/queue.c **** 
 1924              		.loc 1 1365 3
GAS LISTING C:\Users\kasie\AppData\Local\Temp\ccBtjLu5.s 			page 80


 1925 008a 97000000 		call	vPortExitCritical
 1925      E7800000 
 1926              	.LVL181:
1370:lib/freertos/src/queue.c **** 		prvLockQueue( pxQueue );
 1927              		.loc 1 1370 3
 1928 0092 97000000 		call	vTaskSuspendAll
 1928      E7800000 
 1929              	.LVL182:
1371:lib/freertos/src/queue.c **** 
 1930              		.loc 1 1371 3
 1931 009a 97000000 		call	vPortEnterCritical
 1931      E7800000 
 1932              	.LVL183:
1371:lib/freertos/src/queue.c **** 
 1933              		.loc 1 1371 3
 1934 00a2 83474404 		lbu	a5,68(s0)
 1935 00a6 E207     		slli	a5,a5,24
 1936 00a8 E187     		srai	a5,a5,24
 1937 00aa 63942701 		bne	a5,s2,.L182
1371:lib/freertos/src/queue.c **** 
 1938              		.loc 1 1371 3 discriminator 1
 1939 00ae 23020404 		sb	zero,68(s0)
 1940              	.L182:
1371:lib/freertos/src/queue.c **** 
 1941              		.loc 1 1371 3 discriminator 3
 1942 00b2 83475404 		lbu	a5,69(s0)
 1943 00b6 E207     		slli	a5,a5,24
 1944 00b8 E187     		srai	a5,a5,24
 1945 00ba 63942701 		bne	a5,s2,.L183
1371:lib/freertos/src/queue.c **** 
 1946              		.loc 1 1371 3 discriminator 4
 1947 00be A3020404 		sb	zero,69(s0)
 1948              	.L183:
1371:lib/freertos/src/queue.c **** 
 1949              		.loc 1 1371 3 discriminator 6
 1950 00c2 97000000 		call	vPortExitCritical
 1950      E7800000 
 1951              	.LVL184:
1374:lib/freertos/src/queue.c **** 		{
 1952              		.loc 1 1374 3 discriminator 6
1374:lib/freertos/src/queue.c **** 		{
 1953              		.loc 1 1374 7 is_stmt 0 discriminator 6
 1954 00ca 6C00     		addi	a1,sp,12
 1955 00cc 2808     		addi	a0,sp,24
 1956 00ce 97000000 		call	xTaskCheckForTimeOut
 1956      E7800000 
 1957              	.LVL185:
1374:lib/freertos/src/queue.c **** 		{
 1958              		.loc 1 1374 5 discriminator 6
 1959 00d6 79E9     		bne	a0,zero,.L184
1376:lib/freertos/src/queue.c **** 			{
 1960              		.loc 1 1376 4 is_stmt 1
 1961              	.LVL186:
 1962              	.LBB117:
 1963              	.LBB118:
1916:lib/freertos/src/queue.c **** 
 1964              		.loc 1 1916 1
GAS LISTING C:\Users\kasie\AppData\Local\Temp\ccBtjLu5.s 			page 81


1918:lib/freertos/src/queue.c **** 	{
 1965              		.loc 1 1918 2
 1966 00d8 97000000 		call	vPortEnterCritical
 1966      E7800000 
 1967              	.LVL187:
1920:lib/freertos/src/queue.c **** 		{
 1968              		.loc 1 1920 3
1920:lib/freertos/src/queue.c **** 		{
 1969              		.loc 1 1920 14 is_stmt 0
 1970 00e0 1C5C     		lw	a5,56(s0)
1920:lib/freertos/src/queue.c **** 		{
 1971              		.loc 1 1920 5
 1972 00e2 A9EB     		bne	a5,zero,.L185
 1973              	.LVL188:
1929:lib/freertos/src/queue.c **** 
 1974              		.loc 1 1929 2 is_stmt 1
 1975 00e4 97000000 		call	vPortExitCritical
 1975      E7800000 
 1976              	.LVL189:
1931:lib/freertos/src/queue.c **** }
 1977              		.loc 1 1931 2
 1978              	.LBE118:
 1979              	.LBE117:
1378:lib/freertos/src/queue.c **** 
 1980              		.loc 1 1378 46
1382:lib/freertos/src/queue.c **** 					{
 1981              		.loc 1 1382 6
1382:lib/freertos/src/queue.c **** 					{
 1982              		.loc 1 1382 8 is_stmt 0
 1983 00ec 1C40     		lw	a5,0(s0)
 1984 00ee 91EF     		bne	a5,zero,.L187
1384:lib/freertos/src/queue.c **** 						{
 1985              		.loc 1 1384 7 is_stmt 1
 1986 00f0 97000000 		call	vPortEnterCritical
 1986      E7800000 
 1987              	.LVL190:
1386:lib/freertos/src/queue.c **** 						}
 1988              		.loc 1 1386 8
 1989 00f8 4840     		lw	a0,4(s0)
 1990 00fa 97000000 		call	vTaskPriorityInherit
 1990      E7800000 
 1991              	.LVL191:
1388:lib/freertos/src/queue.c **** 					}
 1992              		.loc 1 1388 7
 1993 0102 97000000 		call	vPortExitCritical
 1993      E7800000 
 1994              	.LVL192:
 1995              	.L187:
1392:lib/freertos/src/queue.c **** 					}
 1996              		.loc 1 1392 31
1397:lib/freertos/src/queue.c **** 				prvUnlockQueue( pxQueue );
 1997              		.loc 1 1397 5
 1998 010a B245     		lw	a1,12(sp)
 1999 010c 5685     		mv	a0,s5
 2000 010e 97000000 		call	vTaskPlaceOnEventList
 2000      E7800000 
 2001              	.LVL193:
GAS LISTING C:\Users\kasie\AppData\Local\Temp\ccBtjLu5.s 			page 82


1398:lib/freertos/src/queue.c **** 				if( xTaskResumeAll() == pdFALSE )
 2002              		.loc 1 1398 5
 2003 0116 2285     		mv	a0,s0
 2004 0118 97000000 		call	prvUnlockQueue
 2004      E7800000 
 2005              	.LVL194:
1399:lib/freertos/src/queue.c **** 				{
 2006              		.loc 1 1399 5
1399:lib/freertos/src/queue.c **** 				{
 2007              		.loc 1 1399 9 is_stmt 0
 2008 0120 97000000 		call	xTaskResumeAll
 2008      E7800000 
 2009              	.LVL195:
1399:lib/freertos/src/queue.c **** 				{
 2010              		.loc 1 1399 7
 2011 0128 1DE1     		bne	a0,zero,.L188
1401:lib/freertos/src/queue.c **** 				}
 2012              		.loc 1 1401 6 is_stmt 1
 2013              	.LBB120:
1401:lib/freertos/src/queue.c **** 				}
 2014              		.loc 1 1401 6
 2015 012a 13068002 		li	a2,40
1401:lib/freertos/src/queue.c **** 				}
 2016              		.loc 1 1401 6
 2017              	 #APP
 2018              	# 1401 "lib/freertos/src/queue.c" 1
1401:lib/freertos/src/queue.c **** 				}
 2019              		ecall
 2020              	# 0 "" 2
 2021              		.loc 1 1401 6
 2022              	 #NO_APP
 2023              	.LBE120:
1401:lib/freertos/src/queue.c **** 				}
 2024              		.loc 1 1401 28
 2025 0132 31A8     		j	.L188
 2026              	.LVL196:
 2027              	.L185:
 2028              	.LBB121:
 2029              	.LBB119:
1926:lib/freertos/src/queue.c **** 		}
 2030              		.loc 1 1926 4
1929:lib/freertos/src/queue.c **** 
 2031              		.loc 1 1929 2
 2032 0134 97000000 		call	vPortExitCritical
 2032      E7800000 
 2033              	.LVL197:
1931:lib/freertos/src/queue.c **** }
 2034              		.loc 1 1931 2
 2035              	.LBE119:
 2036              	.LBE121:
1411:lib/freertos/src/queue.c **** 				( void ) xTaskResumeAll();
 2037              		.loc 1 1411 5
 2038 013c 2285     		mv	a0,s0
 2039 013e 97000000 		call	prvUnlockQueue
 2039      E7800000 
 2040              	.LVL198:
1412:lib/freertos/src/queue.c **** 			}
GAS LISTING C:\Users\kasie\AppData\Local\Temp\ccBtjLu5.s 			page 83


 2041              		.loc 1 1412 5
1412:lib/freertos/src/queue.c **** 			}
 2042              		.loc 1 1412 14 is_stmt 0
 2043 0146 97000000 		call	xTaskResumeAll
 2043      E7800000 
 2044              	.LVL199:
 2045              	.L188:
 2046 014e 0545     		li	a0,1
 2047              	.LVL200:
 2048              	.L172:
 2049 0150 2AC4     		sw	a0,8(sp)
 2050              	.LVL201:
1248:lib/freertos/src/queue.c **** 	}
 2051              		.loc 1 1248 104 is_stmt 1 discriminator 8
1256:lib/freertos/src/queue.c **** 	{
 2052              		.loc 1 1256 2 discriminator 8
1258:lib/freertos/src/queue.c **** 		{
 2053              		.loc 1 1258 3 discriminator 8
 2054 0152 97000000 		call	vPortEnterCritical
 2054      E7800000 
 2055              	.LVL202:
 2056              	.LBB122:
1260:lib/freertos/src/queue.c **** 
 2057              		.loc 1 1260 4 discriminator 8
1260:lib/freertos/src/queue.c **** 
 2058              		.loc 1 1260 22 is_stmt 0 discriminator 8
 2059 015a 045C     		lw	s1,56(s0)
 2060              	.LVL203:
1264:lib/freertos/src/queue.c **** 			{
 2061              		.loc 1 1264 4 is_stmt 1 discriminator 8
1264:lib/freertos/src/queue.c **** 			{
 2062              		.loc 1 1264 6 is_stmt 0 discriminator 8
 2063 015c 2245     		lw	a0,8(sp)
 2064 015e 81D8     		beq	s1,zero,.L173
1268:lib/freertos/src/queue.c **** 
 2065              		.loc 1 1268 5 is_stmt 1
1270:lib/freertos/src/queue.c **** 
 2066              		.loc 1 1270 5 is_stmt 0
 2067 0160 CE85     		mv	a1,s3
 2068 0162 2285     		mv	a0,s0
1268:lib/freertos/src/queue.c **** 
 2069              		.loc 1 1268 28
 2070 0164 0329C400 		lw	s2,12(s0)
 2071              	.LVL204:
1270:lib/freertos/src/queue.c **** 
 2072              		.loc 1 1270 5 is_stmt 1
 2073 0168 97000000 		call	prvCopyDataFromQueue
 2073      E7800000 
 2074              	.LVL205:
1272:lib/freertos/src/queue.c **** 				{
 2075              		.loc 1 1272 5
1272:lib/freertos/src/queue.c **** 				{
 2076              		.loc 1 1272 7 is_stmt 0
 2077 0170 E31D0AEC 		bne	s4,zero,.L174
1274:lib/freertos/src/queue.c **** 
 2078              		.loc 1 1274 35 is_stmt 1
1277:lib/freertos/src/queue.c **** 
GAS LISTING C:\Users\kasie\AppData\Local\Temp\ccBtjLu5.s 			page 84


 2079              		.loc 1 1277 6
1281:lib/freertos/src/queue.c **** 						{
 2080              		.loc 1 1281 9 is_stmt 0
 2081 0174 1C40     		lw	a5,0(s0)
1277:lib/freertos/src/queue.c **** 
 2082              		.loc 1 1277 53
 2083 0176 FD14     		addi	s1,s1,-1
 2084              	.LVL206:
1277:lib/freertos/src/queue.c **** 
 2085              		.loc 1 1277 33
 2086 0178 04DC     		sw	s1,56(s0)
1281:lib/freertos/src/queue.c **** 						{
 2087              		.loc 1 1281 7 is_stmt 1
1281:lib/freertos/src/queue.c **** 						{
 2088              		.loc 1 1281 9 is_stmt 0
 2089 017a 91E7     		bne	a5,zero,.L175
1285:lib/freertos/src/queue.c **** 						}
 2090              		.loc 1 1285 8 is_stmt 1
1285:lib/freertos/src/queue.c **** 						}
 2091              		.loc 1 1285 46 is_stmt 0
 2092 017c 97000000 		call	pvTaskIncrementMutexHeldCount
 2092      E7800000 
 2093              	.LVL207:
1285:lib/freertos/src/queue.c **** 						}
 2094              		.loc 1 1285 31
 2095 0184 48C0     		sw	a0,4(s0)
 2096              	.L175:
1289:lib/freertos/src/queue.c **** 						}
 2097              		.loc 1 1289 32 is_stmt 1
1294:lib/freertos/src/queue.c **** 					{
 2098              		.loc 1 1294 6
1294:lib/freertos/src/queue.c **** 					{
 2099              		.loc 1 1294 8 is_stmt 0
 2100 0186 1C48     		lw	a5,16(s0)
1296:lib/freertos/src/queue.c **** 						{
 2101              		.loc 1 1296 11
 2102 0188 13050401 		addi	a0,s0,16
1294:lib/freertos/src/queue.c **** 					{
 2103              		.loc 1 1294 8
 2104 018c E39607EC 		bne	a5,zero,.L212
 2105              	.LVL208:
 2106              	.L177:
1334:lib/freertos/src/queue.c **** 					}
 2107              		.loc 1 1334 31 is_stmt 1
1338:lib/freertos/src/queue.c **** 				return pdPASS;
 2108              		.loc 1 1338 5
 2109 0190 97000000 		call	vPortExitCritical
 2109      E7800000 
 2110              	.LVL209:
1339:lib/freertos/src/queue.c **** 			}
 2111              		.loc 1 1339 5
1339:lib/freertos/src/queue.c **** 			}
 2112              		.loc 1 1339 12 is_stmt 0
 2113 0198 0545     		li	a0,1
 2114              	.LVL210:
 2115              	.L165:
 2116              	.LBE122:
GAS LISTING C:\Users\kasie\AppData\Local\Temp\ccBtjLu5.s 			page 85


1431:lib/freertos/src/queue.c **** /*-----------------------------------------------------------*/
 2117              		.loc 1 1431 1
 2118 019a F250     		lw	ra,60(sp)
 2119              		.cfi_remember_state
 2120              		.cfi_restore 1
 2121 019c 6254     		lw	s0,56(sp)
 2122              		.cfi_restore 8
 2123              	.LVL211:
 2124 019e D254     		lw	s1,52(sp)
 2125              		.cfi_restore 9
 2126 01a0 4259     		lw	s2,48(sp)
 2127              		.cfi_restore 18
 2128 01a2 B259     		lw	s3,44(sp)
 2129              		.cfi_restore 19
 2130              	.LVL212:
 2131 01a4 225A     		lw	s4,40(sp)
 2132              		.cfi_restore 20
 2133              	.LVL213:
 2134 01a6 925A     		lw	s5,36(sp)
 2135              		.cfi_restore 21
 2136              	.LVL214:
 2137 01a8 2161     		addi	sp,sp,64
 2138              	.LCFI25:
 2139              		.cfi_def_cfa_offset 0
 2140 01aa 8280     		jr	ra
 2141              	.LVL215:
 2142              	.L184:
 2143              	.LCFI26:
 2144              		.cfi_restore_state
1417:lib/freertos/src/queue.c **** 			( void ) xTaskResumeAll();
 2145              		.loc 1 1417 4 is_stmt 1
 2146 01ac 2285     		mv	a0,s0
 2147 01ae 97000000 		call	prvUnlockQueue
 2147      E7800000 
 2148              	.LVL216:
1418:lib/freertos/src/queue.c **** 
 2149              		.loc 1 1418 4
1418:lib/freertos/src/queue.c **** 
 2150              		.loc 1 1418 13 is_stmt 0
 2151 01b6 97000000 		call	xTaskResumeAll
 2151      E7800000 
 2152              	.LVL217:
1420:lib/freertos/src/queue.c **** 			{
 2153              		.loc 1 1420 4 is_stmt 1
 2154              	.LBB123:
 2155              	.LBB124:
1916:lib/freertos/src/queue.c **** 
 2156              		.loc 1 1916 1
1918:lib/freertos/src/queue.c **** 	{
 2157              		.loc 1 1918 2
 2158 01be 97000000 		call	vPortEnterCritical
 2158      E7800000 
 2159              	.LVL218:
1920:lib/freertos/src/queue.c **** 		{
 2160              		.loc 1 1920 3
1920:lib/freertos/src/queue.c **** 		{
 2161              		.loc 1 1920 14 is_stmt 0
GAS LISTING C:\Users\kasie\AppData\Local\Temp\ccBtjLu5.s 			page 86


 2162 01c6 1C5C     		lw	a5,56(s0)
1920:lib/freertos/src/queue.c **** 		{
 2163              		.loc 1 1920 5
 2164 01c8 E38507EA 		beq	a5,zero,.L189
1926:lib/freertos/src/queue.c **** 		}
 2165              		.loc 1 1926 4 is_stmt 1
 2166              	.LVL219:
1929:lib/freertos/src/queue.c **** 
 2167              		.loc 1 1929 2
 2168 01cc 97000000 		call	vPortExitCritical
 2168      E7800000 
 2169              	.LVL220:
1931:lib/freertos/src/queue.c **** }
 2170              		.loc 1 1931 2
 2171 01d4 ADBF     		j	.L188
 2172              	.LBE124:
 2173              	.LBE123:
 2174              		.cfi_endproc
 2175              	.LFE12:
 2177              		.section	.text.xQueueReceiveFromISR,"ax",@progbits
 2178              		.align	1
 2179              		.globl	xQueueReceiveFromISR
 2181              	xQueueReceiveFromISR:
 2182              	.LFB13:
1435:lib/freertos/src/queue.c **** BaseType_t xReturn;
 2183              		.loc 1 1435 1
 2184              		.cfi_startproc
 2185              	.LVL221:
1436:lib/freertos/src/queue.c **** UBaseType_t uxSavedInterruptStatus;
 2186              		.loc 1 1436 1
1437:lib/freertos/src/queue.c **** Queue_t * const pxQueue = ( Queue_t * ) xQueue;
 2187              		.loc 1 1437 1
1438:lib/freertos/src/queue.c **** 
 2188              		.loc 1 1438 1
1440:lib/freertos/src/queue.c **** 	configASSERT( !( ( pvBuffer == NULL ) && ( pxQueue->uxItemSize != ( UBaseType_t ) 0U ) ) );
 2189              		.loc 1 1440 2
 2190 0000 01E5     		bne	a0,zero,.L214
1440:lib/freertos/src/queue.c **** 	configASSERT( !( ( pvBuffer == NULL ) && ( pxQueue->uxItemSize != ( UBaseType_t ) 0U ) ) );
 2191              		.loc 1 1440 2 discriminator 3
 2192              	.LBB125:
1440:lib/freertos/src/queue.c **** 	configASSERT( !( ( pvBuffer == NULL ) && ( pxQueue->uxItemSize != ( UBaseType_t ) 0U ) ) );
 2193              		.loc 1 1440 2 discriminator 3
1440:lib/freertos/src/queue.c **** 	configASSERT( !( ( pvBuffer == NULL ) && ( pxQueue->uxItemSize != ( UBaseType_t ) 0U ) ) );
 2194              		.loc 1 1440 2 discriminator 3
1440:lib/freertos/src/queue.c **** 	configASSERT( !( ( pvBuffer == NULL ) && ( pxQueue->uxItemSize != ( UBaseType_t ) 0U ) ) );
 2195              		.loc 1 1440 2 discriminator 3
 2196              	 #APP
 2197              	# 1440 "lib/freertos/src/queue.c" 1
 2198              		csrrc a5, mstatus, 8
 2199              	# 0 "" 2
 2200              	.LVL222:
1440:lib/freertos/src/queue.c **** 	configASSERT( !( ( pvBuffer == NULL ) && ( pxQueue->uxItemSize != ( UBaseType_t ) 0U ) ) );
 2201              		.loc 1 1440 2 discriminator 3
 2202              	 #NO_APP
 2203              	.L215:
 2204              	.LBE125:
1440:lib/freertos/src/queue.c **** 	configASSERT( !( ( pvBuffer == NULL ) && ( pxQueue->uxItemSize != ( UBaseType_t ) 0U ) ) );
GAS LISTING C:\Users\kasie\AppData\Local\Temp\ccBtjLu5.s 			page 87


 2205              		.loc 1 1440 2 discriminator 1
1440:lib/freertos/src/queue.c **** 	configASSERT( !( ( pvBuffer == NULL ) && ( pxQueue->uxItemSize != ( UBaseType_t ) 0U ) ) );
 2206              		.loc 1 1440 2 discriminator 1
1440:lib/freertos/src/queue.c **** 	configASSERT( !( ( pvBuffer == NULL ) && ( pxQueue->uxItemSize != ( UBaseType_t ) 0U ) ) );
 2207              		.loc 1 1440 2 discriminator 1
 2208 0006 01A0     		j	.L215
 2209              	.L214:
1440:lib/freertos/src/queue.c **** 	configASSERT( !( ( pvBuffer == NULL ) && ( pxQueue->uxItemSize != ( UBaseType_t ) 0U ) ) );
 2210              		.loc 1 1440 25 discriminator 2
1441:lib/freertos/src/queue.c **** 
 2211              		.loc 1 1441 2 discriminator 2
 2212 0008 91E5     		bne	a1,zero,.L216
 2213 000a 3C41     		lw	a5,64(a0)
 2214 000c 81C7     		beq	a5,zero,.L216
1441:lib/freertos/src/queue.c **** 
 2215              		.loc 1 1441 2
 2216              	.LBB126:
1441:lib/freertos/src/queue.c **** 
 2217              		.loc 1 1441 2
1441:lib/freertos/src/queue.c **** 
 2218              		.loc 1 1441 2
1441:lib/freertos/src/queue.c **** 
 2219              		.loc 1 1441 2
 2220              	 #APP
 2221              	# 1441 "lib/freertos/src/queue.c" 1
 2222              		csrrc a5, mstatus, 8
 2223              	# 0 "" 2
 2224              	.LVL223:
1441:lib/freertos/src/queue.c **** 
 2225              		.loc 1 1441 2
 2226              	 #NO_APP
 2227              	.L217:
 2228              	.LBE126:
1441:lib/freertos/src/queue.c **** 
 2229              		.loc 1 1441 2 discriminator 2
1441:lib/freertos/src/queue.c **** 
 2230              		.loc 1 1441 2 discriminator 2
1441:lib/freertos/src/queue.c **** 
 2231              		.loc 1 1441 2 discriminator 2
 2232 0012 01A0     		j	.L217
 2233              	.L216:
1435:lib/freertos/src/queue.c **** BaseType_t xReturn;
 2234              		.loc 1 1435 1 is_stmt 0 discriminator 8
 2235 0014 7971     		addi	sp,sp,-48
 2236              	.LCFI27:
 2237              		.cfi_def_cfa_offset 48
 2238 0016 22D4     		sw	s0,40(sp)
 2239              		.cfi_offset 8, -8
 2240 0018 2A84     		mv	s0,a0
1441:lib/freertos/src/queue.c **** 
 2241              		.loc 1 1441 92 is_stmt 1 discriminator 8
1457:lib/freertos/src/queue.c **** 
 2242              		.loc 1 1457 44 discriminator 8
1459:lib/freertos/src/queue.c **** 	{
 2243              		.loc 1 1459 2 discriminator 8
1435:lib/freertos/src/queue.c **** BaseType_t xReturn;
 2244              		.loc 1 1435 1 is_stmt 0 discriminator 8
GAS LISTING C:\Users\kasie\AppData\Local\Temp\ccBtjLu5.s 			page 88


 2245 001a 26D2     		sw	s1,36(sp)
 2246 001c 4AD0     		sw	s2,32(sp)
 2247 001e 4ECE     		sw	s3,28(sp)
 2248 0020 52CC     		sw	s4,24(sp)
 2249 0022 2EC6     		sw	a1,12(sp)
 2250 0024 06D6     		sw	ra,44(sp)
 2251 0026 56CA     		sw	s5,20(sp)
 2252              		.cfi_offset 9, -12
 2253              		.cfi_offset 18, -16
 2254              		.cfi_offset 19, -20
 2255              		.cfi_offset 20, -24
 2256              		.cfi_offset 1, -4
 2257              		.cfi_offset 21, -28
 2258 0028 3289     		mv	s2,a2
1459:lib/freertos/src/queue.c **** 	{
 2259              		.loc 1 1459 27 discriminator 8
 2260 002a 97000000 		call	xPortSetInterruptMask
 2260      E7800000 
 2261              	.LVL224:
 2262              	.LBB127:
1461:lib/freertos/src/queue.c **** 
 2263              		.loc 1 1461 21 discriminator 8
 2264 0032 83298403 		lw	s3,56(s0)
 2265              	.LBE127:
1459:lib/freertos/src/queue.c **** 	{
 2266              		.loc 1 1459 27 discriminator 8
 2267 0036 2A8A     		mv	s4,a0
 2268              	.LVL225:
 2269              	.LBB130:
1461:lib/freertos/src/queue.c **** 
 2270              		.loc 1 1461 3 is_stmt 1 discriminator 8
1464:lib/freertos/src/queue.c **** 		{
 2271              		.loc 1 1464 3 discriminator 8
1515:lib/freertos/src/queue.c **** 			traceQUEUE_RECEIVE_FROM_ISR_FAILED( pxQueue );
 2272              		.loc 1 1515 12 is_stmt 0 discriminator 8
 2273 0038 8144     		li	s1,0
1464:lib/freertos/src/queue.c **** 		{
 2274              		.loc 1 1464 5 discriminator 8
 2275 003a B245     		lw	a1,12(sp)
 2276 003c 63860902 		beq	s3,zero,.L218
 2277              	.LBB128:
1466:lib/freertos/src/queue.c **** 
 2278              		.loc 1 1466 4 is_stmt 1
1466:lib/freertos/src/queue.c **** 
 2279              		.loc 1 1466 17 is_stmt 0
 2280 0040 83444404 		lbu	s1,68(s0)
1470:lib/freertos/src/queue.c **** 			pxQueue->uxMessagesWaiting = uxMessagesWaiting - 1;
 2281              		.loc 1 1470 4
 2282 0044 2285     		mv	a0,s0
 2283              	.LVL226:
 2284 0046 97000000 		call	prvCopyDataFromQueue
 2284      E7800000 
 2285              	.LVL227:
1466:lib/freertos/src/queue.c **** 
 2286              		.loc 1 1466 17
 2287 004e 939A8401 		slli	s5,s1,24
1471:lib/freertos/src/queue.c **** 
GAS LISTING C:\Users\kasie\AppData\Local\Temp\ccBtjLu5.s 			page 89


 2288              		.loc 1 1471 51
 2289 0052 FD19     		addi	s3,s3,-1
 2290              	.LVL228:
1466:lib/freertos/src/queue.c **** 
 2291              		.loc 1 1466 17
 2292 0054 93DA8A41 		srai	s5,s5,24
 2293              	.LVL229:
1468:lib/freertos/src/queue.c **** 
 2294              		.loc 1 1468 42 is_stmt 1
1470:lib/freertos/src/queue.c **** 			pxQueue->uxMessagesWaiting = uxMessagesWaiting - 1;
 2295              		.loc 1 1470 4
1471:lib/freertos/src/queue.c **** 
 2296              		.loc 1 1471 4
1471:lib/freertos/src/queue.c **** 
 2297              		.loc 1 1471 31 is_stmt 0
 2298 0058 232C3403 		sw	s3,56(s0)
1477:lib/freertos/src/queue.c **** 			{
 2299              		.loc 1 1477 4 is_stmt 1
1477:lib/freertos/src/queue.c **** 			{
 2300              		.loc 1 1477 6 is_stmt 0
 2301 005c FD57     		li	a5,-1
 2302 005e 6391FA04 		bne	s5,a5,.L219
1479:lib/freertos/src/queue.c **** 				{
 2303              		.loc 1 1479 5 is_stmt 1
1479:lib/freertos/src/queue.c **** 				{
 2304              		.loc 1 1479 7 is_stmt 0
 2305 0062 1C48     		lw	a5,16(s0)
 2306 0064 8DE3     		bne	a5,zero,.L220
 2307              	.LVL230:
 2308              	.L235:
1511:lib/freertos/src/queue.c **** 		}
 2309              		.loc 1 1511 12
 2310 0066 8544     		li	s1,1
 2311              	.LVL231:
 2312              	.L218:
 2313              	.LBE128:
1516:lib/freertos/src/queue.c **** 		}
 2314              		.loc 1 1516 49 is_stmt 1
 2315              	.LBE130:
1519:lib/freertos/src/queue.c **** 
 2316              		.loc 1 1519 2
 2317 0068 5285     		mv	a0,s4
 2318 006a 97000000 		call	vPortClearInterruptMask
 2318      E7800000 
 2319              	.LVL232:
1521:lib/freertos/src/queue.c **** }
 2320              		.loc 1 1521 2
1522:lib/freertos/src/queue.c **** /*-----------------------------------------------------------*/
 2321              		.loc 1 1522 1 is_stmt 0
 2322 0072 B250     		lw	ra,44(sp)
 2323              		.cfi_remember_state
 2324              		.cfi_restore 1
 2325 0074 2254     		lw	s0,40(sp)
 2326              		.cfi_restore 8
 2327              	.LVL233:
 2328 0076 2685     		mv	a0,s1
 2329 0078 0259     		lw	s2,32(sp)
GAS LISTING C:\Users\kasie\AppData\Local\Temp\ccBtjLu5.s 			page 90


 2330              		.cfi_restore 18
 2331              	.LVL234:
 2332 007a 9254     		lw	s1,36(sp)
 2333              		.cfi_restore 9
 2334              	.LVL235:
 2335 007c F249     		lw	s3,28(sp)
 2336              		.cfi_restore 19
 2337 007e 624A     		lw	s4,24(sp)
 2338              		.cfi_restore 20
 2339              	.LVL236:
 2340 0080 D24A     		lw	s5,20(sp)
 2341              		.cfi_restore 21
 2342 0082 4561     		addi	sp,sp,48
 2343              	.LCFI28:
 2344              		.cfi_def_cfa_offset 0
 2345              	.LVL237:
 2346 0084 8280     		jr	ra
 2347              	.LVL238:
 2348              	.L220:
 2349              	.LCFI29:
 2350              		.cfi_restore_state
 2351              	.LBB131:
 2352              	.LBB129:
1481:lib/freertos/src/queue.c **** 					{
 2353              		.loc 1 1481 6 is_stmt 1
1481:lib/freertos/src/queue.c **** 					{
 2354              		.loc 1 1481 10 is_stmt 0
 2355 0086 13050401 		addi	a0,s0,16
 2356 008a 97000000 		call	xTaskRemoveFromEventList
 2356      E7800000 
 2357              	.LVL239:
1481:lib/freertos/src/queue.c **** 					{
 2358              		.loc 1 1481 8
 2359 0092 71D9     		beq	a0,zero,.L235
1485:lib/freertos/src/queue.c **** 						{
 2360              		.loc 1 1485 7 is_stmt 1
1485:lib/freertos/src/queue.c **** 						{
 2361              		.loc 1 1485 9 is_stmt 0
 2362 0094 E30909FC 		beq	s2,zero,.L235
1487:lib/freertos/src/queue.c **** 						}
 2363              		.loc 1 1487 8 is_stmt 1
1487:lib/freertos/src/queue.c **** 						}
 2364              		.loc 1 1487 35 is_stmt 0
 2365 0098 8547     		li	a5,1
 2366 009a 2320F900 		sw	a5,0(s2)
 2367 009e E1B7     		j	.L235
 2368              	.L219:
1508:lib/freertos/src/queue.c **** 			}
 2369              		.loc 1 1508 5 is_stmt 1
1508:lib/freertos/src/queue.c **** 			}
 2370              		.loc 1 1508 45 is_stmt 0
 2371 00a0 8504     		addi	s1,s1,1
 2372              	.LVL240:
1508:lib/freertos/src/queue.c **** 			}
 2373              		.loc 1 1508 24
 2374 00a2 E204     		slli	s1,s1,24
 2375 00a4 E184     		srai	s1,s1,24
GAS LISTING C:\Users\kasie\AppData\Local\Temp\ccBtjLu5.s 			page 91


1508:lib/freertos/src/queue.c **** 			}
 2376              		.loc 1 1508 22
 2377 00a6 23029404 		sb	s1,68(s0)
 2378 00aa 75BF     		j	.L235
 2379              	.LBE129:
 2380              	.LBE131:
 2381              		.cfi_endproc
 2382              	.LFE13:
 2384              		.section	.text.xQueuePeekFromISR,"ax",@progbits
 2385              		.align	1
 2386              		.globl	xQueuePeekFromISR
 2388              	xQueuePeekFromISR:
 2389              	.LFB14:
1526:lib/freertos/src/queue.c **** BaseType_t xReturn;
 2390              		.loc 1 1526 1 is_stmt 1
 2391              		.cfi_startproc
 2392              	.LVL241:
1527:lib/freertos/src/queue.c **** UBaseType_t uxSavedInterruptStatus;
 2393              		.loc 1 1527 1
1528:lib/freertos/src/queue.c **** int8_t *pcOriginalReadPosition;
 2394              		.loc 1 1528 1
1529:lib/freertos/src/queue.c **** Queue_t * const pxQueue = ( Queue_t * ) xQueue;
 2395              		.loc 1 1529 1
1530:lib/freertos/src/queue.c **** 
 2396              		.loc 1 1530 1
1532:lib/freertos/src/queue.c **** 	configASSERT( !( ( pvBuffer == NULL ) && ( pxQueue->uxItemSize != ( UBaseType_t ) 0U ) ) );
 2397              		.loc 1 1532 2
 2398 0000 01E5     		bne	a0,zero,.L237
1532:lib/freertos/src/queue.c **** 	configASSERT( !( ( pvBuffer == NULL ) && ( pxQueue->uxItemSize != ( UBaseType_t ) 0U ) ) );
 2399              		.loc 1 1532 2 discriminator 3
 2400              	.LBB132:
1532:lib/freertos/src/queue.c **** 	configASSERT( !( ( pvBuffer == NULL ) && ( pxQueue->uxItemSize != ( UBaseType_t ) 0U ) ) );
 2401              		.loc 1 1532 2 discriminator 3
1532:lib/freertos/src/queue.c **** 	configASSERT( !( ( pvBuffer == NULL ) && ( pxQueue->uxItemSize != ( UBaseType_t ) 0U ) ) );
 2402              		.loc 1 1532 2 discriminator 3
1532:lib/freertos/src/queue.c **** 	configASSERT( !( ( pvBuffer == NULL ) && ( pxQueue->uxItemSize != ( UBaseType_t ) 0U ) ) );
 2403              		.loc 1 1532 2 discriminator 3
 2404              	 #APP
 2405              	# 1532 "lib/freertos/src/queue.c" 1
 2406              		csrrc a5, mstatus, 8
 2407              	# 0 "" 2
 2408              	.LVL242:
1532:lib/freertos/src/queue.c **** 	configASSERT( !( ( pvBuffer == NULL ) && ( pxQueue->uxItemSize != ( UBaseType_t ) 0U ) ) );
 2409              		.loc 1 1532 2 discriminator 3
 2410              	 #NO_APP
 2411              	.L238:
 2412              	.LBE132:
1532:lib/freertos/src/queue.c **** 	configASSERT( !( ( pvBuffer == NULL ) && ( pxQueue->uxItemSize != ( UBaseType_t ) 0U ) ) );
 2413              		.loc 1 1532 2 discriminator 1
1532:lib/freertos/src/queue.c **** 	configASSERT( !( ( pvBuffer == NULL ) && ( pxQueue->uxItemSize != ( UBaseType_t ) 0U ) ) );
 2414              		.loc 1 1532 2 discriminator 1
1532:lib/freertos/src/queue.c **** 	configASSERT( !( ( pvBuffer == NULL ) && ( pxQueue->uxItemSize != ( UBaseType_t ) 0U ) ) );
 2415              		.loc 1 1532 2 discriminator 1
 2416 0006 01A0     		j	.L238
 2417              	.L237:
1532:lib/freertos/src/queue.c **** 	configASSERT( !( ( pvBuffer == NULL ) && ( pxQueue->uxItemSize != ( UBaseType_t ) 0U ) ) );
 2418              		.loc 1 1532 25 discriminator 2
GAS LISTING C:\Users\kasie\AppData\Local\Temp\ccBtjLu5.s 			page 92


1533:lib/freertos/src/queue.c **** 	configASSERT( pxQueue->uxItemSize != 0 ); /* Can't peek a semaphore. */
 2419              		.loc 1 1533 2 discriminator 2
 2420 0008 3C41     		lw	a5,64(a0)
 2421 000a 89E5     		bne	a1,zero,.L239
 2422 000c 89C7     		beq	a5,zero,.L240
1533:lib/freertos/src/queue.c **** 	configASSERT( pxQueue->uxItemSize != 0 ); /* Can't peek a semaphore. */
 2423              		.loc 1 1533 2
 2424              	.LBB133:
1533:lib/freertos/src/queue.c **** 	configASSERT( pxQueue->uxItemSize != 0 ); /* Can't peek a semaphore. */
 2425              		.loc 1 1533 2
1533:lib/freertos/src/queue.c **** 	configASSERT( pxQueue->uxItemSize != 0 ); /* Can't peek a semaphore. */
 2426              		.loc 1 1533 2
1533:lib/freertos/src/queue.c **** 	configASSERT( pxQueue->uxItemSize != 0 ); /* Can't peek a semaphore. */
 2427              		.loc 1 1533 2
 2428              	 #APP
 2429              	# 1533 "lib/freertos/src/queue.c" 1
 2430              		csrrc a5, mstatus, 8
 2431              	# 0 "" 2
 2432              	.LVL243:
1533:lib/freertos/src/queue.c **** 	configASSERT( pxQueue->uxItemSize != 0 ); /* Can't peek a semaphore. */
 2433              		.loc 1 1533 2
 2434              	 #NO_APP
 2435              	.L241:
 2436              	.LBE133:
1533:lib/freertos/src/queue.c **** 	configASSERT( pxQueue->uxItemSize != 0 ); /* Can't peek a semaphore. */
 2437              		.loc 1 1533 2 discriminator 2
1533:lib/freertos/src/queue.c **** 	configASSERT( pxQueue->uxItemSize != 0 ); /* Can't peek a semaphore. */
 2438              		.loc 1 1533 2 discriminator 2
1533:lib/freertos/src/queue.c **** 	configASSERT( pxQueue->uxItemSize != 0 ); /* Can't peek a semaphore. */
 2439              		.loc 1 1533 2 discriminator 2
 2440 0012 01A0     		j	.L241
 2441              	.L239:
1533:lib/freertos/src/queue.c **** 	configASSERT( pxQueue->uxItemSize != 0 ); /* Can't peek a semaphore. */
 2442              		.loc 1 1533 92 discriminator 8
1534:lib/freertos/src/queue.c **** 
 2443              		.loc 1 1534 2 discriminator 8
 2444 0014 81E7     		bne	a5,zero,.L242
 2445              	.L240:
1534:lib/freertos/src/queue.c **** 
 2446              		.loc 1 1534 2 discriminator 3
 2447              	.LBB134:
1534:lib/freertos/src/queue.c **** 
 2448              		.loc 1 1534 2 discriminator 3
1534:lib/freertos/src/queue.c **** 
 2449              		.loc 1 1534 2 discriminator 3
1534:lib/freertos/src/queue.c **** 
 2450              		.loc 1 1534 2 discriminator 3
 2451              	 #APP
 2452              	# 1534 "lib/freertos/src/queue.c" 1
 2453              		csrrc a5, mstatus, 8
 2454              	# 0 "" 2
 2455              	.LVL244:
1534:lib/freertos/src/queue.c **** 
 2456              		.loc 1 1534 2 discriminator 3
 2457              	 #NO_APP
 2458              	.L243:
 2459              	.LBE134:
GAS LISTING C:\Users\kasie\AppData\Local\Temp\ccBtjLu5.s 			page 93


1534:lib/freertos/src/queue.c **** 
 2460              		.loc 1 1534 2 discriminator 3
1534:lib/freertos/src/queue.c **** 
 2461              		.loc 1 1534 2 discriminator 3
1534:lib/freertos/src/queue.c **** 
 2462              		.loc 1 1534 2 discriminator 3
 2463 001a 01A0     		j	.L243
 2464              	.L242:
1526:lib/freertos/src/queue.c **** BaseType_t xReturn;
 2465              		.loc 1 1526 1 is_stmt 0 discriminator 2
 2466 001c 0111     		addi	sp,sp,-32
 2467              	.LCFI30:
 2468              		.cfi_def_cfa_offset 32
 2469 001e 22CC     		sw	s0,24(sp)
 2470 0020 26CA     		sw	s1,20(sp)
 2471 0022 4AC8     		sw	s2,16(sp)
 2472 0024 2EC6     		sw	a1,12(sp)
 2473              		.cfi_offset 8, -8
 2474              		.cfi_offset 9, -12
 2475              		.cfi_offset 18, -16
 2476 0026 2A84     		mv	s0,a0
1534:lib/freertos/src/queue.c **** 
 2477              		.loc 1 1534 42 is_stmt 1 discriminator 2
1550:lib/freertos/src/queue.c **** 
 2478              		.loc 1 1550 44 discriminator 2
1552:lib/freertos/src/queue.c **** 	{
 2479              		.loc 1 1552 2 discriminator 2
1526:lib/freertos/src/queue.c **** BaseType_t xReturn;
 2480              		.loc 1 1526 1 is_stmt 0 discriminator 2
 2481 0028 06CE     		sw	ra,28(sp)
 2482              		.cfi_offset 1, -4
1552:lib/freertos/src/queue.c **** 	{
 2483              		.loc 1 1552 27 discriminator 2
 2484 002a 97000000 		call	xPortSetInterruptMask
 2484      E7800000 
 2485              	.LVL245:
1555:lib/freertos/src/queue.c **** 		{
 2486              		.loc 1 1555 14 discriminator 2
 2487 0032 1C5C     		lw	a5,56(s0)
1552:lib/freertos/src/queue.c **** 	{
 2488              		.loc 1 1552 27 discriminator 2
 2489 0034 2A89     		mv	s2,a0
 2490              	.LVL246:
1555:lib/freertos/src/queue.c **** 		{
 2491              		.loc 1 1555 3 is_stmt 1 discriminator 2
1569:lib/freertos/src/queue.c **** 			traceQUEUE_PEEK_FROM_ISR_FAILED( pxQueue );
 2492              		.loc 1 1569 12 is_stmt 0 discriminator 2
 2493 0036 8144     		li	s1,0
1555:lib/freertos/src/queue.c **** 		{
 2494              		.loc 1 1555 5 discriminator 2
 2495 0038 B245     		lw	a1,12(sp)
 2496 003a 89CB     		beq	a5,zero,.L244
1557:lib/freertos/src/queue.c **** 
 2497              		.loc 1 1557 39 is_stmt 1
1561:lib/freertos/src/queue.c **** 			prvCopyDataFromQueue( pxQueue, pvBuffer );
 2498              		.loc 1 1561 4
1561:lib/freertos/src/queue.c **** 			prvCopyDataFromQueue( pxQueue, pvBuffer );
GAS LISTING C:\Users\kasie\AppData\Local\Temp\ccBtjLu5.s 			page 94


 2499              		.loc 1 1561 27 is_stmt 0
 2500 003c 4444     		lw	s1,12(s0)
 2501              	.LVL247:
1562:lib/freertos/src/queue.c **** 			pxQueue->u.pcReadFrom = pcOriginalReadPosition;
 2502              		.loc 1 1562 4 is_stmt 1
 2503 003e 2285     		mv	a0,s0
 2504              	.LVL248:
 2505 0040 97000000 		call	prvCopyDataFromQueue
 2505      E7800000 
 2506              	.LVL249:
1563:lib/freertos/src/queue.c **** 
 2507              		.loc 1 1563 4
1563:lib/freertos/src/queue.c **** 
 2508              		.loc 1 1563 26 is_stmt 0
 2509 0048 44C4     		sw	s1,12(s0)
1565:lib/freertos/src/queue.c **** 		}
 2510              		.loc 1 1565 4 is_stmt 1
 2511              	.LVL250:
1565:lib/freertos/src/queue.c **** 		}
 2512              		.loc 1 1565 12 is_stmt 0
 2513 004a 8544     		li	s1,1
 2514              	.LVL251:
 2515              	.L244:
1570:lib/freertos/src/queue.c **** 		}
 2516              		.loc 1 1570 46 is_stmt 1
1573:lib/freertos/src/queue.c **** 
 2517              		.loc 1 1573 2
 2518 004c 4A85     		mv	a0,s2
 2519 004e 97000000 		call	vPortClearInterruptMask
 2519      E7800000 
 2520              	.LVL252:
1575:lib/freertos/src/queue.c **** }
 2521              		.loc 1 1575 2
1576:lib/freertos/src/queue.c **** /*-----------------------------------------------------------*/
 2522              		.loc 1 1576 1 is_stmt 0
 2523 0056 F240     		lw	ra,28(sp)
 2524              		.cfi_restore 1
 2525 0058 6244     		lw	s0,24(sp)
 2526              		.cfi_restore 8
 2527              	.LVL253:
 2528 005a 2685     		mv	a0,s1
 2529 005c 4249     		lw	s2,16(sp)
 2530              		.cfi_restore 18
 2531              	.LVL254:
 2532 005e D244     		lw	s1,20(sp)
 2533              		.cfi_restore 9
 2534              	.LVL255:
 2535 0060 0561     		addi	sp,sp,32
 2536              	.LCFI31:
 2537              		.cfi_def_cfa_offset 0
 2538              	.LVL256:
 2539 0062 8280     		jr	ra
 2540              		.cfi_endproc
 2541              	.LFE14:
 2543              		.section	.text.uxQueueMessagesWaiting,"ax",@progbits
 2544              		.align	1
 2545              		.globl	uxQueueMessagesWaiting
GAS LISTING C:\Users\kasie\AppData\Local\Temp\ccBtjLu5.s 			page 95


 2547              	uxQueueMessagesWaiting:
 2548              	.LFB15:
1580:lib/freertos/src/queue.c **** UBaseType_t uxReturn;
 2549              		.loc 1 1580 1 is_stmt 1
 2550              		.cfi_startproc
 2551              	.LVL257:
1581:lib/freertos/src/queue.c **** 
 2552              		.loc 1 1581 1
1583:lib/freertos/src/queue.c **** 
 2553              		.loc 1 1583 2
 2554 0000 01E5     		bne	a0,zero,.L253
1583:lib/freertos/src/queue.c **** 
 2555              		.loc 1 1583 2 discriminator 3
 2556              	.LBB135:
1583:lib/freertos/src/queue.c **** 
 2557              		.loc 1 1583 2 discriminator 3
1583:lib/freertos/src/queue.c **** 
 2558              		.loc 1 1583 2 discriminator 3
1583:lib/freertos/src/queue.c **** 
 2559              		.loc 1 1583 2 discriminator 3
 2560              	 #APP
 2561              	# 1583 "lib/freertos/src/queue.c" 1
 2562              		csrrc a5, mstatus, 8
 2563              	# 0 "" 2
 2564              	.LVL258:
1583:lib/freertos/src/queue.c **** 
 2565              		.loc 1 1583 2 discriminator 3
 2566              	 #NO_APP
 2567              	.L254:
 2568              	.LBE135:
1583:lib/freertos/src/queue.c **** 
 2569              		.loc 1 1583 2 discriminator 1
1583:lib/freertos/src/queue.c **** 
 2570              		.loc 1 1583 2 discriminator 1
1583:lib/freertos/src/queue.c **** 
 2571              		.loc 1 1583 2 discriminator 1
 2572 0006 01A0     		j	.L254
 2573              	.L253:
1580:lib/freertos/src/queue.c **** UBaseType_t uxReturn;
 2574              		.loc 1 1580 1 is_stmt 0 discriminator 2
 2575 0008 0111     		addi	sp,sp,-32
 2576              	.LCFI32:
 2577              		.cfi_def_cfa_offset 32
 2578 000a 06CE     		sw	ra,28(sp)
 2579 000c 22CC     		sw	s0,24(sp)
 2580              		.cfi_offset 1, -4
 2581              		.cfi_offset 8, -8
 2582 000e 2A84     		mv	s0,a0
1583:lib/freertos/src/queue.c **** 
 2583              		.loc 1 1583 24 is_stmt 1 discriminator 2
1585:lib/freertos/src/queue.c **** 	{
 2584              		.loc 1 1585 2 discriminator 2
 2585 0010 97000000 		call	vPortEnterCritical
 2585      E7800000 
 2586              	.LVL259:
1587:lib/freertos/src/queue.c **** 	}
 2587              		.loc 1 1587 3 discriminator 2
GAS LISTING C:\Users\kasie\AppData\Local\Temp\ccBtjLu5.s 			page 96


1587:lib/freertos/src/queue.c **** 	}
 2588              		.loc 1 1587 12 is_stmt 0 discriminator 2
 2589 0018 085C     		lw	a0,56(s0)
 2590 001a 2AC6     		sw	a0,12(sp)
 2591              	.LVL260:
1589:lib/freertos/src/queue.c **** 
 2592              		.loc 1 1589 2 is_stmt 1 discriminator 2
 2593 001c 97000000 		call	vPortExitCritical
 2593      E7800000 
 2594              	.LVL261:
1591:lib/freertos/src/queue.c **** } /*lint !e818 Pointer cannot be declared const as xQueue is a typedef not pointer. */
 2595              		.loc 1 1591 2 discriminator 2
1592:lib/freertos/src/queue.c **** /*-----------------------------------------------------------*/
 2596              		.loc 1 1592 1 is_stmt 0 discriminator 2
 2597 0024 F240     		lw	ra,28(sp)
 2598              		.cfi_restore 1
 2599 0026 6244     		lw	s0,24(sp)
 2600              		.cfi_restore 8
 2601              	.LVL262:
 2602 0028 3245     		lw	a0,12(sp)
 2603 002a 0561     		addi	sp,sp,32
 2604              	.LCFI33:
 2605              		.cfi_def_cfa_offset 0
 2606              	.LVL263:
 2607 002c 8280     		jr	ra
 2608              		.cfi_endproc
 2609              	.LFE15:
 2611              		.section	.text.uxQueueSpacesAvailable,"ax",@progbits
 2612              		.align	1
 2613              		.globl	uxQueueSpacesAvailable
 2615              	uxQueueSpacesAvailable:
 2616              	.LFB16:
1596:lib/freertos/src/queue.c **** UBaseType_t uxReturn;
 2617              		.loc 1 1596 1 is_stmt 1
 2618              		.cfi_startproc
 2619              	.LVL264:
1597:lib/freertos/src/queue.c **** Queue_t *pxQueue;
 2620              		.loc 1 1597 1
1598:lib/freertos/src/queue.c **** 
 2621              		.loc 1 1598 1
1600:lib/freertos/src/queue.c **** 	configASSERT( pxQueue );
 2622              		.loc 1 1600 2
1601:lib/freertos/src/queue.c **** 
 2623              		.loc 1 1601 2
 2624 0000 01E5     		bne	a0,zero,.L258
1601:lib/freertos/src/queue.c **** 
 2625              		.loc 1 1601 2 discriminator 3
 2626              	.LBB136:
1601:lib/freertos/src/queue.c **** 
 2627              		.loc 1 1601 2 discriminator 3
1601:lib/freertos/src/queue.c **** 
 2628              		.loc 1 1601 2 discriminator 3
1601:lib/freertos/src/queue.c **** 
 2629              		.loc 1 1601 2 discriminator 3
 2630              	 #APP
 2631              	# 1601 "lib/freertos/src/queue.c" 1
 2632              		csrrc a5, mstatus, 8
GAS LISTING C:\Users\kasie\AppData\Local\Temp\ccBtjLu5.s 			page 97


 2633              	# 0 "" 2
 2634              	.LVL265:
1601:lib/freertos/src/queue.c **** 
 2635              		.loc 1 1601 2 discriminator 3
 2636              	 #NO_APP
 2637              	.L259:
 2638              	.LBE136:
1601:lib/freertos/src/queue.c **** 
 2639              		.loc 1 1601 2 discriminator 1
1601:lib/freertos/src/queue.c **** 
 2640              		.loc 1 1601 2 discriminator 1
1601:lib/freertos/src/queue.c **** 
 2641              		.loc 1 1601 2 discriminator 1
 2642 0006 01A0     		j	.L259
 2643              	.L258:
1596:lib/freertos/src/queue.c **** UBaseType_t uxReturn;
 2644              		.loc 1 1596 1 is_stmt 0 discriminator 2
 2645 0008 0111     		addi	sp,sp,-32
 2646              	.LCFI34:
 2647              		.cfi_def_cfa_offset 32
 2648 000a 06CE     		sw	ra,28(sp)
 2649 000c 22CC     		sw	s0,24(sp)
 2650              		.cfi_offset 1, -4
 2651              		.cfi_offset 8, -8
 2652 000e 2A84     		mv	s0,a0
1601:lib/freertos/src/queue.c **** 
 2653              		.loc 1 1601 25 is_stmt 1 discriminator 2
1603:lib/freertos/src/queue.c **** 	{
 2654              		.loc 1 1603 2 discriminator 2
 2655 0010 97000000 		call	vPortEnterCritical
 2655      E7800000 
 2656              	.LVL266:
1605:lib/freertos/src/queue.c **** 	}
 2657              		.loc 1 1605 3 discriminator 2
1605:lib/freertos/src/queue.c **** 	}
 2658              		.loc 1 1605 41 is_stmt 0 discriminator 2
 2659 0018 1C5C     		lw	a5,56(s0)
1605:lib/freertos/src/queue.c **** 	}
 2660              		.loc 1 1605 12 discriminator 2
 2661 001a 485C     		lw	a0,60(s0)
 2662 001c 1D8D     		sub	a0,a0,a5
 2663 001e 2AC6     		sw	a0,12(sp)
 2664              	.LVL267:
1607:lib/freertos/src/queue.c **** 
 2665              		.loc 1 1607 2 is_stmt 1 discriminator 2
 2666 0020 97000000 		call	vPortExitCritical
 2666      E7800000 
 2667              	.LVL268:
1609:lib/freertos/src/queue.c **** } /*lint !e818 Pointer cannot be declared const as xQueue is a typedef not pointer. */
 2668              		.loc 1 1609 2 discriminator 2
1610:lib/freertos/src/queue.c **** /*-----------------------------------------------------------*/
 2669              		.loc 1 1610 1 is_stmt 0 discriminator 2
 2670 0028 F240     		lw	ra,28(sp)
 2671              		.cfi_restore 1
 2672 002a 6244     		lw	s0,24(sp)
 2673              		.cfi_restore 8
 2674              	.LVL269:
GAS LISTING C:\Users\kasie\AppData\Local\Temp\ccBtjLu5.s 			page 98


 2675 002c 3245     		lw	a0,12(sp)
 2676 002e 0561     		addi	sp,sp,32
 2677              	.LCFI35:
 2678              		.cfi_def_cfa_offset 0
 2679              	.LVL270:
 2680 0030 8280     		jr	ra
 2681              		.cfi_endproc
 2682              	.LFE16:
 2684              		.section	.text.uxQueueMessagesWaitingFromISR,"ax",@progbits
 2685              		.align	1
 2686              		.globl	uxQueueMessagesWaitingFromISR
 2688              	uxQueueMessagesWaitingFromISR:
 2689              	.LFB17:
1614:lib/freertos/src/queue.c **** UBaseType_t uxReturn;
 2690              		.loc 1 1614 1 is_stmt 1
 2691              		.cfi_startproc
 2692              	.LVL271:
1615:lib/freertos/src/queue.c **** 
 2693              		.loc 1 1615 1
1617:lib/freertos/src/queue.c **** 
 2694              		.loc 1 1617 2
 2695 0000 01E5     		bne	a0,zero,.L263
1617:lib/freertos/src/queue.c **** 
 2696              		.loc 1 1617 2 discriminator 3
 2697              	.LBB137:
1617:lib/freertos/src/queue.c **** 
 2698              		.loc 1 1617 2 discriminator 3
1617:lib/freertos/src/queue.c **** 
 2699              		.loc 1 1617 2 discriminator 3
1617:lib/freertos/src/queue.c **** 
 2700              		.loc 1 1617 2 discriminator 3
 2701              	 #APP
 2702              	# 1617 "lib/freertos/src/queue.c" 1
 2703              		csrrc a5, mstatus, 8
 2704              	# 0 "" 2
 2705              	.LVL272:
1617:lib/freertos/src/queue.c **** 
 2706              		.loc 1 1617 2 discriminator 3
 2707              	 #NO_APP
 2708              	.L264:
 2709              	.LBE137:
1617:lib/freertos/src/queue.c **** 
 2710              		.loc 1 1617 2 discriminator 1
1617:lib/freertos/src/queue.c **** 
 2711              		.loc 1 1617 2 discriminator 1
1617:lib/freertos/src/queue.c **** 
 2712              		.loc 1 1617 2 discriminator 1
 2713 0006 01A0     		j	.L264
 2714              	.L263:
1617:lib/freertos/src/queue.c **** 
 2715              		.loc 1 1617 24 discriminator 2
1619:lib/freertos/src/queue.c **** 
 2716              		.loc 1 1619 2 discriminator 2
1619:lib/freertos/src/queue.c **** 
 2717              		.loc 1 1619 11 is_stmt 0 discriminator 2
 2718 0008 085D     		lw	a0,56(a0)
 2719              	.LVL273:
GAS LISTING C:\Users\kasie\AppData\Local\Temp\ccBtjLu5.s 			page 99


1621:lib/freertos/src/queue.c **** } /*lint !e818 Pointer cannot be declared const as xQueue is a typedef not pointer. */
 2720              		.loc 1 1621 2 is_stmt 1 discriminator 2
1622:lib/freertos/src/queue.c **** /*-----------------------------------------------------------*/
 2721              		.loc 1 1622 1 is_stmt 0 discriminator 2
 2722 000a 8280     		ret
 2723              		.cfi_endproc
 2724              	.LFE17:
 2726              		.section	.text.uxQueueGetQueueNumber,"ax",@progbits
 2727              		.align	1
 2728              		.globl	uxQueueGetQueueNumber
 2730              	uxQueueGetQueueNumber:
 2731              	.LFB19:
1670:lib/freertos/src/queue.c **** 		return ( ( Queue_t * ) xQueue )->uxQueueNumber;
 2732              		.loc 1 1670 2 is_stmt 1
 2733              		.cfi_startproc
 2734              	.LVL274:
1671:lib/freertos/src/queue.c **** 	}
 2735              		.loc 1 1671 3
1672:lib/freertos/src/queue.c **** 
 2736              		.loc 1 1672 2 is_stmt 0
 2737 0000 2845     		lw	a0,72(a0)
 2738              	.LVL275:
 2739 0002 8280     		ret
 2740              		.cfi_endproc
 2741              	.LFE19:
 2743              		.section	.text.vQueueSetQueueNumber,"ax",@progbits
 2744              		.align	1
 2745              		.globl	vQueueSetQueueNumber
 2747              	vQueueSetQueueNumber:
 2748              	.LFB20:
1680:lib/freertos/src/queue.c **** 		( ( Queue_t * ) xQueue )->uxQueueNumber = uxQueueNumber;
 2749              		.loc 1 1680 2 is_stmt 1
 2750              		.cfi_startproc
 2751              	.LVL276:
1681:lib/freertos/src/queue.c **** 	}
 2752              		.loc 1 1681 3
1681:lib/freertos/src/queue.c **** 	}
 2753              		.loc 1 1681 43 is_stmt 0
 2754 0000 2CC5     		sw	a1,72(a0)
1682:lib/freertos/src/queue.c **** 
 2755              		.loc 1 1682 2
 2756 0002 8280     		ret
 2757              		.cfi_endproc
 2758              	.LFE20:
 2760              		.section	.text.ucQueueGetQueueType,"ax",@progbits
 2761              		.align	1
 2762              		.globl	ucQueueGetQueueType
 2764              	ucQueueGetQueueType:
 2765              	.LFB21:
1690:lib/freertos/src/queue.c **** 		return ( ( Queue_t * ) xQueue )->ucQueueType;
 2766              		.loc 1 1690 2 is_stmt 1
 2767              		.cfi_startproc
 2768              	.LVL277:
1691:lib/freertos/src/queue.c **** 	}
 2769              		.loc 1 1691 3
1692:lib/freertos/src/queue.c **** 
 2770              		.loc 1 1692 2 is_stmt 0
GAS LISTING C:\Users\kasie\AppData\Local\Temp\ccBtjLu5.s 			page 100


 2771 0000 0345C504 		lbu	a0,76(a0)
 2772              	.LVL278:
 2773 0004 8280     		ret
 2774              		.cfi_endproc
 2775              	.LFE21:
 2777              		.section	.text.xQueueIsQueueEmptyFromISR,"ax",@progbits
 2778              		.align	1
 2779              		.globl	xQueueIsQueueEmptyFromISR
 2781              	xQueueIsQueueEmptyFromISR:
 2782              	.LFB26:
1936:lib/freertos/src/queue.c **** BaseType_t xReturn;
 2783              		.loc 1 1936 1 is_stmt 1
 2784              		.cfi_startproc
 2785              	.LVL279:
1937:lib/freertos/src/queue.c **** 
 2786              		.loc 1 1937 1
1939:lib/freertos/src/queue.c **** 	if( ( ( Queue_t * ) xQueue )->uxMessagesWaiting == ( UBaseType_t ) 0 )
 2787              		.loc 1 1939 2
 2788 0000 01E5     		bne	a0,zero,.L269
1939:lib/freertos/src/queue.c **** 	if( ( ( Queue_t * ) xQueue )->uxMessagesWaiting == ( UBaseType_t ) 0 )
 2789              		.loc 1 1939 2 discriminator 3
 2790              	.LBB138:
1939:lib/freertos/src/queue.c **** 	if( ( ( Queue_t * ) xQueue )->uxMessagesWaiting == ( UBaseType_t ) 0 )
 2791              		.loc 1 1939 2 discriminator 3
1939:lib/freertos/src/queue.c **** 	if( ( ( Queue_t * ) xQueue )->uxMessagesWaiting == ( UBaseType_t ) 0 )
 2792              		.loc 1 1939 2 discriminator 3
1939:lib/freertos/src/queue.c **** 	if( ( ( Queue_t * ) xQueue )->uxMessagesWaiting == ( UBaseType_t ) 0 )
 2793              		.loc 1 1939 2 discriminator 3
 2794              	 #APP
 2795              	# 1939 "lib/freertos/src/queue.c" 1
 2796              		csrrc a5, mstatus, 8
 2797              	# 0 "" 2
 2798              	.LVL280:
1939:lib/freertos/src/queue.c **** 	if( ( ( Queue_t * ) xQueue )->uxMessagesWaiting == ( UBaseType_t ) 0 )
 2799              		.loc 1 1939 2 discriminator 3
 2800              	 #NO_APP
 2801              	.L270:
 2802              	.LBE138:
1939:lib/freertos/src/queue.c **** 	if( ( ( Queue_t * ) xQueue )->uxMessagesWaiting == ( UBaseType_t ) 0 )
 2803              		.loc 1 1939 2 discriminator 1
1939:lib/freertos/src/queue.c **** 	if( ( ( Queue_t * ) xQueue )->uxMessagesWaiting == ( UBaseType_t ) 0 )
 2804              		.loc 1 1939 2 discriminator 1
1939:lib/freertos/src/queue.c **** 	if( ( ( Queue_t * ) xQueue )->uxMessagesWaiting == ( UBaseType_t ) 0 )
 2805              		.loc 1 1939 2 discriminator 1
 2806 0006 01A0     		j	.L270
 2807              	.L269:
1939:lib/freertos/src/queue.c **** 	if( ( ( Queue_t * ) xQueue )->uxMessagesWaiting == ( UBaseType_t ) 0 )
 2808              		.loc 1 1939 24 discriminator 2
1940:lib/freertos/src/queue.c **** 	{
 2809              		.loc 1 1940 2 discriminator 2
1940:lib/freertos/src/queue.c **** 	{
 2810              		.loc 1 1940 30 is_stmt 0 discriminator 2
 2811 0008 085D     		lw	a0,56(a0)
 2812              	.LVL281:
1949:lib/freertos/src/queue.c **** } /*lint !e818 xQueue could not be pointer to const because it is a typedef. */
 2813              		.loc 1 1949 2 is_stmt 1 discriminator 2
1950:lib/freertos/src/queue.c **** /*-----------------------------------------------------------*/
GAS LISTING C:\Users\kasie\AppData\Local\Temp\ccBtjLu5.s 			page 101


 2814              		.loc 1 1950 1 is_stmt 0 discriminator 2
 2815 000a 13351500 		seqz	a0,a0
 2816              	.LVL282:
 2817 000e 8280     		ret
 2818              		.cfi_endproc
 2819              	.LFE26:
 2821              		.section	.text.xQueueIsQueueFullFromISR,"ax",@progbits
 2822              		.align	1
 2823              		.globl	xQueueIsQueueFullFromISR
 2825              	xQueueIsQueueFullFromISR:
 2826              	.LFB28:
1971:lib/freertos/src/queue.c **** }
1972:lib/freertos/src/queue.c **** /*-----------------------------------------------------------*/
1973:lib/freertos/src/queue.c **** 
1974:lib/freertos/src/queue.c **** BaseType_t xQueueIsQueueFullFromISR( const QueueHandle_t xQueue )
1975:lib/freertos/src/queue.c **** {
 2827              		.loc 1 1975 1 is_stmt 1
 2828              		.cfi_startproc
 2829              	.LVL283:
1976:lib/freertos/src/queue.c **** BaseType_t xReturn;
 2830              		.loc 1 1976 1
1977:lib/freertos/src/queue.c **** 
1978:lib/freertos/src/queue.c **** 	configASSERT( xQueue );
 2831              		.loc 1 1978 2
 2832 0000 01E5     		bne	a0,zero,.L272
 2833              		.loc 1 1978 2 discriminator 3
 2834              	.LBB139:
 2835              		.loc 1 1978 2 discriminator 3
 2836              		.loc 1 1978 2 discriminator 3
 2837              		.loc 1 1978 2 discriminator 3
 2838              	 #APP
 2839              	# 1978 "lib/freertos/src/queue.c" 1
 1979              		if( ( ( Queue_t * ) xQueue )->uxMessagesWaiting == ( ( Queue_t * ) xQueue )->uxLength )
 2840              		csrrc a5, mstatus, 8
 2841              	# 0 "" 2
 2842              	.LVL284:
1978:lib/freertos/src/queue.c **** 	configASSERT( xQueue );
 2843              		.loc 1 1978 2 discriminator 3
 2844              	 #NO_APP
 2845              	.L273:
 2846              	.LBE139:
1978:lib/freertos/src/queue.c **** 	configASSERT( xQueue );
 2847              		.loc 1 1978 2 discriminator 1
1978:lib/freertos/src/queue.c **** 	configASSERT( xQueue );
 2848              		.loc 1 1978 2 discriminator 1
1978:lib/freertos/src/queue.c **** 	configASSERT( xQueue );
 2849              		.loc 1 1978 2 discriminator 1
 2850 0006 01A0     		j	.L273
 2851              	.L272:
1978:lib/freertos/src/queue.c **** 	configASSERT( xQueue );
 2852              		.loc 1 1978 24 discriminator 2
 2853              		.loc 1 1979 2 discriminator 2
 2854              		.loc 1 1979 30 is_stmt 0 discriminator 2
 2855 0008 1C5D     		lw	a5,56(a0)
 2856              	.LVL285:
1980:lib/freertos/src/queue.c **** 	{
1981:lib/freertos/src/queue.c **** 		xReturn = pdTRUE;
GAS LISTING C:\Users\kasie\AppData\Local\Temp\ccBtjLu5.s 			page 102


1982:lib/freertos/src/queue.c **** 	}
1983:lib/freertos/src/queue.c **** 	else
1984:lib/freertos/src/queue.c **** 	{
1985:lib/freertos/src/queue.c **** 		xReturn = pdFALSE;
1986:lib/freertos/src/queue.c **** 	}
1987:lib/freertos/src/queue.c **** 
1988:lib/freertos/src/queue.c **** 	return xReturn;
 2857              		.loc 1 1988 2 is_stmt 1 discriminator 2
1979:lib/freertos/src/queue.c **** 	{
 2858              		.loc 1 1979 4 is_stmt 0 discriminator 2
 2859 000a 485D     		lw	a0,60(a0)
 2860              	.LVL286:
 2861 000c 1D8D     		sub	a0,a0,a5
 2862              	.LVL287:
1989:lib/freertos/src/queue.c **** } /*lint !e818 xQueue could not be pointer to const because it is a typedef. */
 2863              		.loc 1 1989 1 discriminator 2
 2864 000e 13351500 		seqz	a0,a0
 2865 0012 8280     		ret
 2866              		.cfi_endproc
 2867              	.LFE28:
 2869              		.section	.text.vQueueAddToRegistry,"ax",@progbits
 2870              		.align	1
 2871              		.globl	vQueueAddToRegistry
 2873              	vQueueAddToRegistry:
 2874              	.LFB29:
1990:lib/freertos/src/queue.c **** /*-----------------------------------------------------------*/
1991:lib/freertos/src/queue.c **** 
1992:lib/freertos/src/queue.c **** #if ( configUSE_CO_ROUTINES == 1 )
1993:lib/freertos/src/queue.c **** 
1994:lib/freertos/src/queue.c **** 	BaseType_t xQueueCRSend( QueueHandle_t xQueue, const void *pvItemToQueue, TickType_t xTicksToWait 
1995:lib/freertos/src/queue.c **** 	{
1996:lib/freertos/src/queue.c **** 	BaseType_t xReturn;
1997:lib/freertos/src/queue.c **** 	Queue_t * const pxQueue = ( Queue_t * ) xQueue;
1998:lib/freertos/src/queue.c **** 
1999:lib/freertos/src/queue.c **** 		/* If the queue is already full we may have to block.  A critical section
2000:lib/freertos/src/queue.c **** 		is required to prevent an interrupt removing something from the queue
2001:lib/freertos/src/queue.c **** 		between the check to see if the queue is full and blocking on the queue. */
2002:lib/freertos/src/queue.c **** 		portDISABLE_INTERRUPTS();
2003:lib/freertos/src/queue.c **** 		{
2004:lib/freertos/src/queue.c **** 			if( prvIsQueueFull( pxQueue ) != pdFALSE )
2005:lib/freertos/src/queue.c **** 			{
2006:lib/freertos/src/queue.c **** 				/* The queue is full - do we want to block or just leave without
2007:lib/freertos/src/queue.c **** 				posting? */
2008:lib/freertos/src/queue.c **** 				if( xTicksToWait > ( TickType_t ) 0 )
2009:lib/freertos/src/queue.c **** 				{
2010:lib/freertos/src/queue.c **** 					/* As this is called from a coroutine we cannot block directly, but
2011:lib/freertos/src/queue.c **** 					return indicating that we need to block. */
2012:lib/freertos/src/queue.c **** 					vCoRoutineAddToDelayedList( xTicksToWait, &( pxQueue->xTasksWaitingToSend ) );
2013:lib/freertos/src/queue.c **** 					portENABLE_INTERRUPTS();
2014:lib/freertos/src/queue.c **** 					return errQUEUE_BLOCKED;
2015:lib/freertos/src/queue.c **** 				}
2016:lib/freertos/src/queue.c **** 				else
2017:lib/freertos/src/queue.c **** 				{
2018:lib/freertos/src/queue.c **** 					portENABLE_INTERRUPTS();
2019:lib/freertos/src/queue.c **** 					return errQUEUE_FULL;
2020:lib/freertos/src/queue.c **** 				}
2021:lib/freertos/src/queue.c **** 			}
GAS LISTING C:\Users\kasie\AppData\Local\Temp\ccBtjLu5.s 			page 103


2022:lib/freertos/src/queue.c **** 		}
2023:lib/freertos/src/queue.c **** 		portENABLE_INTERRUPTS();
2024:lib/freertos/src/queue.c **** 
2025:lib/freertos/src/queue.c **** 		portDISABLE_INTERRUPTS();
2026:lib/freertos/src/queue.c **** 		{
2027:lib/freertos/src/queue.c **** 			if( pxQueue->uxMessagesWaiting < pxQueue->uxLength )
2028:lib/freertos/src/queue.c **** 			{
2029:lib/freertos/src/queue.c **** 				/* There is room in the queue, copy the data into the queue. */
2030:lib/freertos/src/queue.c **** 				prvCopyDataToQueue( pxQueue, pvItemToQueue, queueSEND_TO_BACK );
2031:lib/freertos/src/queue.c **** 				xReturn = pdPASS;
2032:lib/freertos/src/queue.c **** 
2033:lib/freertos/src/queue.c **** 				/* Were any co-routines waiting for data to become available? */
2034:lib/freertos/src/queue.c **** 				if( listLIST_IS_EMPTY( &( pxQueue->xTasksWaitingToReceive ) ) == pdFALSE )
2035:lib/freertos/src/queue.c **** 				{
2036:lib/freertos/src/queue.c **** 					/* In this instance the co-routine could be placed directly
2037:lib/freertos/src/queue.c **** 					into the ready list as we are within a critical section.
2038:lib/freertos/src/queue.c **** 					Instead the same pending ready list mechanism is used as if
2039:lib/freertos/src/queue.c **** 					the event were caused from within an interrupt. */
2040:lib/freertos/src/queue.c **** 					if( xCoRoutineRemoveFromEventList( &( pxQueue->xTasksWaitingToReceive ) ) != pdFALSE )
2041:lib/freertos/src/queue.c **** 					{
2042:lib/freertos/src/queue.c **** 						/* The co-routine waiting has a higher priority so record
2043:lib/freertos/src/queue.c **** 						that a yield might be appropriate. */
2044:lib/freertos/src/queue.c **** 						xReturn = errQUEUE_YIELD;
2045:lib/freertos/src/queue.c **** 					}
2046:lib/freertos/src/queue.c **** 					else
2047:lib/freertos/src/queue.c **** 					{
2048:lib/freertos/src/queue.c **** 						mtCOVERAGE_TEST_MARKER();
2049:lib/freertos/src/queue.c **** 					}
2050:lib/freertos/src/queue.c **** 				}
2051:lib/freertos/src/queue.c **** 				else
2052:lib/freertos/src/queue.c **** 				{
2053:lib/freertos/src/queue.c **** 					mtCOVERAGE_TEST_MARKER();
2054:lib/freertos/src/queue.c **** 				}
2055:lib/freertos/src/queue.c **** 			}
2056:lib/freertos/src/queue.c **** 			else
2057:lib/freertos/src/queue.c **** 			{
2058:lib/freertos/src/queue.c **** 				xReturn = errQUEUE_FULL;
2059:lib/freertos/src/queue.c **** 			}
2060:lib/freertos/src/queue.c **** 		}
2061:lib/freertos/src/queue.c **** 		portENABLE_INTERRUPTS();
2062:lib/freertos/src/queue.c **** 
2063:lib/freertos/src/queue.c **** 		return xReturn;
2064:lib/freertos/src/queue.c **** 	}
2065:lib/freertos/src/queue.c **** 
2066:lib/freertos/src/queue.c **** #endif /* configUSE_CO_ROUTINES */
2067:lib/freertos/src/queue.c **** /*-----------------------------------------------------------*/
2068:lib/freertos/src/queue.c **** 
2069:lib/freertos/src/queue.c **** #if ( configUSE_CO_ROUTINES == 1 )
2070:lib/freertos/src/queue.c **** 
2071:lib/freertos/src/queue.c **** 	BaseType_t xQueueCRReceive( QueueHandle_t xQueue, void *pvBuffer, TickType_t xTicksToWait )
2072:lib/freertos/src/queue.c **** 	{
2073:lib/freertos/src/queue.c **** 	BaseType_t xReturn;
2074:lib/freertos/src/queue.c **** 	Queue_t * const pxQueue = ( Queue_t * ) xQueue;
2075:lib/freertos/src/queue.c **** 
2076:lib/freertos/src/queue.c **** 		/* If the queue is already empty we may have to block.  A critical section
2077:lib/freertos/src/queue.c **** 		is required to prevent an interrupt adding something to the queue
2078:lib/freertos/src/queue.c **** 		between the check to see if the queue is empty and blocking on the queue. */
GAS LISTING C:\Users\kasie\AppData\Local\Temp\ccBtjLu5.s 			page 104


2079:lib/freertos/src/queue.c **** 		portDISABLE_INTERRUPTS();
2080:lib/freertos/src/queue.c **** 		{
2081:lib/freertos/src/queue.c **** 			if( pxQueue->uxMessagesWaiting == ( UBaseType_t ) 0 )
2082:lib/freertos/src/queue.c **** 			{
2083:lib/freertos/src/queue.c **** 				/* There are no messages in the queue, do we want to block or just
2084:lib/freertos/src/queue.c **** 				leave with nothing? */
2085:lib/freertos/src/queue.c **** 				if( xTicksToWait > ( TickType_t ) 0 )
2086:lib/freertos/src/queue.c **** 				{
2087:lib/freertos/src/queue.c **** 					/* As this is a co-routine we cannot block directly, but return
2088:lib/freertos/src/queue.c **** 					indicating that we need to block. */
2089:lib/freertos/src/queue.c **** 					vCoRoutineAddToDelayedList( xTicksToWait, &( pxQueue->xTasksWaitingToReceive ) );
2090:lib/freertos/src/queue.c **** 					portENABLE_INTERRUPTS();
2091:lib/freertos/src/queue.c **** 					return errQUEUE_BLOCKED;
2092:lib/freertos/src/queue.c **** 				}
2093:lib/freertos/src/queue.c **** 				else
2094:lib/freertos/src/queue.c **** 				{
2095:lib/freertos/src/queue.c **** 					portENABLE_INTERRUPTS();
2096:lib/freertos/src/queue.c **** 					return errQUEUE_FULL;
2097:lib/freertos/src/queue.c **** 				}
2098:lib/freertos/src/queue.c **** 			}
2099:lib/freertos/src/queue.c **** 			else
2100:lib/freertos/src/queue.c **** 			{
2101:lib/freertos/src/queue.c **** 				mtCOVERAGE_TEST_MARKER();
2102:lib/freertos/src/queue.c **** 			}
2103:lib/freertos/src/queue.c **** 		}
2104:lib/freertos/src/queue.c **** 		portENABLE_INTERRUPTS();
2105:lib/freertos/src/queue.c **** 
2106:lib/freertos/src/queue.c **** 		portDISABLE_INTERRUPTS();
2107:lib/freertos/src/queue.c **** 		{
2108:lib/freertos/src/queue.c **** 			if( pxQueue->uxMessagesWaiting > ( UBaseType_t ) 0 )
2109:lib/freertos/src/queue.c **** 			{
2110:lib/freertos/src/queue.c **** 				/* Data is available from the queue. */
2111:lib/freertos/src/queue.c **** 				pxQueue->u.pcReadFrom += pxQueue->uxItemSize;
2112:lib/freertos/src/queue.c **** 				if( pxQueue->u.pcReadFrom >= pxQueue->pcTail )
2113:lib/freertos/src/queue.c **** 				{
2114:lib/freertos/src/queue.c **** 					pxQueue->u.pcReadFrom = pxQueue->pcHead;
2115:lib/freertos/src/queue.c **** 				}
2116:lib/freertos/src/queue.c **** 				else
2117:lib/freertos/src/queue.c **** 				{
2118:lib/freertos/src/queue.c **** 					mtCOVERAGE_TEST_MARKER();
2119:lib/freertos/src/queue.c **** 				}
2120:lib/freertos/src/queue.c **** 				--( pxQueue->uxMessagesWaiting );
2121:lib/freertos/src/queue.c **** 				( void ) memcpy( ( void * ) pvBuffer, ( void * ) pxQueue->u.pcReadFrom, ( unsigned ) pxQueue->u
2122:lib/freertos/src/queue.c **** 
2123:lib/freertos/src/queue.c **** 				xReturn = pdPASS;
2124:lib/freertos/src/queue.c **** 
2125:lib/freertos/src/queue.c **** 				/* Were any co-routines waiting for space to become available? */
2126:lib/freertos/src/queue.c **** 				if( listLIST_IS_EMPTY( &( pxQueue->xTasksWaitingToSend ) ) == pdFALSE )
2127:lib/freertos/src/queue.c **** 				{
2128:lib/freertos/src/queue.c **** 					/* In this instance the co-routine could be placed directly
2129:lib/freertos/src/queue.c **** 					into the ready list as we are within a critical section.
2130:lib/freertos/src/queue.c **** 					Instead the same pending ready list mechanism is used as if
2131:lib/freertos/src/queue.c **** 					the event were caused from within an interrupt. */
2132:lib/freertos/src/queue.c **** 					if( xCoRoutineRemoveFromEventList( &( pxQueue->xTasksWaitingToSend ) ) != pdFALSE )
2133:lib/freertos/src/queue.c **** 					{
2134:lib/freertos/src/queue.c **** 						xReturn = errQUEUE_YIELD;
2135:lib/freertos/src/queue.c **** 					}
GAS LISTING C:\Users\kasie\AppData\Local\Temp\ccBtjLu5.s 			page 105


2136:lib/freertos/src/queue.c **** 					else
2137:lib/freertos/src/queue.c **** 					{
2138:lib/freertos/src/queue.c **** 						mtCOVERAGE_TEST_MARKER();
2139:lib/freertos/src/queue.c **** 					}
2140:lib/freertos/src/queue.c **** 				}
2141:lib/freertos/src/queue.c **** 				else
2142:lib/freertos/src/queue.c **** 				{
2143:lib/freertos/src/queue.c **** 					mtCOVERAGE_TEST_MARKER();
2144:lib/freertos/src/queue.c **** 				}
2145:lib/freertos/src/queue.c **** 			}
2146:lib/freertos/src/queue.c **** 			else
2147:lib/freertos/src/queue.c **** 			{
2148:lib/freertos/src/queue.c **** 				xReturn = pdFAIL;
2149:lib/freertos/src/queue.c **** 			}
2150:lib/freertos/src/queue.c **** 		}
2151:lib/freertos/src/queue.c **** 		portENABLE_INTERRUPTS();
2152:lib/freertos/src/queue.c **** 
2153:lib/freertos/src/queue.c **** 		return xReturn;
2154:lib/freertos/src/queue.c **** 	}
2155:lib/freertos/src/queue.c **** 
2156:lib/freertos/src/queue.c **** #endif /* configUSE_CO_ROUTINES */
2157:lib/freertos/src/queue.c **** /*-----------------------------------------------------------*/
2158:lib/freertos/src/queue.c **** 
2159:lib/freertos/src/queue.c **** #if ( configUSE_CO_ROUTINES == 1 )
2160:lib/freertos/src/queue.c **** 
2161:lib/freertos/src/queue.c **** 	BaseType_t xQueueCRSendFromISR( QueueHandle_t xQueue, const void *pvItemToQueue, BaseType_t xCoRou
2162:lib/freertos/src/queue.c **** 	{
2163:lib/freertos/src/queue.c **** 	Queue_t * const pxQueue = ( Queue_t * ) xQueue;
2164:lib/freertos/src/queue.c **** 
2165:lib/freertos/src/queue.c **** 		/* Cannot block within an ISR so if there is no space on the queue then
2166:lib/freertos/src/queue.c **** 		exit without doing anything. */
2167:lib/freertos/src/queue.c **** 		if( pxQueue->uxMessagesWaiting < pxQueue->uxLength )
2168:lib/freertos/src/queue.c **** 		{
2169:lib/freertos/src/queue.c **** 			prvCopyDataToQueue( pxQueue, pvItemToQueue, queueSEND_TO_BACK );
2170:lib/freertos/src/queue.c **** 
2171:lib/freertos/src/queue.c **** 			/* We only want to wake one co-routine per ISR, so check that a
2172:lib/freertos/src/queue.c **** 			co-routine has not already been woken. */
2173:lib/freertos/src/queue.c **** 			if( xCoRoutinePreviouslyWoken == pdFALSE )
2174:lib/freertos/src/queue.c **** 			{
2175:lib/freertos/src/queue.c **** 				if( listLIST_IS_EMPTY( &( pxQueue->xTasksWaitingToReceive ) ) == pdFALSE )
2176:lib/freertos/src/queue.c **** 				{
2177:lib/freertos/src/queue.c **** 					if( xCoRoutineRemoveFromEventList( &( pxQueue->xTasksWaitingToReceive ) ) != pdFALSE )
2178:lib/freertos/src/queue.c **** 					{
2179:lib/freertos/src/queue.c **** 						return pdTRUE;
2180:lib/freertos/src/queue.c **** 					}
2181:lib/freertos/src/queue.c **** 					else
2182:lib/freertos/src/queue.c **** 					{
2183:lib/freertos/src/queue.c **** 						mtCOVERAGE_TEST_MARKER();
2184:lib/freertos/src/queue.c **** 					}
2185:lib/freertos/src/queue.c **** 				}
2186:lib/freertos/src/queue.c **** 				else
2187:lib/freertos/src/queue.c **** 				{
2188:lib/freertos/src/queue.c **** 					mtCOVERAGE_TEST_MARKER();
2189:lib/freertos/src/queue.c **** 				}
2190:lib/freertos/src/queue.c **** 			}
2191:lib/freertos/src/queue.c **** 			else
2192:lib/freertos/src/queue.c **** 			{
GAS LISTING C:\Users\kasie\AppData\Local\Temp\ccBtjLu5.s 			page 106


2193:lib/freertos/src/queue.c **** 				mtCOVERAGE_TEST_MARKER();
2194:lib/freertos/src/queue.c **** 			}
2195:lib/freertos/src/queue.c **** 		}
2196:lib/freertos/src/queue.c **** 		else
2197:lib/freertos/src/queue.c **** 		{
2198:lib/freertos/src/queue.c **** 			mtCOVERAGE_TEST_MARKER();
2199:lib/freertos/src/queue.c **** 		}
2200:lib/freertos/src/queue.c **** 
2201:lib/freertos/src/queue.c **** 		return xCoRoutinePreviouslyWoken;
2202:lib/freertos/src/queue.c **** 	}
2203:lib/freertos/src/queue.c **** 
2204:lib/freertos/src/queue.c **** #endif /* configUSE_CO_ROUTINES */
2205:lib/freertos/src/queue.c **** /*-----------------------------------------------------------*/
2206:lib/freertos/src/queue.c **** 
2207:lib/freertos/src/queue.c **** #if ( configUSE_CO_ROUTINES == 1 )
2208:lib/freertos/src/queue.c **** 
2209:lib/freertos/src/queue.c **** 	BaseType_t xQueueCRReceiveFromISR( QueueHandle_t xQueue, void *pvBuffer, BaseType_t *pxCoRoutineWo
2210:lib/freertos/src/queue.c **** 	{
2211:lib/freertos/src/queue.c **** 	BaseType_t xReturn;
2212:lib/freertos/src/queue.c **** 	Queue_t * const pxQueue = ( Queue_t * ) xQueue;
2213:lib/freertos/src/queue.c **** 
2214:lib/freertos/src/queue.c **** 		/* We cannot block from an ISR, so check there is data available. If
2215:lib/freertos/src/queue.c **** 		not then just leave without doing anything. */
2216:lib/freertos/src/queue.c **** 		if( pxQueue->uxMessagesWaiting > ( UBaseType_t ) 0 )
2217:lib/freertos/src/queue.c **** 		{
2218:lib/freertos/src/queue.c **** 			/* Copy the data from the queue. */
2219:lib/freertos/src/queue.c **** 			pxQueue->u.pcReadFrom += pxQueue->uxItemSize;
2220:lib/freertos/src/queue.c **** 			if( pxQueue->u.pcReadFrom >= pxQueue->pcTail )
2221:lib/freertos/src/queue.c **** 			{
2222:lib/freertos/src/queue.c **** 				pxQueue->u.pcReadFrom = pxQueue->pcHead;
2223:lib/freertos/src/queue.c **** 			}
2224:lib/freertos/src/queue.c **** 			else
2225:lib/freertos/src/queue.c **** 			{
2226:lib/freertos/src/queue.c **** 				mtCOVERAGE_TEST_MARKER();
2227:lib/freertos/src/queue.c **** 			}
2228:lib/freertos/src/queue.c **** 			--( pxQueue->uxMessagesWaiting );
2229:lib/freertos/src/queue.c **** 			( void ) memcpy( ( void * ) pvBuffer, ( void * ) pxQueue->u.pcReadFrom, ( unsigned ) pxQueue->ux
2230:lib/freertos/src/queue.c **** 
2231:lib/freertos/src/queue.c **** 			if( ( *pxCoRoutineWoken ) == pdFALSE )
2232:lib/freertos/src/queue.c **** 			{
2233:lib/freertos/src/queue.c **** 				if( listLIST_IS_EMPTY( &( pxQueue->xTasksWaitingToSend ) ) == pdFALSE )
2234:lib/freertos/src/queue.c **** 				{
2235:lib/freertos/src/queue.c **** 					if( xCoRoutineRemoveFromEventList( &( pxQueue->xTasksWaitingToSend ) ) != pdFALSE )
2236:lib/freertos/src/queue.c **** 					{
2237:lib/freertos/src/queue.c **** 						*pxCoRoutineWoken = pdTRUE;
2238:lib/freertos/src/queue.c **** 					}
2239:lib/freertos/src/queue.c **** 					else
2240:lib/freertos/src/queue.c **** 					{
2241:lib/freertos/src/queue.c **** 						mtCOVERAGE_TEST_MARKER();
2242:lib/freertos/src/queue.c **** 					}
2243:lib/freertos/src/queue.c **** 				}
2244:lib/freertos/src/queue.c **** 				else
2245:lib/freertos/src/queue.c **** 				{
2246:lib/freertos/src/queue.c **** 					mtCOVERAGE_TEST_MARKER();
2247:lib/freertos/src/queue.c **** 				}
2248:lib/freertos/src/queue.c **** 			}
2249:lib/freertos/src/queue.c **** 			else
GAS LISTING C:\Users\kasie\AppData\Local\Temp\ccBtjLu5.s 			page 107


2250:lib/freertos/src/queue.c **** 			{
2251:lib/freertos/src/queue.c **** 				mtCOVERAGE_TEST_MARKER();
2252:lib/freertos/src/queue.c **** 			}
2253:lib/freertos/src/queue.c **** 
2254:lib/freertos/src/queue.c **** 			xReturn = pdPASS;
2255:lib/freertos/src/queue.c **** 		}
2256:lib/freertos/src/queue.c **** 		else
2257:lib/freertos/src/queue.c **** 		{
2258:lib/freertos/src/queue.c **** 			xReturn = pdFAIL;
2259:lib/freertos/src/queue.c **** 		}
2260:lib/freertos/src/queue.c **** 
2261:lib/freertos/src/queue.c **** 		return xReturn;
2262:lib/freertos/src/queue.c **** 	}
2263:lib/freertos/src/queue.c **** 
2264:lib/freertos/src/queue.c **** #endif /* configUSE_CO_ROUTINES */
2265:lib/freertos/src/queue.c **** /*-----------------------------------------------------------*/
2266:lib/freertos/src/queue.c **** 
2267:lib/freertos/src/queue.c **** #if ( configQUEUE_REGISTRY_SIZE > 0 )
2268:lib/freertos/src/queue.c **** 
2269:lib/freertos/src/queue.c **** 	void vQueueAddToRegistry( QueueHandle_t xQueue, const char *pcQueueName ) /*lint !e971 Unqualified
2270:lib/freertos/src/queue.c **** 	{
 2875              		.loc 1 2270 2 is_stmt 1
 2876              		.cfi_startproc
 2877              	.LVL288:
2271:lib/freertos/src/queue.c **** 	UBaseType_t ux;
 2878              		.loc 1 2271 2
2272:lib/freertos/src/queue.c **** 
2273:lib/freertos/src/queue.c **** 		/* See if there is an empty space in the registry.  A NULL name denotes
2274:lib/freertos/src/queue.c **** 		a free slot. */
2275:lib/freertos/src/queue.c **** 		for( ux = ( UBaseType_t ) 0U; ux < ( UBaseType_t ) configQUEUE_REGISTRY_SIZE; ux++ )
 2879              		.loc 1 2275 3
 2880 0000 B7070000 		lui	a5,%hi(xQueueRegistry)
 2881 0004 93860700 		addi	a3,a5,%lo(xQueueRegistry)
 2882              		.loc 1 2275 11 is_stmt 0
 2883 0008 0147     		li	a4,0
 2884 000a 93870700 		addi	a5,a5,%lo(xQueueRegistry)
 2885              		.loc 1 2275 3
 2886 000e 2946     		li	a2,10
 2887              	.LVL289:
 2888              	.L277:
2276:lib/freertos/src/queue.c **** 		{
2277:lib/freertos/src/queue.c **** 			if( xQueueRegistry[ ux ].pcQueueName == NULL )
 2889              		.loc 1 2277 4 is_stmt 1
 2890              		.loc 1 2277 6 is_stmt 0
 2891 0010 03A80600 		lw	a6,0(a3)
 2892 0014 63170800 		bne	a6,zero,.L275
2278:lib/freertos/src/queue.c **** 			{
2279:lib/freertos/src/queue.c **** 				/* Store the information on this queue. */
2280:lib/freertos/src/queue.c **** 				xQueueRegistry[ ux ].pcQueueName = pcQueueName;
 2893              		.loc 1 2280 5 is_stmt 1
 2894              		.loc 1 2280 38 is_stmt 0
 2895 0018 0E07     		slli	a4,a4,3
 2896              	.LVL290:
 2897 001a BA97     		add	a5,a5,a4
 2898 001c 8CC3     		sw	a1,0(a5)
2281:lib/freertos/src/queue.c **** 				xQueueRegistry[ ux ].xHandle = xQueue;
 2899              		.loc 1 2281 5 is_stmt 1
GAS LISTING C:\Users\kasie\AppData\Local\Temp\ccBtjLu5.s 			page 108


 2900              		.loc 1 2281 34 is_stmt 0
 2901 001e C8C3     		sw	a0,4(a5)
2282:lib/freertos/src/queue.c **** 
2283:lib/freertos/src/queue.c **** 				traceQUEUE_REGISTRY_ADD( xQueue, pcQueueName );
 2902              		.loc 1 2283 51 is_stmt 1
2284:lib/freertos/src/queue.c **** 				break;
 2903              		.loc 1 2284 5
 2904 0020 8280     		ret
 2905              	.LVL291:
 2906              	.L275:
2285:lib/freertos/src/queue.c **** 			}
2286:lib/freertos/src/queue.c **** 			else
2287:lib/freertos/src/queue.c **** 			{
2288:lib/freertos/src/queue.c **** 				mtCOVERAGE_TEST_MARKER();
 2907              		.loc 1 2288 29 discriminator 2
2275:lib/freertos/src/queue.c **** 		{
 2908              		.loc 1 2275 83 is_stmt 0 discriminator 2
 2909 0022 0507     		addi	a4,a4,1
 2910              	.LVL292:
 2911 0024 A106     		addi	a3,a3,8
2275:lib/freertos/src/queue.c **** 		{
 2912              		.loc 1 2275 3 discriminator 2
 2913 0026 E315C7FE 		bne	a4,a2,.L277
2289:lib/freertos/src/queue.c **** 			}
2290:lib/freertos/src/queue.c **** 		}
2291:lib/freertos/src/queue.c **** 	}
 2914              		.loc 1 2291 2
 2915 002a 8280     		ret
 2916              		.cfi_endproc
 2917              	.LFE29:
 2919              		.section	.text.pcQueueGetName,"ax",@progbits
 2920              		.align	1
 2921              		.globl	pcQueueGetName
 2923              	pcQueueGetName:
 2924              	.LFB30:
2292:lib/freertos/src/queue.c **** 
2293:lib/freertos/src/queue.c **** #endif /* configQUEUE_REGISTRY_SIZE */
2294:lib/freertos/src/queue.c **** /*-----------------------------------------------------------*/
2295:lib/freertos/src/queue.c **** 
2296:lib/freertos/src/queue.c **** #if ( configQUEUE_REGISTRY_SIZE > 0 )
2297:lib/freertos/src/queue.c **** 
2298:lib/freertos/src/queue.c **** 	const char *pcQueueGetName( QueueHandle_t xQueue ) /*lint !e971 Unqualified char types are allowed
2299:lib/freertos/src/queue.c **** 	{
 2925              		.loc 1 2299 2 is_stmt 1
 2926              		.cfi_startproc
 2927              	.LVL293:
2300:lib/freertos/src/queue.c **** 	UBaseType_t ux;
 2928              		.loc 1 2300 2
2301:lib/freertos/src/queue.c **** 	const char *pcReturn = NULL; /*lint !e971 Unqualified char types are allowed for strings and singl
 2929              		.loc 1 2301 2
2302:lib/freertos/src/queue.c **** 
2303:lib/freertos/src/queue.c **** 		/* Note there is nothing here to protect against another task adding or
2304:lib/freertos/src/queue.c **** 		removing entries from the registry while it is being searched. */
2305:lib/freertos/src/queue.c **** 		for( ux = ( UBaseType_t ) 0U; ux < ( UBaseType_t ) configQUEUE_REGISTRY_SIZE; ux++ )
 2930              		.loc 1 2305 3
 2931 0000 37070000 		lui	a4,%hi(xQueueRegistry)
 2932 0004 93060700 		addi	a3,a4,%lo(xQueueRegistry)
GAS LISTING C:\Users\kasie\AppData\Local\Temp\ccBtjLu5.s 			page 109


 2933              		.loc 1 2305 11 is_stmt 0
 2934 0008 8147     		li	a5,0
 2935 000a 13070700 		addi	a4,a4,%lo(xQueueRegistry)
 2936              		.loc 1 2305 3
 2937 000e 2946     		li	a2,10
 2938              	.LVL294:
 2939              	.L282:
2306:lib/freertos/src/queue.c **** 		{
2307:lib/freertos/src/queue.c **** 			if( xQueueRegistry[ ux ].xHandle == xQueue )
 2940              		.loc 1 2307 4 is_stmt 1
 2941              		.loc 1 2307 6 is_stmt 0
 2942 0010 CC42     		lw	a1,4(a3)
 2943 0012 6396A500 		bne	a1,a0,.L280
2308:lib/freertos/src/queue.c **** 			{
2309:lib/freertos/src/queue.c **** 				pcReturn = xQueueRegistry[ ux ].pcQueueName;
 2944              		.loc 1 2309 5 is_stmt 1
 2945              		.loc 1 2309 14 is_stmt 0
 2946 0016 8E07     		slli	a5,a5,3
 2947              	.LVL295:
 2948 0018 BA97     		add	a5,a4,a5
 2949 001a 8843     		lw	a0,0(a5)
 2950              	.LVL296:
2310:lib/freertos/src/queue.c **** 				break;
 2951              		.loc 1 2310 5 is_stmt 1
 2952 001c 8280     		ret
 2953              	.LVL297:
 2954              	.L280:
2311:lib/freertos/src/queue.c **** 			}
2312:lib/freertos/src/queue.c **** 			else
2313:lib/freertos/src/queue.c **** 			{
2314:lib/freertos/src/queue.c **** 				mtCOVERAGE_TEST_MARKER();
 2955              		.loc 1 2314 29 discriminator 2
2305:lib/freertos/src/queue.c **** 		{
 2956              		.loc 1 2305 83 is_stmt 0 discriminator 2
 2957 001e 8507     		addi	a5,a5,1
 2958              	.LVL298:
 2959 0020 A106     		addi	a3,a3,8
2305:lib/freertos/src/queue.c **** 		{
 2960              		.loc 1 2305 3 discriminator 2
 2961 0022 E397C7FE 		bne	a5,a2,.L282
2301:lib/freertos/src/queue.c **** 
 2962              		.loc 1 2301 14
 2963 0026 0145     		li	a0,0
 2964              	.LVL299:
2315:lib/freertos/src/queue.c **** 			}
2316:lib/freertos/src/queue.c **** 		}
2317:lib/freertos/src/queue.c **** 
2318:lib/freertos/src/queue.c **** 		return pcReturn;
 2965              		.loc 1 2318 3 is_stmt 1
2319:lib/freertos/src/queue.c **** 	}
 2966              		.loc 1 2319 2 is_stmt 0
 2967 0028 8280     		ret
 2968              		.cfi_endproc
 2969              	.LFE30:
 2971              		.section	.text.vQueueUnregisterQueue,"ax",@progbits
 2972              		.align	1
 2973              		.globl	vQueueUnregisterQueue
GAS LISTING C:\Users\kasie\AppData\Local\Temp\ccBtjLu5.s 			page 110


 2975              	vQueueUnregisterQueue:
 2976              	.LFB31:
2320:lib/freertos/src/queue.c **** 
2321:lib/freertos/src/queue.c **** #endif /* configQUEUE_REGISTRY_SIZE */
2322:lib/freertos/src/queue.c **** /*-----------------------------------------------------------*/
2323:lib/freertos/src/queue.c **** 
2324:lib/freertos/src/queue.c **** #if ( configQUEUE_REGISTRY_SIZE > 0 )
2325:lib/freertos/src/queue.c **** 
2326:lib/freertos/src/queue.c **** 	void vQueueUnregisterQueue( QueueHandle_t xQueue )
2327:lib/freertos/src/queue.c **** 	{
 2977              		.loc 1 2327 2 is_stmt 1
 2978              		.cfi_startproc
 2979              	.LVL300:
2328:lib/freertos/src/queue.c **** 	UBaseType_t ux;
 2980              		.loc 1 2328 2
2329:lib/freertos/src/queue.c **** 
2330:lib/freertos/src/queue.c **** 		/* See if the handle of the queue being unregistered in actually in the
2331:lib/freertos/src/queue.c **** 		registry. */
2332:lib/freertos/src/queue.c **** 		for( ux = ( UBaseType_t ) 0U; ux < ( UBaseType_t ) configQUEUE_REGISTRY_SIZE; ux++ )
 2981              		.loc 1 2332 3
 2982 0000 B7070000 		lui	a5,%hi(xQueueRegistry)
 2983 0004 93860700 		addi	a3,a5,%lo(xQueueRegistry)
 2984              		.loc 1 2332 11 is_stmt 0
 2985 0008 0147     		li	a4,0
 2986 000a 93870700 		addi	a5,a5,%lo(xQueueRegistry)
 2987              		.loc 1 2332 3
 2988 000e 2946     		li	a2,10
 2989              	.LVL301:
 2990              	.L287:
2333:lib/freertos/src/queue.c **** 		{
2334:lib/freertos/src/queue.c **** 			if( xQueueRegistry[ ux ].xHandle == xQueue )
 2991              		.loc 1 2334 4 is_stmt 1
 2992              		.loc 1 2334 6 is_stmt 0
 2993 0010 CC42     		lw	a1,4(a3)
 2994 0012 6399A500 		bne	a1,a0,.L285
2335:lib/freertos/src/queue.c **** 			{
2336:lib/freertos/src/queue.c **** 				/* Set the name to NULL to show that this slot if free again. */
2337:lib/freertos/src/queue.c **** 				xQueueRegistry[ ux ].pcQueueName = NULL;
 2995              		.loc 1 2337 5 is_stmt 1
 2996              		.loc 1 2337 38 is_stmt 0
 2997 0016 0E07     		slli	a4,a4,3
 2998              	.LVL302:
 2999 0018 BA97     		add	a5,a5,a4
 3000 001a 23A00700 		sw	zero,0(a5)
2338:lib/freertos/src/queue.c **** 
2339:lib/freertos/src/queue.c **** 				/* Set the handle to NULL to ensure the same queue handle cannot
2340:lib/freertos/src/queue.c **** 				appear in the registry twice if it is added, removed, then
2341:lib/freertos/src/queue.c **** 				added again. */
2342:lib/freertos/src/queue.c **** 				xQueueRegistry[ ux ].xHandle = ( QueueHandle_t ) 0;
 3001              		.loc 1 2342 5 is_stmt 1
 3002              		.loc 1 2342 34 is_stmt 0
 3003 001e 23A20700 		sw	zero,4(a5)
2343:lib/freertos/src/queue.c **** 				break;
 3004              		.loc 1 2343 5 is_stmt 1
 3005 0022 8280     		ret
 3006              	.LVL303:
 3007              	.L285:
GAS LISTING C:\Users\kasie\AppData\Local\Temp\ccBtjLu5.s 			page 111


2344:lib/freertos/src/queue.c **** 			}
2345:lib/freertos/src/queue.c **** 			else
2346:lib/freertos/src/queue.c **** 			{
2347:lib/freertos/src/queue.c **** 				mtCOVERAGE_TEST_MARKER();
 3008              		.loc 1 2347 29 discriminator 2
2332:lib/freertos/src/queue.c **** 		{
 3009              		.loc 1 2332 83 is_stmt 0 discriminator 2
 3010 0024 0507     		addi	a4,a4,1
 3011              	.LVL304:
 3012 0026 A106     		addi	a3,a3,8
2332:lib/freertos/src/queue.c **** 		{
 3013              		.loc 1 2332 3 discriminator 2
 3014 0028 E314C7FE 		bne	a4,a2,.L287
2348:lib/freertos/src/queue.c **** 			}
2349:lib/freertos/src/queue.c **** 		}
2350:lib/freertos/src/queue.c **** 
2351:lib/freertos/src/queue.c **** 	} /*lint !e818 xQueue could not be pointer to const because it is a typedef. */
 3015              		.loc 1 2351 2
 3016 002c 8280     		ret
 3017              		.cfi_endproc
 3018              	.LFE31:
 3020              		.section	.text.vQueueDelete,"ax",@progbits
 3021              		.align	1
 3022              		.globl	vQueueDelete
 3024              	vQueueDelete:
 3025              	.LFB18:
1626:lib/freertos/src/queue.c **** Queue_t * const pxQueue = ( Queue_t * ) xQueue;
 3026              		.loc 1 1626 1 is_stmt 1
 3027              		.cfi_startproc
 3028              	.LVL305:
1627:lib/freertos/src/queue.c **** 
 3029              		.loc 1 1627 1
1629:lib/freertos/src/queue.c **** 	traceQUEUE_DELETE( pxQueue );
 3030              		.loc 1 1629 2
 3031 0000 01E5     		bne	a0,zero,.L290
1629:lib/freertos/src/queue.c **** 	traceQUEUE_DELETE( pxQueue );
 3032              		.loc 1 1629 2 discriminator 3
 3033              	.LBB140:
1629:lib/freertos/src/queue.c **** 	traceQUEUE_DELETE( pxQueue );
 3034              		.loc 1 1629 2 discriminator 3
1629:lib/freertos/src/queue.c **** 	traceQUEUE_DELETE( pxQueue );
 3035              		.loc 1 1629 2 discriminator 3
1629:lib/freertos/src/queue.c **** 	traceQUEUE_DELETE( pxQueue );
 3036              		.loc 1 1629 2 discriminator 3
 3037              	 #APP
 3038              	# 1629 "lib/freertos/src/queue.c" 1
 3039              		csrrc a5, mstatus, 8
 3040              	# 0 "" 2
 3041              	.LVL306:
1629:lib/freertos/src/queue.c **** 	traceQUEUE_DELETE( pxQueue );
 3042              		.loc 1 1629 2 discriminator 3
 3043              	 #NO_APP
 3044              	.L291:
 3045              	.LBE140:
1629:lib/freertos/src/queue.c **** 	traceQUEUE_DELETE( pxQueue );
 3046              		.loc 1 1629 2 discriminator 1
1629:lib/freertos/src/queue.c **** 	traceQUEUE_DELETE( pxQueue );
GAS LISTING C:\Users\kasie\AppData\Local\Temp\ccBtjLu5.s 			page 112


 3047              		.loc 1 1629 2 discriminator 1
1629:lib/freertos/src/queue.c **** 	traceQUEUE_DELETE( pxQueue );
 3048              		.loc 1 1629 2 discriminator 1
 3049 0006 01A0     		j	.L291
 3050              	.L290:
1626:lib/freertos/src/queue.c **** Queue_t * const pxQueue = ( Queue_t * ) xQueue;
 3051              		.loc 1 1626 1 is_stmt 0 discriminator 2
 3052 0008 4111     		addi	sp,sp,-16
 3053              	.LCFI36:
 3054              		.cfi_def_cfa_offset 16
 3055 000a 22C4     		sw	s0,8(sp)
 3056 000c 06C6     		sw	ra,12(sp)
 3057              		.cfi_offset 8, -8
 3058              		.cfi_offset 1, -4
 3059 000e 2A84     		mv	s0,a0
1629:lib/freertos/src/queue.c **** 	traceQUEUE_DELETE( pxQueue );
 3060              		.loc 1 1629 25 is_stmt 1 discriminator 2
1630:lib/freertos/src/queue.c **** 
 3061              		.loc 1 1630 30 discriminator 2
1634:lib/freertos/src/queue.c **** 	}
 3062              		.loc 1 1634 3 discriminator 2
 3063 0010 97000000 		call	vQueueUnregisterQueue
 3063      E7800000 
 3064              	.LVL307:
1642:lib/freertos/src/queue.c **** 	}
 3065              		.loc 1 1642 3 discriminator 2
 3066 0018 2285     		mv	a0,s0
1664:lib/freertos/src/queue.c **** /*-----------------------------------------------------------*/
 3067              		.loc 1 1664 1 is_stmt 0 discriminator 2
 3068 001a 2244     		lw	s0,8(sp)
 3069              		.cfi_restore 8
 3070              	.LVL308:
 3071 001c B240     		lw	ra,12(sp)
 3072              		.cfi_restore 1
 3073 001e 4101     		addi	sp,sp,16
 3074              	.LCFI37:
 3075              		.cfi_def_cfa_offset 0
1642:lib/freertos/src/queue.c **** 	}
 3076              		.loc 1 1642 3 discriminator 2
 3077 0020 17030000 		tail	vPortFree
 3077      67000300 
 3078              	.LVL309:
 3079              		.cfi_endproc
 3080              	.LFE18:
 3082              		.section	.text.vQueueWaitForMessageRestricted,"ax",@progbits
 3083              		.align	1
 3084              		.globl	vQueueWaitForMessageRestricted
 3086              	vQueueWaitForMessageRestricted:
 3087              	.LFB32:
2352:lib/freertos/src/queue.c **** 
2353:lib/freertos/src/queue.c **** #endif /* configQUEUE_REGISTRY_SIZE */
2354:lib/freertos/src/queue.c **** /*-----------------------------------------------------------*/
2355:lib/freertos/src/queue.c **** 
2356:lib/freertos/src/queue.c **** #if ( configUSE_TIMERS == 1 )
2357:lib/freertos/src/queue.c **** 
2358:lib/freertos/src/queue.c **** 	void vQueueWaitForMessageRestricted( QueueHandle_t xQueue, TickType_t xTicksToWait, const BaseType
2359:lib/freertos/src/queue.c **** 	{
GAS LISTING C:\Users\kasie\AppData\Local\Temp\ccBtjLu5.s 			page 113


 3088              		.loc 1 2359 2 is_stmt 1
 3089              		.cfi_startproc
 3090              	.LVL310:
2360:lib/freertos/src/queue.c **** 	Queue_t * const pxQueue = ( Queue_t * ) xQueue;
 3091              		.loc 1 2360 2
2359:lib/freertos/src/queue.c **** 	Queue_t * const pxQueue = ( Queue_t * ) xQueue;
 3092              		.loc 1 2359 2 is_stmt 0
 3093 0000 0111     		addi	sp,sp,-32
 3094              	.LCFI38:
 3095              		.cfi_def_cfa_offset 32
 3096 0002 22CC     		sw	s0,24(sp)
 3097 0004 2EC6     		sw	a1,12(sp)
 3098              		.cfi_offset 8, -8
 3099 0006 2A84     		mv	s0,a0
 3100              	.LVL311:
2361:lib/freertos/src/queue.c **** 
2362:lib/freertos/src/queue.c **** 		/* This function should not be called by application code hence the
2363:lib/freertos/src/queue.c **** 		'Restricted' in its name.  It is not part of the public API.  It is
2364:lib/freertos/src/queue.c **** 		designed for use by kernel code, and has special calling requirements.
2365:lib/freertos/src/queue.c **** 		It can result in vListInsert() being called on a list that can only
2366:lib/freertos/src/queue.c **** 		possibly ever have one item in it, so the list will be fast, but even
2367:lib/freertos/src/queue.c **** 		so it should be called with the scheduler locked and not from a critical
2368:lib/freertos/src/queue.c **** 		section. */
2369:lib/freertos/src/queue.c **** 
2370:lib/freertos/src/queue.c **** 		/* Only do anything if there are no messages in the queue.  This function
2371:lib/freertos/src/queue.c **** 		will not actually cause the task to block, just place it on a blocked
2372:lib/freertos/src/queue.c **** 		list.  It will not block until the scheduler is unlocked - at which
2373:lib/freertos/src/queue.c **** 		time a yield will be performed.  If an item is added to the queue while
2374:lib/freertos/src/queue.c **** 		the queue is locked, and the calling task blocks on the queue, then the
2375:lib/freertos/src/queue.c **** 		calling task will be immediately unblocked when the queue is unlocked. */
2376:lib/freertos/src/queue.c **** 		prvLockQueue( pxQueue );
 3101              		.loc 1 2376 3 is_stmt 1
2359:lib/freertos/src/queue.c **** 	Queue_t * const pxQueue = ( Queue_t * ) xQueue;
 3102              		.loc 1 2359 2 is_stmt 0
 3103 0008 32C4     		sw	a2,8(sp)
 3104 000a 06CE     		sw	ra,28(sp)
 3105              		.cfi_offset 1, -4
 3106              		.loc 1 2376 3
 3107 000c 97000000 		call	vPortEnterCritical
 3107      E7800000 
 3108              	.LVL312:
 3109              		.loc 1 2376 3 is_stmt 1
 3110 0014 83474404 		lbu	a5,68(s0)
 3111 0018 7D57     		li	a4,-1
 3112 001a 2246     		lw	a2,8(sp)
 3113 001c E207     		slli	a5,a5,24
 3114 001e E187     		srai	a5,a5,24
 3115 0020 B245     		lw	a1,12(sp)
 3116 0022 6394E700 		bne	a5,a4,.L295
 3117              		.loc 1 2376 3 discriminator 1
 3118 0026 23020404 		sb	zero,68(s0)
 3119              	.L295:
 3120              		.loc 1 2376 3 discriminator 3
 3121 002a 83475404 		lbu	a5,69(s0)
 3122 002e 7D57     		li	a4,-1
 3123 0030 E207     		slli	a5,a5,24
 3124 0032 E187     		srai	a5,a5,24
GAS LISTING C:\Users\kasie\AppData\Local\Temp\ccBtjLu5.s 			page 114


 3125 0034 6394E700 		bne	a5,a4,.L296
 3126              		.loc 1 2376 3 discriminator 4
 3127 0038 A3020404 		sb	zero,69(s0)
 3128              	.L296:
 3129 003c 32C6     		sw	a2,12(sp)
 3130              	.LVL313:
 3131 003e 2EC4     		sw	a1,8(sp)
 3132              	.LVL314:
 3133              		.loc 1 2376 3 discriminator 6
 3134 0040 97000000 		call	vPortExitCritical
 3134      E7800000 
 3135              	.LVL315:
2377:lib/freertos/src/queue.c **** 		if( pxQueue->uxMessagesWaiting == ( UBaseType_t ) 0U )
 3136              		.loc 1 2377 3 discriminator 6
 3137              		.loc 1 2377 14 is_stmt 0 discriminator 6
 3138 0048 1C5C     		lw	a5,56(s0)
 3139              		.loc 1 2377 5 discriminator 6
 3140 004a A245     		lw	a1,8(sp)
 3141 004c 3246     		lw	a2,12(sp)
 3142 004e 99E7     		bne	a5,zero,.L297
2378:lib/freertos/src/queue.c **** 		{
2379:lib/freertos/src/queue.c **** 			/* There is nothing in the queue, block for the specified period. */
2380:lib/freertos/src/queue.c **** 			vTaskPlaceOnEventListRestricted( &( pxQueue->xTasksWaitingToReceive ), xTicksToWait, xWaitIndefi
 3143              		.loc 1 2380 4 is_stmt 1
 3144 0050 13054402 		addi	a0,s0,36
 3145 0054 97000000 		call	vTaskPlaceOnEventListRestricted
 3145      E7800000 
 3146              	.LVL316:
 3147              	.L297:
2381:lib/freertos/src/queue.c **** 		}
2382:lib/freertos/src/queue.c **** 		else
2383:lib/freertos/src/queue.c **** 		{
2384:lib/freertos/src/queue.c **** 			mtCOVERAGE_TEST_MARKER();
 3148              		.loc 1 2384 28
2385:lib/freertos/src/queue.c **** 		}
2386:lib/freertos/src/queue.c **** 		prvUnlockQueue( pxQueue );
 3149              		.loc 1 2386 3
 3150 005c 2285     		mv	a0,s0
2387:lib/freertos/src/queue.c **** 	}
 3151              		.loc 1 2387 2 is_stmt 0
 3152 005e 6244     		lw	s0,24(sp)
 3153              		.cfi_restore 8
 3154              	.LVL317:
 3155 0060 F240     		lw	ra,28(sp)
 3156              		.cfi_restore 1
 3157 0062 0561     		addi	sp,sp,32
 3158              	.LCFI39:
 3159              		.cfi_def_cfa_offset 0
2386:lib/freertos/src/queue.c **** 	}
 3160              		.loc 1 2386 3
 3161 0064 17030000 		tail	prvUnlockQueue
 3161      67000300 
 3162              	.LVL318:
 3163              		.cfi_endproc
 3164              	.LFE32:
 3166              		.comm	xQueueRegistry,80,4
 3167              		.text
GAS LISTING C:\Users\kasie\AppData\Local\Temp\ccBtjLu5.s 			page 115


 3168              	.Letext0:
 3169              		.file 2 "c:\\hukas\\code\\repositories\\kth-hi1025-operativsystem\\compiler\\lib\\gcc\\riscv64-unk
 3170              		.file 3 "c:\\hukas\\code\\repositories\\kth-hi1025-operativsystem\\compiler\\riscv64-unknown-elf\\
 3171              		.file 4 "c:\\hukas\\code\\repositories\\kth-hi1025-operativsystem\\compiler\\riscv64-unknown-elf\\
 3172              		.file 5 "c:\\hukas\\code\\repositories\\kth-hi1025-operativsystem\\compiler\\riscv64-unknown-elf\\
 3173              		.file 6 "c:\\hukas\\code\\repositories\\kth-hi1025-operativsystem\\compiler\\riscv64-unknown-elf\\
 3174              		.file 7 "c:\\hukas\\code\\repositories\\kth-hi1025-operativsystem\\compiler\\riscv64-unknown-elf\\
 3175              		.file 8 "c:\\hukas\\code\\repositories\\kth-hi1025-operativsystem\\compiler\\riscv64-unknown-elf\\
 3176              		.file 9 "./../../firmware/GD32VF103_standard_peripheral/system_gd32vf103.h"
 3177              		.file 10 "lib/freertos/include/portmacro.h"
 3178              		.file 11 "lib/freertos/include/list.h"
 3179              		.file 12 "lib/freertos/include/task.h"
 3180              		.file 13 "lib/freertos/include/queue.h"
 3181              		.file 14 "lib/freertos/include/portable.h"
 3182              		.file 15 "<built-in>"
GAS LISTING C:\Users\kasie\AppData\Local\Temp\ccBtjLu5.s 			page 116


DEFINED SYMBOLS
                            *ABS*:0000000000000000 queue.c
C:\Users\kasie\AppData\Local\Temp\ccBtjLu5.s:12     .text.prvCopyDataToQueue:0000000000000000 prvCopyDataToQueue
C:\Users\kasie\AppData\Local\Temp\ccBtjLu5.s:16     .text.prvCopyDataToQueue:0000000000000000 .L0 
C:\Users\kasie\AppData\Local\Temp\ccBtjLu5.s:18     .text.prvCopyDataToQueue:0000000000000000 .L0 
C:\Users\kasie\AppData\Local\Temp\ccBtjLu5.s:19     .text.prvCopyDataToQueue:0000000000000000 .L0 
C:\Users\kasie\AppData\Local\Temp\ccBtjLu5.s:20     .text.prvCopyDataToQueue:0000000000000000 .L0 
C:\Users\kasie\AppData\Local\Temp\ccBtjLu5.s:21     .text.prvCopyDataToQueue:0000000000000000 .L0 
C:\Users\kasie\AppData\Local\Temp\ccBtjLu5.s:22     .text.prvCopyDataToQueue:0000000000000000 .L0 
C:\Users\kasie\AppData\Local\Temp\ccBtjLu5.s:24     .text.prvCopyDataToQueue:0000000000000002 .L0 
C:\Users\kasie\AppData\Local\Temp\ccBtjLu5.s:26     .text.prvCopyDataToQueue:0000000000000004 .L0 
C:\Users\kasie\AppData\Local\Temp\ccBtjLu5.s:29     .text.prvCopyDataToQueue:0000000000000006 .L0 
C:\Users\kasie\AppData\Local\Temp\ccBtjLu5.s:32     .text.prvCopyDataToQueue:0000000000000008 .L0 
C:\Users\kasie\AppData\Local\Temp\ccBtjLu5.s:33     .text.prvCopyDataToQueue:000000000000000a .L0 
C:\Users\kasie\AppData\Local\Temp\ccBtjLu5.s:35     .text.prvCopyDataToQueue:000000000000000a .L0 
C:\Users\kasie\AppData\Local\Temp\ccBtjLu5.s:38     .text.prvCopyDataToQueue:000000000000000e .L0 
C:\Users\kasie\AppData\Local\Temp\ccBtjLu5.s:39     .text.prvCopyDataToQueue:000000000000000e .L0 
C:\Users\kasie\AppData\Local\Temp\ccBtjLu5.s:41     .text.prvCopyDataToQueue:0000000000000012 .L0 
C:\Users\kasie\AppData\Local\Temp\ccBtjLu5.s:42     .text.prvCopyDataToQueue:0000000000000012 .L0 
C:\Users\kasie\AppData\Local\Temp\ccBtjLu5.s:44     .text.prvCopyDataToQueue:0000000000000012 .L0 
C:\Users\kasie\AppData\Local\Temp\ccBtjLu5.s:46     .text.prvCopyDataToQueue:0000000000000014 .L0 
C:\Users\kasie\AppData\Local\Temp\ccBtjLu5.s:48     .text.prvCopyDataToQueue:0000000000000016 .L0 
C:\Users\kasie\AppData\Local\Temp\ccBtjLu5.s:49     .text.prvCopyDataToQueue:0000000000000016 .L0 
C:\Users\kasie\AppData\Local\Temp\ccBtjLu5.s:51     .text.prvCopyDataToQueue:0000000000000018 .L0 
C:\Users\kasie\AppData\Local\Temp\ccBtjLu5.s:54     .text.prvCopyDataToQueue:000000000000001a .L0 
C:\Users\kasie\AppData\Local\Temp\ccBtjLu5.s:56     .text.prvCopyDataToQueue:000000000000001c .L0 
C:\Users\kasie\AppData\Local\Temp\ccBtjLu5.s:57     .text.prvCopyDataToQueue:000000000000001c .L0 
C:\Users\kasie\AppData\Local\Temp\ccBtjLu5.s:64     .text.prvCopyDataToQueue:0000000000000028 .L0 
C:\Users\kasie\AppData\Local\Temp\ccBtjLu5.s:65     .text.prvCopyDataToQueue:0000000000000028 .L0 
C:\Users\kasie\AppData\Local\Temp\ccBtjLu5.s:69     .text.prvCopyDataToQueue:000000000000002c .L0 
C:\Users\kasie\AppData\Local\Temp\ccBtjLu5.s:70     .text.prvCopyDataToQueue:000000000000002c .L0 
C:\Users\kasie\AppData\Local\Temp\ccBtjLu5.s:71     .text.prvCopyDataToQueue:000000000000002c .L0 
C:\Users\kasie\AppData\Local\Temp\ccBtjLu5.s:74     .text.prvCopyDataToQueue:000000000000002e .L0 
C:\Users\kasie\AppData\Local\Temp\ccBtjLu5.s:76     .text.prvCopyDataToQueue:0000000000000032 .L0 
C:\Users\kasie\AppData\Local\Temp\ccBtjLu5.s:77     .text.prvCopyDataToQueue:0000000000000032 .L0 
C:\Users\kasie\AppData\Local\Temp\ccBtjLu5.s:78     .text.prvCopyDataToQueue:0000000000000034 .L0 
C:\Users\kasie\AppData\Local\Temp\ccBtjLu5.s:79     .text.prvCopyDataToQueue:0000000000000034 .L0 
C:\Users\kasie\AppData\Local\Temp\ccBtjLu5.s:81     .text.prvCopyDataToQueue:0000000000000036 .L0 
C:\Users\kasie\AppData\Local\Temp\ccBtjLu5.s:85     .text.prvCopyDataToQueue:000000000000003a .L0 
C:\Users\kasie\AppData\Local\Temp\ccBtjLu5.s:88     .text.prvCopyDataToQueue:000000000000003c .L0 
C:\Users\kasie\AppData\Local\Temp\ccBtjLu5.s:92     .text.prvCopyDataToQueue:000000000000003e .L0 
C:\Users\kasie\AppData\Local\Temp\ccBtjLu5.s:97     .text.prvCopyDataToQueue:0000000000000040 .L0 
C:\Users\kasie\AppData\Local\Temp\ccBtjLu5.s:99     .text.prvCopyDataToQueue:0000000000000040 .L0 
C:\Users\kasie\AppData\Local\Temp\ccBtjLu5.s:100    .text.prvCopyDataToQueue:0000000000000040 .L0 
C:\Users\kasie\AppData\Local\Temp\ccBtjLu5.s:102    .text.prvCopyDataToQueue:0000000000000042 .L0 
C:\Users\kasie\AppData\Local\Temp\ccBtjLu5.s:103    .text.prvCopyDataToQueue:0000000000000042 .L0 
C:\Users\kasie\AppData\Local\Temp\ccBtjLu5.s:107    .text.prvCopyDataToQueue:000000000000004c .L0 
C:\Users\kasie\AppData\Local\Temp\ccBtjLu5.s:108    .text.prvCopyDataToQueue:000000000000004c .L0 
C:\Users\kasie\AppData\Local\Temp\ccBtjLu5.s:112    .text.prvCopyDataToQueue:0000000000000052 .L0 
C:\Users\kasie\AppData\Local\Temp\ccBtjLu5.s:114    .text.prvCopyDataToQueue:0000000000000054 .L0 
C:\Users\kasie\AppData\Local\Temp\ccBtjLu5.s:116    .text.prvCopyDataToQueue:0000000000000056 .L0 
C:\Users\kasie\AppData\Local\Temp\ccBtjLu5.s:117    .text.prvCopyDataToQueue:0000000000000056 .L0 
C:\Users\kasie\AppData\Local\Temp\ccBtjLu5.s:119    .text.prvCopyDataToQueue:000000000000005a .L0 
C:\Users\kasie\AppData\Local\Temp\ccBtjLu5.s:120    .text.prvCopyDataToQueue:000000000000005a .L0 
C:\Users\kasie\AppData\Local\Temp\ccBtjLu5.s:126    .text.prvCopyDataToQueue:0000000000000060 .L0 
C:\Users\kasie\AppData\Local\Temp\ccBtjLu5.s:127    .text.prvCopyDataToQueue:0000000000000060 .L0 
C:\Users\kasie\AppData\Local\Temp\ccBtjLu5.s:131    .text.prvCopyDataToQueue:000000000000006a .L0 
GAS LISTING C:\Users\kasie\AppData\Local\Temp\ccBtjLu5.s 			page 117


C:\Users\kasie\AppData\Local\Temp\ccBtjLu5.s:132    .text.prvCopyDataToQueue:000000000000006a .L0 
C:\Users\kasie\AppData\Local\Temp\ccBtjLu5.s:135    .text.prvCopyDataToQueue:000000000000006e .L0 
C:\Users\kasie\AppData\Local\Temp\ccBtjLu5.s:137    .text.prvCopyDataToQueue:0000000000000070 .L0 
C:\Users\kasie\AppData\Local\Temp\ccBtjLu5.s:141    .text.prvCopyDataToQueue:0000000000000078 .L0 
C:\Users\kasie\AppData\Local\Temp\ccBtjLu5.s:142    .text.prvCopyDataToQueue:0000000000000078 .L0 
C:\Users\kasie\AppData\Local\Temp\ccBtjLu5.s:144    .text.prvCopyDataToQueue:000000000000007c .L0 
C:\Users\kasie\AppData\Local\Temp\ccBtjLu5.s:145    .text.prvCopyDataToQueue:000000000000007c .L0 
C:\Users\kasie\AppData\Local\Temp\ccBtjLu5.s:148    .text.prvCopyDataToQueue:0000000000000080 .L0 
C:\Users\kasie\AppData\Local\Temp\ccBtjLu5.s:151    .text.prvCopyDataToQueue:0000000000000082 .L0 
C:\Users\kasie\AppData\Local\Temp\ccBtjLu5.s:152    .text.prvCopyDataToQueue:0000000000000082 .L0 
C:\Users\kasie\AppData\Local\Temp\ccBtjLu5.s:153    .text.prvCopyDataToQueue:0000000000000082 .L0 
C:\Users\kasie\AppData\Local\Temp\ccBtjLu5.s:156    .text.prvCopyDataToQueue:0000000000000088 .L0 
C:\Users\kasie\AppData\Local\Temp\ccBtjLu5.s:157    .text.prvCopyDataToQueue:0000000000000088 .L0 
C:\Users\kasie\AppData\Local\Temp\ccBtjLu5.s:160    .text.prvCopyDataToQueue:000000000000008a .L0 
C:\Users\kasie\AppData\Local\Temp\ccBtjLu5.s:162    .text.prvCopyDataToQueue:000000000000008e .L0 
C:\Users\kasie\AppData\Local\Temp\ccBtjLu5.s:168    .text.prvCopyDataToQueue:0000000000000092 .L0 
C:\Users\kasie\AppData\Local\Temp\ccBtjLu5.s:171    .text.prvCopyDataToQueue:0000000000000096 .L0 
C:\Users\kasie\AppData\Local\Temp\ccBtjLu5.s:177    .text.prvCopyDataFromQueue:0000000000000000 prvCopyDataFromQueue
C:\Users\kasie\AppData\Local\Temp\ccBtjLu5.s:180    .text.prvCopyDataFromQueue:0000000000000000 .L0 
C:\Users\kasie\AppData\Local\Temp\ccBtjLu5.s:182    .text.prvCopyDataFromQueue:0000000000000000 .L0 
C:\Users\kasie\AppData\Local\Temp\ccBtjLu5.s:183    .text.prvCopyDataFromQueue:0000000000000000 .L0 
C:\Users\kasie\AppData\Local\Temp\ccBtjLu5.s:184    .text.prvCopyDataFromQueue:0000000000000000 .L0 
C:\Users\kasie\AppData\Local\Temp\ccBtjLu5.s:186    .text.prvCopyDataFromQueue:0000000000000002 .L0 
C:\Users\kasie\AppData\Local\Temp\ccBtjLu5.s:188    .text.prvCopyDataFromQueue:0000000000000004 .L0 
C:\Users\kasie\AppData\Local\Temp\ccBtjLu5.s:191    .text.prvCopyDataFromQueue:0000000000000006 .L0 
C:\Users\kasie\AppData\Local\Temp\ccBtjLu5.s:193    .text.prvCopyDataFromQueue:0000000000000008 .L0 
C:\Users\kasie\AppData\Local\Temp\ccBtjLu5.s:194    .text.prvCopyDataFromQueue:0000000000000008 .L0 
C:\Users\kasie\AppData\Local\Temp\ccBtjLu5.s:196    .text.prvCopyDataFromQueue:000000000000000a .L0 
C:\Users\kasie\AppData\Local\Temp\ccBtjLu5.s:198    .text.prvCopyDataFromQueue:000000000000000c .L0 
C:\Users\kasie\AppData\Local\Temp\ccBtjLu5.s:201    .text.prvCopyDataFromQueue:0000000000000010 .L0 
C:\Users\kasie\AppData\Local\Temp\ccBtjLu5.s:202    .text.prvCopyDataFromQueue:0000000000000010 .L0 
C:\Users\kasie\AppData\Local\Temp\ccBtjLu5.s:204    .text.prvCopyDataFromQueue:0000000000000014 .L0 
C:\Users\kasie\AppData\Local\Temp\ccBtjLu5.s:205    .text.prvCopyDataFromQueue:0000000000000014 .L0 
C:\Users\kasie\AppData\Local\Temp\ccBtjLu5.s:209    .text.prvCopyDataFromQueue:0000000000000018 .L0 
C:\Users\kasie\AppData\Local\Temp\ccBtjLu5.s:210    .text.prvCopyDataFromQueue:0000000000000018 .L0 
C:\Users\kasie\AppData\Local\Temp\ccBtjLu5.s:211    .text.prvCopyDataFromQueue:0000000000000018 .L0 
C:\Users\kasie\AppData\Local\Temp\ccBtjLu5.s:217    .text.prvCopyDataFromQueue:0000000000000022 .L0 
C:\Users\kasie\AppData\Local\Temp\ccBtjLu5.s:218    .text.prvCopyDataFromQueue:0000000000000024 .L0 
C:\Users\kasie\AppData\Local\Temp\ccBtjLu5.s:224    .text.prvUnlockQueue:0000000000000000 prvUnlockQueue
C:\Users\kasie\AppData\Local\Temp\ccBtjLu5.s:227    .text.prvUnlockQueue:0000000000000000 .L0 
C:\Users\kasie\AppData\Local\Temp\ccBtjLu5.s:229    .text.prvUnlockQueue:0000000000000000 .L0 
C:\Users\kasie\AppData\Local\Temp\ccBtjLu5.s:230    .text.prvUnlockQueue:0000000000000000 .L0 
C:\Users\kasie\AppData\Local\Temp\ccBtjLu5.s:231    .text.prvUnlockQueue:0000000000000000 .L0 
C:\Users\kasie\AppData\Local\Temp\ccBtjLu5.s:233    .text.prvUnlockQueue:0000000000000002 .L0 
C:\Users\kasie\AppData\Local\Temp\ccBtjLu5.s:235    .text.prvUnlockQueue:0000000000000004 .L0 
C:\Users\kasie\AppData\Local\Temp\ccBtjLu5.s:240    .text.prvUnlockQueue:000000000000000c .L0 
C:\Users\kasie\AppData\Local\Temp\ccBtjLu5.s:241    .text.prvUnlockQueue:000000000000000c .L0 
C:\Users\kasie\AppData\Local\Temp\ccBtjLu5.s:242    .text.prvUnlockQueue:000000000000000c .L0 
C:\Users\kasie\AppData\Local\Temp\ccBtjLu5.s:244    .text.prvUnlockQueue:000000000000000c .L0 
C:\Users\kasie\AppData\Local\Temp\ccBtjLu5.s:248    .text.prvUnlockQueue:0000000000000014 .L0 
C:\Users\kasie\AppData\Local\Temp\ccBtjLu5.s:249    .text.prvUnlockQueue:0000000000000014 .L0 
C:\Users\kasie\AppData\Local\Temp\ccBtjLu5.s:251    .text.prvUnlockQueue:0000000000000018 .L0 
C:\Users\kasie\AppData\Local\Temp\ccBtjLu5.s:253    .text.prvUnlockQueue:000000000000001c .L0 
C:\Users\kasie\AppData\Local\Temp\ccBtjLu5.s:258    .text.prvUnlockQueue:0000000000000020 .L0 
C:\Users\kasie\AppData\Local\Temp\ccBtjLu5.s:259    .text.prvUnlockQueue:0000000000000020 .L0 
C:\Users\kasie\AppData\Local\Temp\ccBtjLu5.s:262    .text.prvUnlockQueue:0000000000000024 .L0 
C:\Users\kasie\AppData\Local\Temp\ccBtjLu5.s:263    .text.prvUnlockQueue:0000000000000024 .L0 
GAS LISTING C:\Users\kasie\AppData\Local\Temp\ccBtjLu5.s 			page 118


C:\Users\kasie\AppData\Local\Temp\ccBtjLu5.s:267    .text.prvUnlockQueue:000000000000002a .L0 
C:\Users\kasie\AppData\Local\Temp\ccBtjLu5.s:270    .text.prvUnlockQueue:0000000000000032 .L0 
C:\Users\kasie\AppData\Local\Temp\ccBtjLu5.s:274    .text.prvUnlockQueue:000000000000003a .L0 
C:\Users\kasie\AppData\Local\Temp\ccBtjLu5.s:275    .text.prvUnlockQueue:000000000000003a .L0 
C:\Users\kasie\AppData\Local\Temp\ccBtjLu5.s:278    .text.prvUnlockQueue:000000000000003e .L0 
C:\Users\kasie\AppData\Local\Temp\ccBtjLu5.s:280    .text.prvUnlockQueue:0000000000000042 .L0 
C:\Users\kasie\AppData\Local\Temp\ccBtjLu5.s:285    .text.prvUnlockQueue:0000000000000046 .L0 
C:\Users\kasie\AppData\Local\Temp\ccBtjLu5.s:286    .text.prvUnlockQueue:0000000000000046 .L0 
C:\Users\kasie\AppData\Local\Temp\ccBtjLu5.s:289    .text.prvUnlockQueue:000000000000004a .L0 
C:\Users\kasie\AppData\Local\Temp\ccBtjLu5.s:290    .text.prvUnlockQueue:000000000000004a .L0 
C:\Users\kasie\AppData\Local\Temp\ccBtjLu5.s:294    .text.prvUnlockQueue:0000000000000050 .L0 
C:\Users\kasie\AppData\Local\Temp\ccBtjLu5.s:295    .text.prvUnlockQueue:0000000000000050 .L0 
C:\Users\kasie\AppData\Local\Temp\ccBtjLu5.s:296    .text.prvUnlockQueue:0000000000000052 .L0 
C:\Users\kasie\AppData\Local\Temp\ccBtjLu5.s:297    .text.prvUnlockQueue:0000000000000052 .L0 
C:\Users\kasie\AppData\Local\Temp\ccBtjLu5.s:300    .text.prvUnlockQueue:0000000000000054 .L0 
C:\Users\kasie\AppData\Local\Temp\ccBtjLu5.s:302    .text.prvUnlockQueue:0000000000000056 .L0 
C:\Users\kasie\AppData\Local\Temp\ccBtjLu5.s:305    .text.prvUnlockQueue:0000000000000058 .L0 
C:\Users\kasie\AppData\Local\Temp\ccBtjLu5.s:309    .text.prvUnlockQueue:000000000000005a .L0 
C:\Users\kasie\AppData\Local\Temp\ccBtjLu5.s:311    .text.prvUnlockQueue:000000000000005a .L0 
C:\Users\kasie\AppData\Local\Temp\ccBtjLu5.s:315    .text.prvUnlockQueue:0000000000000062 .L0 
C:\Users\kasie\AppData\Local\Temp\ccBtjLu5.s:318    .text.prvUnlockQueue:0000000000000062 .L0 
C:\Users\kasie\AppData\Local\Temp\ccBtjLu5.s:319    .text.prvUnlockQueue:0000000000000062 .L0 
C:\Users\kasie\AppData\Local\Temp\ccBtjLu5.s:322    .text.prvUnlockQueue:0000000000000066 .L0 
C:\Users\kasie\AppData\Local\Temp\ccBtjLu5.s:323    .text.prvUnlockQueue:0000000000000066 .L0 
C:\Users\kasie\AppData\Local\Temp\ccBtjLu5.s:327    .text.prvUnlockQueue:0000000000000070 .L0 
C:\Users\kasie\AppData\Local\Temp\ccBtjLu5.s:329    .text.prvUnlockQueue:0000000000000072 .L0 
C:\Users\kasie\AppData\Local\Temp\ccBtjLu5.s:333    .text.prvUnlockQueue:000000000000007a .L0 
C:\Users\kasie\AppData\Local\Temp\ccBtjLu5.s:334    .text.prvUnlockQueue:000000000000007a .L0 
C:\Users\kasie\AppData\Local\Temp\ccBtjLu5.s:345    .text.prvUnlockQueue:0000000000000082 .L0 
C:\Users\kasie\AppData\Local\Temp\ccBtjLu5.s:346    .text.prvUnlockQueue:0000000000000082 .L0 
C:\Users\kasie\AppData\Local\Temp\ccBtjLu5.s:349    .text.prvUnlockQueue:0000000000000086 .L0 
C:\Users\kasie\AppData\Local\Temp\ccBtjLu5.s:350    .text.prvUnlockQueue:0000000000000086 .L0 
C:\Users\kasie\AppData\Local\Temp\ccBtjLu5.s:354    .text.prvUnlockQueue:0000000000000090 .L0 
C:\Users\kasie\AppData\Local\Temp\ccBtjLu5.s:356    .text.prvUnlockQueue:0000000000000092 .L0 
C:\Users\kasie\AppData\Local\Temp\ccBtjLu5.s:360    .text.prvUnlockQueue:000000000000009a .L0 
C:\Users\kasie\AppData\Local\Temp\ccBtjLu5.s:361    .text.prvUnlockQueue:000000000000009a .L0 
C:\Users\kasie\AppData\Local\Temp\ccBtjLu5.s:368    .text.prvUnlockQueue:00000000000000a2 .L0 
C:\Users\kasie\AppData\Local\Temp\ccBtjLu5.s:375    .text.xQueueGenericReset:0000000000000000 xQueueGenericReset
C:\Users\kasie\AppData\Local\Temp\ccBtjLu5.s:378    .text.xQueueGenericReset:0000000000000000 .L0 
C:\Users\kasie\AppData\Local\Temp\ccBtjLu5.s:380    .text.xQueueGenericReset:0000000000000000 .L0 
C:\Users\kasie\AppData\Local\Temp\ccBtjLu5.s:381    .text.xQueueGenericReset:0000000000000000 .L0 
C:\Users\kasie\AppData\Local\Temp\ccBtjLu5.s:382    .text.xQueueGenericReset:0000000000000000 .L0 
C:\Users\kasie\AppData\Local\Temp\ccBtjLu5.s:385    .text.xQueueGenericReset:0000000000000002 .L0 
C:\Users\kasie\AppData\Local\Temp\ccBtjLu5.s:386    .text.xQueueGenericReset:0000000000000002 .L0 
C:\Users\kasie\AppData\Local\Temp\ccBtjLu5.s:387    .text.xQueueGenericReset:0000000000000002 .L0 
lib/freertos/src/queue.c:283    .text.xQueueGenericReset:0000000000000002 .L0 
C:\Users\kasie\AppData\Local\Temp\ccBtjLu5.s:397    .text.xQueueGenericReset:0000000000000006 .L0 
C:\Users\kasie\AppData\Local\Temp\ccBtjLu5.s:398    .text.xQueueGenericReset:0000000000000006 .L0 
C:\Users\kasie\AppData\Local\Temp\ccBtjLu5.s:399    .text.xQueueGenericReset:0000000000000006 .L0 
C:\Users\kasie\AppData\Local\Temp\ccBtjLu5.s:400    .text.xQueueGenericReset:0000000000000006 .L0 
C:\Users\kasie\AppData\Local\Temp\ccBtjLu5.s:403    .text.xQueueGenericReset:0000000000000008 .L0 
C:\Users\kasie\AppData\Local\Temp\ccBtjLu5.s:405    .text.xQueueGenericReset:000000000000000a .L0 
C:\Users\kasie\AppData\Local\Temp\ccBtjLu5.s:408    .text.xQueueGenericReset:000000000000000e .L0 
C:\Users\kasie\AppData\Local\Temp\ccBtjLu5.s:409    .text.xQueueGenericReset:000000000000000e .L0 
C:\Users\kasie\AppData\Local\Temp\ccBtjLu5.s:413    .text.xQueueGenericReset:0000000000000012 .L0 
C:\Users\kasie\AppData\Local\Temp\ccBtjLu5.s:419    .text.xQueueGenericReset:0000000000000014 .L0 
C:\Users\kasie\AppData\Local\Temp\ccBtjLu5.s:420    .text.xQueueGenericReset:0000000000000014 .L0 
GAS LISTING C:\Users\kasie\AppData\Local\Temp\ccBtjLu5.s 			page 119


C:\Users\kasie\AppData\Local\Temp\ccBtjLu5.s:423    .text.xQueueGenericReset:000000000000001c .L0 
C:\Users\kasie\AppData\Local\Temp\ccBtjLu5.s:424    .text.xQueueGenericReset:000000000000001c .L0 
C:\Users\kasie\AppData\Local\Temp\ccBtjLu5.s:426    .text.xQueueGenericReset:000000000000001e .L0 
C:\Users\kasie\AppData\Local\Temp\ccBtjLu5.s:428    .text.xQueueGenericReset:0000000000000020 .L0 
C:\Users\kasie\AppData\Local\Temp\ccBtjLu5.s:430    .text.xQueueGenericReset:0000000000000022 .L0 
C:\Users\kasie\AppData\Local\Temp\ccBtjLu5.s:432    .text.xQueueGenericReset:0000000000000026 .L0 
C:\Users\kasie\AppData\Local\Temp\ccBtjLu5.s:434    .text.xQueueGenericReset:000000000000002a .L0 
C:\Users\kasie\AppData\Local\Temp\ccBtjLu5.s:436    .text.xQueueGenericReset:000000000000002c .L0 
C:\Users\kasie\AppData\Local\Temp\ccBtjLu5.s:438    .text.xQueueGenericReset:0000000000000030 .L0 
C:\Users\kasie\AppData\Local\Temp\ccBtjLu5.s:441    .text.xQueueGenericReset:0000000000000034 .L0 
C:\Users\kasie\AppData\Local\Temp\ccBtjLu5.s:443    .text.xQueueGenericReset:0000000000000036 .L0 
C:\Users\kasie\AppData\Local\Temp\ccBtjLu5.s:446    .text.xQueueGenericReset:000000000000003c .L0 
C:\Users\kasie\AppData\Local\Temp\ccBtjLu5.s:448    .text.xQueueGenericReset:000000000000003e .L0 
C:\Users\kasie\AppData\Local\Temp\ccBtjLu5.s:449    .text.xQueueGenericReset:000000000000003e .L0 
C:\Users\kasie\AppData\Local\Temp\ccBtjLu5.s:450    .text.xQueueGenericReset:000000000000003e .L0 
C:\Users\kasie\AppData\Local\Temp\ccBtjLu5.s:451    .text.xQueueGenericReset:000000000000003e .L0 
C:\Users\kasie\AppData\Local\Temp\ccBtjLu5.s:452    .text.xQueueGenericReset:000000000000003e .L0 
C:\Users\kasie\AppData\Local\Temp\ccBtjLu5.s:453    .text.xQueueGenericReset:000000000000003e .L0 
C:\Users\kasie\AppData\Local\Temp\ccBtjLu5.s:455    .text.xQueueGenericReset:0000000000000042 .L0 
C:\Users\kasie\AppData\Local\Temp\ccBtjLu5.s:456    .text.xQueueGenericReset:0000000000000042 .L0 
C:\Users\kasie\AppData\Local\Temp\ccBtjLu5.s:458    .text.xQueueGenericReset:0000000000000044 .L0 
C:\Users\kasie\AppData\Local\Temp\ccBtjLu5.s:459    .text.xQueueGenericReset:0000000000000044 .L0 
C:\Users\kasie\AppData\Local\Temp\ccBtjLu5.s:462    .text.xQueueGenericReset:0000000000000048 .L0 
C:\Users\kasie\AppData\Local\Temp\ccBtjLu5.s:463    .text.xQueueGenericReset:0000000000000048 .L0 
C:\Users\kasie\AppData\Local\Temp\ccBtjLu5.s:467    .text.xQueueGenericReset:0000000000000054 .L0 
C:\Users\kasie\AppData\Local\Temp\ccBtjLu5.s:470    .text.xQueueGenericReset:0000000000000056 .L0 
C:\Users\kasie\AppData\Local\Temp\ccBtjLu5.s:471    .text.xQueueGenericReset:0000000000000056 .L0 
lib/freertos/src/queue.c:305    .text.xQueueGenericReset:000000000000005a .L0 
C:\Users\kasie\AppData\Local\Temp\ccBtjLu5.s:480    .text.xQueueGenericReset:000000000000005e .L0 
C:\Users\kasie\AppData\Local\Temp\ccBtjLu5.s:482    .text.xQueueGenericReset:000000000000005e .L0 
C:\Users\kasie\AppData\Local\Temp\ccBtjLu5.s:483    .text.xQueueGenericReset:000000000000005e .L0 
C:\Users\kasie\AppData\Local\Temp\ccBtjLu5.s:488    .text.xQueueGenericReset:0000000000000066 .L0 
C:\Users\kasie\AppData\Local\Temp\ccBtjLu5.s:489    .text.xQueueGenericReset:0000000000000066 .L0 
C:\Users\kasie\AppData\Local\Temp\ccBtjLu5.s:490    .text.xQueueGenericReset:0000000000000068 .L0 
C:\Users\kasie\AppData\Local\Temp\ccBtjLu5.s:491    .text.xQueueGenericReset:0000000000000068 .L0 
C:\Users\kasie\AppData\Local\Temp\ccBtjLu5.s:493    .text.xQueueGenericReset:000000000000006a .L0 
C:\Users\kasie\AppData\Local\Temp\ccBtjLu5.s:496    .text.xQueueGenericReset:000000000000006c .L0 
C:\Users\kasie\AppData\Local\Temp\ccBtjLu5.s:501    .text.xQueueGenericReset:0000000000000070 .L0 
C:\Users\kasie\AppData\Local\Temp\ccBtjLu5.s:506    .text.xQueueGenericReset:0000000000000072 .L0 
C:\Users\kasie\AppData\Local\Temp\ccBtjLu5.s:510    .text.xQueueGenericReset:0000000000000072 .L0 
C:\Users\kasie\AppData\Local\Temp\ccBtjLu5.s:514    .text.xQueueGenericReset:000000000000007e .L0 
C:\Users\kasie\AppData\Local\Temp\ccBtjLu5.s:520    .text.xQueueGenericReset:000000000000008c .L0 
C:\Users\kasie\AppData\Local\Temp\ccBtjLu5.s:527    .text.xQueueGenericCreate:0000000000000000 xQueueGenericCreate
C:\Users\kasie\AppData\Local\Temp\ccBtjLu5.s:530    .text.xQueueGenericCreate:0000000000000000 .L0 
C:\Users\kasie\AppData\Local\Temp\ccBtjLu5.s:532    .text.xQueueGenericCreate:0000000000000000 .L0 
C:\Users\kasie\AppData\Local\Temp\ccBtjLu5.s:533    .text.xQueueGenericCreate:0000000000000000 .L0 
C:\Users\kasie\AppData\Local\Temp\ccBtjLu5.s:534    .text.xQueueGenericCreate:0000000000000000 .L0 
C:\Users\kasie\AppData\Local\Temp\ccBtjLu5.s:535    .text.xQueueGenericCreate:0000000000000000 .L0 
C:\Users\kasie\AppData\Local\Temp\ccBtjLu5.s:536    .text.xQueueGenericCreate:0000000000000000 .L0 
C:\Users\kasie\AppData\Local\Temp\ccBtjLu5.s:539    .text.xQueueGenericCreate:0000000000000002 .L0 
C:\Users\kasie\AppData\Local\Temp\ccBtjLu5.s:540    .text.xQueueGenericCreate:0000000000000002 .L0 
C:\Users\kasie\AppData\Local\Temp\ccBtjLu5.s:541    .text.xQueueGenericCreate:0000000000000002 .L0 
lib/freertos/src/queue.c:392    .text.xQueueGenericCreate:0000000000000002 .L0 
C:\Users\kasie\AppData\Local\Temp\ccBtjLu5.s:551    .text.xQueueGenericCreate:0000000000000006 .L0 
C:\Users\kasie\AppData\Local\Temp\ccBtjLu5.s:552    .text.xQueueGenericCreate:0000000000000006 .L0 
C:\Users\kasie\AppData\Local\Temp\ccBtjLu5.s:553    .text.xQueueGenericCreate:0000000000000006 .L0 
C:\Users\kasie\AppData\Local\Temp\ccBtjLu5.s:554    .text.xQueueGenericCreate:0000000000000006 .L0 
GAS LISTING C:\Users\kasie\AppData\Local\Temp\ccBtjLu5.s 			page 120


C:\Users\kasie\AppData\Local\Temp\ccBtjLu5.s:557    .text.xQueueGenericCreate:0000000000000008 .L0 
C:\Users\kasie\AppData\Local\Temp\ccBtjLu5.s:559    .text.xQueueGenericCreate:000000000000000a .L0 
C:\Users\kasie\AppData\Local\Temp\ccBtjLu5.s:561    .text.xQueueGenericCreate:000000000000000c .L0 
C:\Users\kasie\AppData\Local\Temp\ccBtjLu5.s:567    .text.xQueueGenericCreate:000000000000000e .L0 
C:\Users\kasie\AppData\Local\Temp\ccBtjLu5.s:572    .text.xQueueGenericCreate:0000000000000012 .L0 
C:\Users\kasie\AppData\Local\Temp\ccBtjLu5.s:576    .text.xQueueGenericCreate:000000000000001a .L0 
C:\Users\kasie\AppData\Local\Temp\ccBtjLu5.s:577    .text.xQueueGenericCreate:000000000000001a .L0 
C:\Users\kasie\AppData\Local\Temp\ccBtjLu5.s:578    .text.xQueueGenericCreate:000000000000001a .L0 
C:\Users\kasie\AppData\Local\Temp\ccBtjLu5.s:579    .text.xQueueGenericCreate:000000000000001a .L0 
C:\Users\kasie\AppData\Local\Temp\ccBtjLu5.s:585    .text.xQueueGenericCreate:000000000000001c .L0 
C:\Users\kasie\AppData\Local\Temp\ccBtjLu5.s:586    .text.xQueueGenericCreate:000000000000001c .L0 
C:\Users\kasie\AppData\Local\Temp\ccBtjLu5.s:587    .text.xQueueGenericCreate:000000000000001c .L0 
C:\Users\kasie\AppData\Local\Temp\ccBtjLu5.s:589    .text.xQueueGenericCreate:000000000000001e .L0 
C:\Users\kasie\AppData\Local\Temp\ccBtjLu5.s:595    .text.xQueueGenericCreate:000000000000002c .L0 
C:\Users\kasie\AppData\Local\Temp\ccBtjLu5.s:596    .text.xQueueGenericCreate:000000000000002c .L0 
C:\Users\kasie\AppData\Local\Temp\ccBtjLu5.s:599    .text.xQueueGenericCreate:000000000000002e .L0 
C:\Users\kasie\AppData\Local\Temp\ccBtjLu5.s:602    .text.xQueueGenericCreate:000000000000002e .L0 
C:\Users\kasie\AppData\Local\Temp\ccBtjLu5.s:603    .text.xQueueGenericCreate:000000000000002e .L0 
C:\Users\kasie\AppData\Local\Temp\ccBtjLu5.s:604    .text.xQueueGenericCreate:000000000000002e .L0 
C:\Users\kasie\AppData\Local\Temp\ccBtjLu5.s:605    .text.xQueueGenericCreate:000000000000002e .L0 
C:\Users\kasie\AppData\Local\Temp\ccBtjLu5.s:610    .text.xQueueGenericCreate:0000000000000032 .L0 
C:\Users\kasie\AppData\Local\Temp\ccBtjLu5.s:616    .text.xQueueGenericCreate:0000000000000036 .L0 
C:\Users\kasie\AppData\Local\Temp\ccBtjLu5.s:618    .text.xQueueGenericCreate:0000000000000038 .L0 
C:\Users\kasie\AppData\Local\Temp\ccBtjLu5.s:619    .text.xQueueGenericCreate:0000000000000038 .L0 
C:\Users\kasie\AppData\Local\Temp\ccBtjLu5.s:621    .text.xQueueGenericCreate:000000000000003c .L0 
C:\Users\kasie\AppData\Local\Temp\ccBtjLu5.s:622    .text.xQueueGenericCreate:000000000000003c .L0 
C:\Users\kasie\AppData\Local\Temp\ccBtjLu5.s:624    .text.xQueueGenericCreate:000000000000003e .L0 
C:\Users\kasie\AppData\Local\Temp\ccBtjLu5.s:625    .text.xQueueGenericCreate:000000000000003e .L0 
C:\Users\kasie\AppData\Local\Temp\ccBtjLu5.s:630    .text.xQueueGenericCreate:000000000000004a .L0 
C:\Users\kasie\AppData\Local\Temp\ccBtjLu5.s:631    .text.xQueueGenericCreate:000000000000004a .L0 
C:\Users\kasie\AppData\Local\Temp\ccBtjLu5.s:635    .text.xQueueGenericCreate:000000000000004e .L0 
C:\Users\kasie\AppData\Local\Temp\ccBtjLu5.s:639    .text.xQueueGenericCreate:000000000000004e .L0 
C:\Users\kasie\AppData\Local\Temp\ccBtjLu5.s:641    .text.xQueueGenericCreate:000000000000004e .L0 
C:\Users\kasie\AppData\Local\Temp\ccBtjLu5.s:642    .text.xQueueGenericCreate:000000000000004e .L0 
C:\Users\kasie\AppData\Local\Temp\ccBtjLu5.s:644    .text.xQueueGenericCreate:0000000000000052 .L0 
C:\Users\kasie\AppData\Local\Temp\ccBtjLu5.s:646    .text.xQueueGenericCreate:0000000000000054 .L0 
C:\Users\kasie\AppData\Local\Temp\ccBtjLu5.s:648    .text.xQueueGenericCreate:0000000000000056 .L0 
C:\Users\kasie\AppData\Local\Temp\ccBtjLu5.s:651    .text.xQueueGenericCreate:0000000000000058 .L0 
C:\Users\kasie\AppData\Local\Temp\ccBtjLu5.s:654    .text.xQueueGenericCreate:000000000000005a .L0 
C:\Users\kasie\AppData\Local\Temp\ccBtjLu5.s:657    .text.xQueueGenericCreate:000000000000005c .L0 
C:\Users\kasie\AppData\Local\Temp\ccBtjLu5.s:659    .text.xQueueGenericCreate:000000000000005e .L0 
C:\Users\kasie\AppData\Local\Temp\ccBtjLu5.s:666    .text.xQueueCreateCountingSemaphore:0000000000000000 xQueueCreateCountingSemaphore
C:\Users\kasie\AppData\Local\Temp\ccBtjLu5.s:669    .text.xQueueCreateCountingSemaphore:0000000000000000 .L0 
C:\Users\kasie\AppData\Local\Temp\ccBtjLu5.s:671    .text.xQueueCreateCountingSemaphore:0000000000000000 .L0 
C:\Users\kasie\AppData\Local\Temp\ccBtjLu5.s:672    .text.xQueueCreateCountingSemaphore:0000000000000000 .L0 
C:\Users\kasie\AppData\Local\Temp\ccBtjLu5.s:673    .text.xQueueCreateCountingSemaphore:0000000000000000 .L0 
C:\Users\kasie\AppData\Local\Temp\ccBtjLu5.s:676    .text.xQueueCreateCountingSemaphore:0000000000000002 .L0 
C:\Users\kasie\AppData\Local\Temp\ccBtjLu5.s:677    .text.xQueueCreateCountingSemaphore:0000000000000002 .L0 
C:\Users\kasie\AppData\Local\Temp\ccBtjLu5.s:678    .text.xQueueCreateCountingSemaphore:0000000000000002 .L0 
lib/freertos/src/queue.c:701    .text.xQueueCreateCountingSemaphore:0000000000000002 .L0 
C:\Users\kasie\AppData\Local\Temp\ccBtjLu5.s:688    .text.xQueueCreateCountingSemaphore:0000000000000006 .L0 
C:\Users\kasie\AppData\Local\Temp\ccBtjLu5.s:689    .text.xQueueCreateCountingSemaphore:0000000000000006 .L0 
C:\Users\kasie\AppData\Local\Temp\ccBtjLu5.s:690    .text.xQueueCreateCountingSemaphore:0000000000000006 .L0 
C:\Users\kasie\AppData\Local\Temp\ccBtjLu5.s:691    .text.xQueueCreateCountingSemaphore:0000000000000006 .L0 
C:\Users\kasie\AppData\Local\Temp\ccBtjLu5.s:694    .text.xQueueCreateCountingSemaphore:0000000000000008 .L0 
C:\Users\kasie\AppData\Local\Temp\ccBtjLu5.s:695    .text.xQueueCreateCountingSemaphore:0000000000000008 .L0 
C:\Users\kasie\AppData\Local\Temp\ccBtjLu5.s:698    .text.xQueueCreateCountingSemaphore:000000000000000c .L0 
GAS LISTING C:\Users\kasie\AppData\Local\Temp\ccBtjLu5.s 			page 121


C:\Users\kasie\AppData\Local\Temp\ccBtjLu5.s:699    .text.xQueueCreateCountingSemaphore:000000000000000c .L0 
C:\Users\kasie\AppData\Local\Temp\ccBtjLu5.s:700    .text.xQueueCreateCountingSemaphore:000000000000000c .L0 
lib/freertos/src/queue.c:702    .text.xQueueCreateCountingSemaphore:000000000000000c .L0 
C:\Users\kasie\AppData\Local\Temp\ccBtjLu5.s:710    .text.xQueueCreateCountingSemaphore:0000000000000010 .L0 
C:\Users\kasie\AppData\Local\Temp\ccBtjLu5.s:711    .text.xQueueCreateCountingSemaphore:0000000000000010 .L0 
C:\Users\kasie\AppData\Local\Temp\ccBtjLu5.s:712    .text.xQueueCreateCountingSemaphore:0000000000000010 .L0 
C:\Users\kasie\AppData\Local\Temp\ccBtjLu5.s:713    .text.xQueueCreateCountingSemaphore:0000000000000010 .L0 
C:\Users\kasie\AppData\Local\Temp\ccBtjLu5.s:716    .text.xQueueCreateCountingSemaphore:0000000000000012 .L0 
C:\Users\kasie\AppData\Local\Temp\ccBtjLu5.s:718    .text.xQueueCreateCountingSemaphore:0000000000000014 .L0 
C:\Users\kasie\AppData\Local\Temp\ccBtjLu5.s:721    .text.xQueueCreateCountingSemaphore:0000000000000016 .L0 
C:\Users\kasie\AppData\Local\Temp\ccBtjLu5.s:722    .text.xQueueCreateCountingSemaphore:0000000000000018 .L0 
C:\Users\kasie\AppData\Local\Temp\ccBtjLu5.s:725    .text.xQueueCreateCountingSemaphore:000000000000001a .L0 
C:\Users\kasie\AppData\Local\Temp\ccBtjLu5.s:726    .text.xQueueCreateCountingSemaphore:000000000000001a .L0 
C:\Users\kasie\AppData\Local\Temp\ccBtjLu5.s:727    .text.xQueueCreateCountingSemaphore:000000000000001a .L0 
C:\Users\kasie\AppData\Local\Temp\ccBtjLu5.s:730    .text.xQueueCreateCountingSemaphore:000000000000001c .L0 
C:\Users\kasie\AppData\Local\Temp\ccBtjLu5.s:731    .text.xQueueCreateCountingSemaphore:000000000000001e .L0 
C:\Users\kasie\AppData\Local\Temp\ccBtjLu5.s:733    .text.xQueueCreateCountingSemaphore:000000000000001e .L0 
C:\Users\kasie\AppData\Local\Temp\ccBtjLu5.s:736    .text.xQueueCreateCountingSemaphore:0000000000000026 .L0 
C:\Users\kasie\AppData\Local\Temp\ccBtjLu5.s:737    .text.xQueueCreateCountingSemaphore:0000000000000026 .L0 
C:\Users\kasie\AppData\Local\Temp\ccBtjLu5.s:739    .text.xQueueCreateCountingSemaphore:0000000000000028 .L0 
C:\Users\kasie\AppData\Local\Temp\ccBtjLu5.s:740    .text.xQueueCreateCountingSemaphore:0000000000000028 .L0 
C:\Users\kasie\AppData\Local\Temp\ccBtjLu5.s:742    .text.xQueueCreateCountingSemaphore:000000000000002a .L0 
C:\Users\kasie\AppData\Local\Temp\ccBtjLu5.s:743    .text.xQueueCreateCountingSemaphore:000000000000002a .L0 
C:\Users\kasie\AppData\Local\Temp\ccBtjLu5.s:745    .text.xQueueCreateCountingSemaphore:000000000000002a .L0 
C:\Users\kasie\AppData\Local\Temp\ccBtjLu5.s:746    .text.xQueueCreateCountingSemaphore:000000000000002a .L0 
C:\Users\kasie\AppData\Local\Temp\ccBtjLu5.s:747    .text.xQueueCreateCountingSemaphore:000000000000002c .L0 
C:\Users\kasie\AppData\Local\Temp\ccBtjLu5.s:749    .text.xQueueCreateCountingSemaphore:000000000000002e .L0 
C:\Users\kasie\AppData\Local\Temp\ccBtjLu5.s:753    .text.xQueueCreateCountingSemaphore:0000000000000030 .L0 
C:\Users\kasie\AppData\Local\Temp\ccBtjLu5.s:755    .text.xQueueCreateCountingSemaphore:0000000000000032 .L0 
C:\Users\kasie\AppData\Local\Temp\ccBtjLu5.s:762    .text.xQueueGenericSend:0000000000000000 xQueueGenericSend
C:\Users\kasie\AppData\Local\Temp\ccBtjLu5.s:765    .text.xQueueGenericSend:0000000000000000 .L0 
C:\Users\kasie\AppData\Local\Temp\ccBtjLu5.s:767    .text.xQueueGenericSend:0000000000000000 .L0 
C:\Users\kasie\AppData\Local\Temp\ccBtjLu5.s:768    .text.xQueueGenericSend:0000000000000000 .L0 
C:\Users\kasie\AppData\Local\Temp\ccBtjLu5.s:769    .text.xQueueGenericSend:0000000000000000 .L0 
C:\Users\kasie\AppData\Local\Temp\ccBtjLu5.s:770    .text.xQueueGenericSend:0000000000000000 .L0 
C:\Users\kasie\AppData\Local\Temp\ccBtjLu5.s:771    .text.xQueueGenericSend:0000000000000000 .L0 
C:\Users\kasie\AppData\Local\Temp\ccBtjLu5.s:772    .text.xQueueGenericSend:0000000000000000 .L0 
C:\Users\kasie\AppData\Local\Temp\ccBtjLu5.s:774    .text.xQueueGenericSend:0000000000000002 .L0 
C:\Users\kasie\AppData\Local\Temp\ccBtjLu5.s:782    .text.xQueueGenericSend:0000000000000010 .L0 
C:\Users\kasie\AppData\Local\Temp\ccBtjLu5.s:783    .text.xQueueGenericSend:0000000000000010 .L0 
C:\Users\kasie\AppData\Local\Temp\ccBtjLu5.s:784    .text.xQueueGenericSend:0000000000000010 .L0 
C:\Users\kasie\AppData\Local\Temp\ccBtjLu5.s:785    .text.xQueueGenericSend:0000000000000010 .L0 
C:\Users\kasie\AppData\Local\Temp\ccBtjLu5.s:786    .text.xQueueGenericSend:0000000000000010 .L0 
C:\Users\kasie\AppData\Local\Temp\ccBtjLu5.s:787    .text.xQueueGenericSend:0000000000000010 .L0 
C:\Users\kasie\AppData\Local\Temp\ccBtjLu5.s:788    .text.xQueueGenericSend:0000000000000010 .L0 
C:\Users\kasie\AppData\Local\Temp\ccBtjLu5.s:790    .text.xQueueGenericSend:0000000000000010 .L0 
C:\Users\kasie\AppData\Local\Temp\ccBtjLu5.s:792    .text.xQueueGenericSend:0000000000000012 .L0 
C:\Users\kasie\AppData\Local\Temp\ccBtjLu5.s:795    .text.xQueueGenericSend:0000000000000014 .L0 
C:\Users\kasie\AppData\Local\Temp\ccBtjLu5.s:796    .text.xQueueGenericSend:0000000000000014 .L0 
C:\Users\kasie\AppData\Local\Temp\ccBtjLu5.s:797    .text.xQueueGenericSend:0000000000000014 .L0 
lib/freertos/src/queue.c:729    .text.xQueueGenericSend:0000000000000014 .L0 
C:\Users\kasie\AppData\Local\Temp\ccBtjLu5.s:807    .text.xQueueGenericSend:0000000000000018 .L0 
C:\Users\kasie\AppData\Local\Temp\ccBtjLu5.s:808    .text.xQueueGenericSend:0000000000000018 .L0 
C:\Users\kasie\AppData\Local\Temp\ccBtjLu5.s:809    .text.xQueueGenericSend:0000000000000018 .L0 
C:\Users\kasie\AppData\Local\Temp\ccBtjLu5.s:810    .text.xQueueGenericSend:0000000000000018 .L0 
C:\Users\kasie\AppData\Local\Temp\ccBtjLu5.s:813    .text.xQueueGenericSend:000000000000001a .L0 
C:\Users\kasie\AppData\Local\Temp\ccBtjLu5.s:814    .text.xQueueGenericSend:000000000000001a .L0 
GAS LISTING C:\Users\kasie\AppData\Local\Temp\ccBtjLu5.s 			page 122


C:\Users\kasie\AppData\Local\Temp\ccBtjLu5.s:819    .text.xQueueGenericSend:0000000000000020 .L0 
C:\Users\kasie\AppData\Local\Temp\ccBtjLu5.s:820    .text.xQueueGenericSend:0000000000000020 .L0 
C:\Users\kasie\AppData\Local\Temp\ccBtjLu5.s:821    .text.xQueueGenericSend:0000000000000020 .L0 
lib/freertos/src/queue.c:730    .text.xQueueGenericSend:0000000000000020 .L0 
C:\Users\kasie\AppData\Local\Temp\ccBtjLu5.s:831    .text.xQueueGenericSend:0000000000000024 .L0 
C:\Users\kasie\AppData\Local\Temp\ccBtjLu5.s:832    .text.xQueueGenericSend:0000000000000024 .L0 
C:\Users\kasie\AppData\Local\Temp\ccBtjLu5.s:833    .text.xQueueGenericSend:0000000000000024 .L0 
C:\Users\kasie\AppData\Local\Temp\ccBtjLu5.s:834    .text.xQueueGenericSend:0000000000000024 .L0 
C:\Users\kasie\AppData\Local\Temp\ccBtjLu5.s:837    .text.xQueueGenericSend:0000000000000026 .L0 
C:\Users\kasie\AppData\Local\Temp\ccBtjLu5.s:838    .text.xQueueGenericSend:0000000000000026 .L0 
C:\Users\kasie\AppData\Local\Temp\ccBtjLu5.s:841    .text.xQueueGenericSend:000000000000002c .L0 
C:\Users\kasie\AppData\Local\Temp\ccBtjLu5.s:846    .text.xQueueGenericSend:0000000000000034 .L0 
C:\Users\kasie\AppData\Local\Temp\ccBtjLu5.s:847    .text.xQueueGenericSend:0000000000000034 .L0 
C:\Users\kasie\AppData\Local\Temp\ccBtjLu5.s:848    .text.xQueueGenericSend:0000000000000034 .L0 
lib/freertos/src/queue.c:731    .text.xQueueGenericSend:0000000000000034 .L0 
C:\Users\kasie\AppData\Local\Temp\ccBtjLu5.s:858    .text.xQueueGenericSend:0000000000000038 .L0 
C:\Users\kasie\AppData\Local\Temp\ccBtjLu5.s:859    .text.xQueueGenericSend:0000000000000038 .L0 
C:\Users\kasie\AppData\Local\Temp\ccBtjLu5.s:860    .text.xQueueGenericSend:0000000000000038 .L0 
C:\Users\kasie\AppData\Local\Temp\ccBtjLu5.s:861    .text.xQueueGenericSend:0000000000000038 .L0 
C:\Users\kasie\AppData\Local\Temp\ccBtjLu5.s:867    .text.xQueueGenericSend:0000000000000040 .L0 
C:\Users\kasie\AppData\Local\Temp\ccBtjLu5.s:868    .text.xQueueGenericSend:0000000000000040 .L0 
C:\Users\kasie\AppData\Local\Temp\ccBtjLu5.s:872    .text.xQueueGenericSend:000000000000004a .L0 
C:\Users\kasie\AppData\Local\Temp\ccBtjLu5.s:876    .text.xQueueGenericSend:000000000000004e .L0 
C:\Users\kasie\AppData\Local\Temp\ccBtjLu5.s:877    .text.xQueueGenericSend:000000000000004e .L0 
C:\Users\kasie\AppData\Local\Temp\ccBtjLu5.s:878    .text.xQueueGenericSend:000000000000004e .L0 
lib/freertos/src/queue.c:734    .text.xQueueGenericSend:000000000000004e .L0 
C:\Users\kasie\AppData\Local\Temp\ccBtjLu5.s:888    .text.xQueueGenericSend:0000000000000052 .L0 
C:\Users\kasie\AppData\Local\Temp\ccBtjLu5.s:889    .text.xQueueGenericSend:0000000000000052 .L0 
C:\Users\kasie\AppData\Local\Temp\ccBtjLu5.s:890    .text.xQueueGenericSend:0000000000000052 .L0 
C:\Users\kasie\AppData\Local\Temp\ccBtjLu5.s:891    .text.xQueueGenericSend:0000000000000052 .L0 
C:\Users\kasie\AppData\Local\Temp\ccBtjLu5.s:896    .text.xQueueGenericSend:0000000000000056 .L0 
C:\Users\kasie\AppData\Local\Temp\ccBtjLu5.s:898    .text.xQueueGenericSend:0000000000000058 .L0 
C:\Users\kasie\AppData\Local\Temp\ccBtjLu5.s:900    .text.xQueueGenericSend:000000000000005a .L0 
C:\Users\kasie\AppData\Local\Temp\ccBtjLu5.s:905    .text.xQueueGenericSend:0000000000000060 .L0 
C:\Users\kasie\AppData\Local\Temp\ccBtjLu5.s:906    .text.xQueueGenericSend:0000000000000060 .L0 
C:\Users\kasie\AppData\Local\Temp\ccBtjLu5.s:909    .text.xQueueGenericSend:0000000000000064 .L0 
C:\Users\kasie\AppData\Local\Temp\ccBtjLu5.s:912    .text.xQueueGenericSend:000000000000006c .L0 
C:\Users\kasie\AppData\Local\Temp\ccBtjLu5.s:914    .text.xQueueGenericSend:000000000000006c .L0 
C:\Users\kasie\AppData\Local\Temp\ccBtjLu5.s:915    .text.xQueueGenericSend:000000000000006c .L0 
C:\Users\kasie\AppData\Local\Temp\ccBtjLu5.s:916    .text.xQueueGenericSend:000000000000006c .L0 
C:\Users\kasie\AppData\Local\Temp\ccBtjLu5.s:917    .text.xQueueGenericSend:000000000000006c .L0 
C:\Users\kasie\AppData\Local\Temp\ccBtjLu5.s:922    .text.xQueueGenericSend:0000000000000070 .L0 
C:\Users\kasie\AppData\Local\Temp\ccBtjLu5.s:923    .text.xQueueGenericSend:0000000000000070 .L0 
C:\Users\kasie\AppData\Local\Temp\ccBtjLu5.s:925    .text.xQueueGenericSend:0000000000000072 .L0 
C:\Users\kasie\AppData\Local\Temp\ccBtjLu5.s:930    .text.xQueueGenericSend:000000000000007c .L0 
C:\Users\kasie\AppData\Local\Temp\ccBtjLu5.s:931    .text.xQueueGenericSend:000000000000007c .L0 
C:\Users\kasie\AppData\Local\Temp\ccBtjLu5.s:932    .text.xQueueGenericSend:000000000000007c .L0 
C:\Users\kasie\AppData\Local\Temp\ccBtjLu5.s:935    .text.xQueueGenericSend:0000000000000084 .L0 
C:\Users\kasie\AppData\Local\Temp\ccBtjLu5.s:938    .text.xQueueGenericSend:000000000000008c .L0 
C:\Users\kasie\AppData\Local\Temp\ccBtjLu5.s:941    .text.xQueueGenericSend:0000000000000094 .L0 
C:\Users\kasie\AppData\Local\Temp\ccBtjLu5.s:946    .text.xQueueGenericSend:00000000000000a0 .L0 
C:\Users\kasie\AppData\Local\Temp\ccBtjLu5.s:949    .text.xQueueGenericSend:00000000000000a4 .L0 
C:\Users\kasie\AppData\Local\Temp\ccBtjLu5.s:954    .text.xQueueGenericSend:00000000000000b0 .L0 
C:\Users\kasie\AppData\Local\Temp\ccBtjLu5.s:957    .text.xQueueGenericSend:00000000000000b4 .L0 
C:\Users\kasie\AppData\Local\Temp\ccBtjLu5.s:960    .text.xQueueGenericSend:00000000000000bc .L0 
C:\Users\kasie\AppData\Local\Temp\ccBtjLu5.s:961    .text.xQueueGenericSend:00000000000000bc .L0 
C:\Users\kasie\AppData\Local\Temp\ccBtjLu5.s:966    .text.xQueueGenericSend:00000000000000c8 .L0 
GAS LISTING C:\Users\kasie\AppData\Local\Temp\ccBtjLu5.s 			page 123


C:\Users\kasie\AppData\Local\Temp\ccBtjLu5.s:971    .text.xQueueGenericSend:00000000000000ca .L0 
C:\Users\kasie\AppData\Local\Temp\ccBtjLu5.s:972    .text.xQueueGenericSend:00000000000000ca .L0 
C:\Users\kasie\AppData\Local\Temp\ccBtjLu5.s:973    .text.xQueueGenericSend:00000000000000ca .L0 
C:\Users\kasie\AppData\Local\Temp\ccBtjLu5.s:976    .text.xQueueGenericSend:00000000000000d2 .L0 
C:\Users\kasie\AppData\Local\Temp\ccBtjLu5.s:977    .text.xQueueGenericSend:00000000000000d2 .L0 
C:\Users\kasie\AppData\Local\Temp\ccBtjLu5.s:979    .text.xQueueGenericSend:00000000000000d4 .L0 
C:\Users\kasie\AppData\Local\Temp\ccBtjLu5.s:983    .text.xQueueGenericSend:00000000000000da .L0 
C:\Users\kasie\AppData\Local\Temp\ccBtjLu5.s:988    .text.xQueueGenericSend:00000000000000e2 .L0 
C:\Users\kasie\AppData\Local\Temp\ccBtjLu5.s:989    .text.xQueueGenericSend:00000000000000e2 .L0 
C:\Users\kasie\AppData\Local\Temp\ccBtjLu5.s:990    .text.xQueueGenericSend:00000000000000e2 .L0 
C:\Users\kasie\AppData\Local\Temp\ccBtjLu5.s:995    .text.xQueueGenericSend:00000000000000ee .L0 
C:\Users\kasie\AppData\Local\Temp\ccBtjLu5.s:999    .text.xQueueGenericSend:00000000000000f8 .L0 
C:\Users\kasie\AppData\Local\Temp\ccBtjLu5.s:1000   .text.xQueueGenericSend:00000000000000f8 .L0 
C:\Users\kasie\AppData\Local\Temp\ccBtjLu5.s:1003   .text.xQueueGenericSend:0000000000000100 .L0 
C:\Users\kasie\AppData\Local\Temp\ccBtjLu5.s:1011   .text.xQueueGenericSend:0000000000000106 .L0 
C:\Users\kasie\AppData\Local\Temp\ccBtjLu5.s:1012   .text.xQueueGenericSend:0000000000000106 .L0 
C:\Users\kasie\AppData\Local\Temp\ccBtjLu5.s:1013   .text.xQueueGenericSend:0000000000000106 .L0 
C:\Users\kasie\AppData\Local\Temp\ccBtjLu5.s:1016   .text.xQueueGenericSend:000000000000010e .L0 
C:\Users\kasie\AppData\Local\Temp\ccBtjLu5.s:1017   .text.xQueueGenericSend:000000000000010e .L0 
C:\Users\kasie\AppData\Local\Temp\ccBtjLu5.s:1019   .text.xQueueGenericSend:0000000000000110 .L0 
C:\Users\kasie\AppData\Local\Temp\ccBtjLu5.s:1022   .text.xQueueGenericSend:0000000000000116 .L0 
C:\Users\kasie\AppData\Local\Temp\ccBtjLu5.s:1026   .text.xQueueGenericSend:000000000000011c .L0 
C:\Users\kasie\AppData\Local\Temp\ccBtjLu5.s:1027   .text.xQueueGenericSend:000000000000011c .L0 
C:\Users\kasie\AppData\Local\Temp\ccBtjLu5.s:1028   .text.xQueueGenericSend:000000000000011c .L0 
C:\Users\kasie\AppData\Local\Temp\ccBtjLu5.s:1034   .text.xQueueGenericSend:000000000000012a .L0 
C:\Users\kasie\AppData\Local\Temp\ccBtjLu5.s:1035   .text.xQueueGenericSend:000000000000012a .L0 
C:\Users\kasie\AppData\Local\Temp\ccBtjLu5.s:1038   .text.xQueueGenericSend:000000000000012e .L0 
C:\Users\kasie\AppData\Local\Temp\ccBtjLu5.s:1039   .text.xQueueGenericSend:000000000000012e .L0 
C:\Users\kasie\AppData\Local\Temp\ccBtjLu5.s:1045   .text.xQueueGenericSend:000000000000013a .L0 
C:\Users\kasie\AppData\Local\Temp\ccBtjLu5.s:1046   .text.xQueueGenericSend:000000000000013a .L0 
C:\Users\kasie\AppData\Local\Temp\ccBtjLu5.s:1049   .text.xQueueGenericSend:000000000000013c .L0 
C:\Users\kasie\AppData\Local\Temp\ccBtjLu5.s:1050   .text.xQueueGenericSend:000000000000013c .L0 
lib/freertos/src/queue.c:829    .text.xQueueGenericSend:0000000000000140 .L0 
C:\Users\kasie\AppData\Local\Temp\ccBtjLu5.s:1059   .text.xQueueGenericSend:0000000000000144 .L0 
C:\Users\kasie\AppData\Local\Temp\ccBtjLu5.s:1061   .text.xQueueGenericSend:0000000000000144 .L0 
C:\Users\kasie\AppData\Local\Temp\ccBtjLu5.s:1062   .text.xQueueGenericSend:0000000000000144 .L0 
C:\Users\kasie\AppData\Local\Temp\ccBtjLu5.s:1063   .text.xQueueGenericSend:0000000000000144 .L0 
C:\Users\kasie\AppData\Local\Temp\ccBtjLu5.s:1066   .text.xQueueGenericSend:000000000000014c .L0 
C:\Users\kasie\AppData\Local\Temp\ccBtjLu5.s:1067   .text.xQueueGenericSend:000000000000014c .L0 
C:\Users\kasie\AppData\Local\Temp\ccBtjLu5.s:1071   .text.xQueueGenericSend:000000000000014e .L0 
C:\Users\kasie\AppData\Local\Temp\ccBtjLu5.s:1072   .text.xQueueGenericSend:0000000000000150 .L0 
C:\Users\kasie\AppData\Local\Temp\ccBtjLu5.s:1073   .text.xQueueGenericSend:0000000000000150 .L0 
C:\Users\kasie\AppData\Local\Temp\ccBtjLu5.s:1075   .text.xQueueGenericSend:0000000000000152 .L0 
C:\Users\kasie\AppData\Local\Temp\ccBtjLu5.s:1078   .text.xQueueGenericSend:0000000000000154 .L0 
C:\Users\kasie\AppData\Local\Temp\ccBtjLu5.s:1081   .text.xQueueGenericSend:0000000000000156 .L0 
C:\Users\kasie\AppData\Local\Temp\ccBtjLu5.s:1083   .text.xQueueGenericSend:0000000000000158 .L0 
C:\Users\kasie\AppData\Local\Temp\ccBtjLu5.s:1086   .text.xQueueGenericSend:000000000000015a .L0 
C:\Users\kasie\AppData\Local\Temp\ccBtjLu5.s:1088   .text.xQueueGenericSend:000000000000015c .L0 
C:\Users\kasie\AppData\Local\Temp\ccBtjLu5.s:1092   .text.xQueueGenericSend:000000000000015e .L0 
C:\Users\kasie\AppData\Local\Temp\ccBtjLu5.s:1097   .text.xQueueGenericSend:0000000000000160 .L0 
C:\Users\kasie\AppData\Local\Temp\ccBtjLu5.s:1101   .text.xQueueGenericSend:0000000000000160 .L0 
C:\Users\kasie\AppData\Local\Temp\ccBtjLu5.s:1102   .text.xQueueGenericSend:0000000000000160 .L0 
C:\Users\kasie\AppData\Local\Temp\ccBtjLu5.s:1107   .text.xQueueGenericSend:0000000000000168 .L0 
C:\Users\kasie\AppData\Local\Temp\ccBtjLu5.s:1108   .text.xQueueGenericSend:0000000000000168 .L0 
C:\Users\kasie\AppData\Local\Temp\ccBtjLu5.s:1112   .text.xQueueGenericSend:0000000000000172 .L0 
C:\Users\kasie\AppData\Local\Temp\ccBtjLu5.s:1113   .text.xQueueGenericSend:0000000000000172 .L0 
C:\Users\kasie\AppData\Local\Temp\ccBtjLu5.s:1119   .text.xQueueGenericSend:000000000000017c .L0 
GAS LISTING C:\Users\kasie\AppData\Local\Temp\ccBtjLu5.s 			page 124


C:\Users\kasie\AppData\Local\Temp\ccBtjLu5.s:1120   .text.xQueueGenericSend:000000000000017c .L0 
lib/freertos/src/queue.c:898    .text.xQueueGenericSend:0000000000000180 .L0 
C:\Users\kasie\AppData\Local\Temp\ccBtjLu5.s:1128   .text.xQueueGenericSend:0000000000000184 .L0 
C:\Users\kasie\AppData\Local\Temp\ccBtjLu5.s:1132   .text.xQueueGenericSend:0000000000000186 .L0 
C:\Users\kasie\AppData\Local\Temp\ccBtjLu5.s:1136   .text.xQueueGenericSend:0000000000000190 .L0 
C:\Users\kasie\AppData\Local\Temp\ccBtjLu5.s:1137   .text.xQueueGenericSend:0000000000000190 .L0 
C:\Users\kasie\AppData\Local\Temp\ccBtjLu5.s:1140   .text.xQueueGenericSend:000000000000019a .L0 
C:\Users\kasie\AppData\Local\Temp\ccBtjLu5.s:1147   .text.xQueueCreateMutex:0000000000000000 xQueueCreateMutex
C:\Users\kasie\AppData\Local\Temp\ccBtjLu5.s:1150   .text.xQueueCreateMutex:0000000000000000 .L0 
C:\Users\kasie\AppData\Local\Temp\ccBtjLu5.s:1152   .text.xQueueCreateMutex:0000000000000000 .L0 
C:\Users\kasie\AppData\Local\Temp\ccBtjLu5.s:1153   .text.xQueueCreateMutex:0000000000000000 .L0 
C:\Users\kasie\AppData\Local\Temp\ccBtjLu5.s:1154   .text.xQueueCreateMutex:0000000000000000 .L0 
C:\Users\kasie\AppData\Local\Temp\ccBtjLu5.s:1155   .text.xQueueCreateMutex:0000000000000000 .L0 
C:\Users\kasie\AppData\Local\Temp\ccBtjLu5.s:1156   .text.xQueueCreateMutex:0000000000000000 .L0 
C:\Users\kasie\AppData\Local\Temp\ccBtjLu5.s:1158   .text.xQueueCreateMutex:0000000000000002 .L0 
C:\Users\kasie\AppData\Local\Temp\ccBtjLu5.s:1160   .text.xQueueCreateMutex:0000000000000004 .L0 
C:\Users\kasie\AppData\Local\Temp\ccBtjLu5.s:1166   .text.xQueueCreateMutex:0000000000000006 .L0 
C:\Users\kasie\AppData\Local\Temp\ccBtjLu5.s:1167   .text.xQueueCreateMutex:0000000000000006 .L0 
C:\Users\kasie\AppData\Local\Temp\ccBtjLu5.s:1168   .text.xQueueCreateMutex:0000000000000006 .L0 
C:\Users\kasie\AppData\Local\Temp\ccBtjLu5.s:1171   .text.xQueueCreateMutex:0000000000000006 .L0 
C:\Users\kasie\AppData\Local\Temp\ccBtjLu5.s:1172   .text.xQueueCreateMutex:0000000000000006 .L0 
C:\Users\kasie\AppData\Local\Temp\ccBtjLu5.s:1173   .text.xQueueCreateMutex:0000000000000006 .L0 
C:\Users\kasie\AppData\Local\Temp\ccBtjLu5.s:1174   .text.xQueueCreateMutex:0000000000000006 .L0 
C:\Users\kasie\AppData\Local\Temp\ccBtjLu5.s:1175   .text.xQueueCreateMutex:0000000000000006 .L0 
C:\Users\kasie\AppData\Local\Temp\ccBtjLu5.s:1182   .text.xQueueCreateMutex:000000000000000a .L0 
C:\Users\kasie\AppData\Local\Temp\ccBtjLu5.s:1184   .text.xQueueCreateMutex:000000000000000e .L0 
C:\Users\kasie\AppData\Local\Temp\ccBtjLu5.s:1185   .text.xQueueCreateMutex:000000000000000e .L0 
C:\Users\kasie\AppData\Local\Temp\ccBtjLu5.s:1191   .text.xQueueCreateMutex:000000000000000e .L0 
C:\Users\kasie\AppData\Local\Temp\ccBtjLu5.s:1196   .text.xQueueCreateMutex:0000000000000018 .L0 
C:\Users\kasie\AppData\Local\Temp\ccBtjLu5.s:1197   .text.xQueueCreateMutex:0000000000000018 .L0 
C:\Users\kasie\AppData\Local\Temp\ccBtjLu5.s:1200   .text.xQueueCreateMutex:000000000000001a .L0 
C:\Users\kasie\AppData\Local\Temp\ccBtjLu5.s:1203   .text.xQueueCreateMutex:000000000000001a .L0 
C:\Users\kasie\AppData\Local\Temp\ccBtjLu5.s:1204   .text.xQueueCreateMutex:000000000000001a .L0 
C:\Users\kasie\AppData\Local\Temp\ccBtjLu5.s:1205   .text.xQueueCreateMutex:000000000000001a .L0 
C:\Users\kasie\AppData\Local\Temp\ccBtjLu5.s:1206   .text.xQueueCreateMutex:000000000000001a .L0 
C:\Users\kasie\AppData\Local\Temp\ccBtjLu5.s:1207   .text.xQueueCreateMutex:000000000000001a .L0 
C:\Users\kasie\AppData\Local\Temp\ccBtjLu5.s:1209   .text.xQueueCreateMutex:000000000000001c .L0 
C:\Users\kasie\AppData\Local\Temp\ccBtjLu5.s:1210   .text.xQueueCreateMutex:000000000000001c .L0 
C:\Users\kasie\AppData\Local\Temp\ccBtjLu5.s:1212   .text.xQueueCreateMutex:000000000000001e .L0 
C:\Users\kasie\AppData\Local\Temp\ccBtjLu5.s:1214   .text.xQueueCreateMutex:0000000000000020 .L0 
C:\Users\kasie\AppData\Local\Temp\ccBtjLu5.s:1216   .text.xQueueCreateMutex:0000000000000022 .L0 
C:\Users\kasie\AppData\Local\Temp\ccBtjLu5.s:1217   .text.xQueueCreateMutex:0000000000000022 .L0 
C:\Users\kasie\AppData\Local\Temp\ccBtjLu5.s:1219   .text.xQueueCreateMutex:0000000000000026 .L0 
C:\Users\kasie\AppData\Local\Temp\ccBtjLu5.s:1220   .text.xQueueCreateMutex:0000000000000026 .L0 
C:\Users\kasie\AppData\Local\Temp\ccBtjLu5.s:1231   .text.xQueueCreateMutex:000000000000002e .L0 
C:\Users\kasie\AppData\Local\Temp\ccBtjLu5.s:1232   .text.xQueueCreateMutex:000000000000002e .L0 
C:\Users\kasie\AppData\Local\Temp\ccBtjLu5.s:1242   .text.xQueueCreateMutex:0000000000000030 .L0 
C:\Users\kasie\AppData\Local\Temp\ccBtjLu5.s:1246   .text.xQueueCreateMutex:0000000000000034 .L0 
C:\Users\kasie\AppData\Local\Temp\ccBtjLu5.s:1250   .text.xQueueCreateMutex:0000000000000034 .L0 
C:\Users\kasie\AppData\Local\Temp\ccBtjLu5.s:1253   .text.xQueueCreateMutex:0000000000000034 .L0 
C:\Users\kasie\AppData\Local\Temp\ccBtjLu5.s:1256   .text.xQueueCreateMutex:0000000000000034 .L0 
C:\Users\kasie\AppData\Local\Temp\ccBtjLu5.s:1257   .text.xQueueCreateMutex:0000000000000034 .L0 
C:\Users\kasie\AppData\Local\Temp\ccBtjLu5.s:1258   .text.xQueueCreateMutex:0000000000000034 .L0 
C:\Users\kasie\AppData\Local\Temp\ccBtjLu5.s:1259   .text.xQueueCreateMutex:0000000000000034 .L0 
C:\Users\kasie\AppData\Local\Temp\ccBtjLu5.s:1261   .text.xQueueCreateMutex:0000000000000038 .L0 
C:\Users\kasie\AppData\Local\Temp\ccBtjLu5.s:1262   .text.xQueueCreateMutex:0000000000000038 .L0 
C:\Users\kasie\AppData\Local\Temp\ccBtjLu5.s:1264   .text.xQueueCreateMutex:000000000000003c .L0 
GAS LISTING C:\Users\kasie\AppData\Local\Temp\ccBtjLu5.s 			page 125


C:\Users\kasie\AppData\Local\Temp\ccBtjLu5.s:1265   .text.xQueueCreateMutex:000000000000003c .L0 
C:\Users\kasie\AppData\Local\Temp\ccBtjLu5.s:1267   .text.xQueueCreateMutex:0000000000000040 .L0 
C:\Users\kasie\AppData\Local\Temp\ccBtjLu5.s:1268   .text.xQueueCreateMutex:0000000000000040 .L0 
C:\Users\kasie\AppData\Local\Temp\ccBtjLu5.s:1269   .text.xQueueCreateMutex:0000000000000040 .L0 
C:\Users\kasie\AppData\Local\Temp\ccBtjLu5.s:1277   .text.xQueueCreateMutex:000000000000004e .L0 
C:\Users\kasie\AppData\Local\Temp\ccBtjLu5.s:1279   .text.xQueueCreateMutex:000000000000004e .L0 
C:\Users\kasie\AppData\Local\Temp\ccBtjLu5.s:1280   .text.xQueueCreateMutex:000000000000004e .L0 
C:\Users\kasie\AppData\Local\Temp\ccBtjLu5.s:1282   .text.xQueueCreateMutex:0000000000000052 .L0 
C:\Users\kasie\AppData\Local\Temp\ccBtjLu5.s:1284   .text.xQueueCreateMutex:0000000000000054 .L0 
C:\Users\kasie\AppData\Local\Temp\ccBtjLu5.s:1286   .text.xQueueCreateMutex:0000000000000056 .L0 
C:\Users\kasie\AppData\Local\Temp\ccBtjLu5.s:1289   .text.xQueueCreateMutex:0000000000000058 .L0 
C:\Users\kasie\AppData\Local\Temp\ccBtjLu5.s:1291   .text.xQueueCreateMutex:000000000000005a .L0 
C:\Users\kasie\AppData\Local\Temp\ccBtjLu5.s:1298   .text.xQueueGenericSendFromISR:0000000000000000 xQueueGenericSendFromISR
C:\Users\kasie\AppData\Local\Temp\ccBtjLu5.s:1301   .text.xQueueGenericSendFromISR:0000000000000000 .L0 
C:\Users\kasie\AppData\Local\Temp\ccBtjLu5.s:1303   .text.xQueueGenericSendFromISR:0000000000000000 .L0 
C:\Users\kasie\AppData\Local\Temp\ccBtjLu5.s:1304   .text.xQueueGenericSendFromISR:0000000000000000 .L0 
C:\Users\kasie\AppData\Local\Temp\ccBtjLu5.s:1305   .text.xQueueGenericSendFromISR:0000000000000000 .L0 
C:\Users\kasie\AppData\Local\Temp\ccBtjLu5.s:1306   .text.xQueueGenericSendFromISR:0000000000000000 .L0 
C:\Users\kasie\AppData\Local\Temp\ccBtjLu5.s:1307   .text.xQueueGenericSendFromISR:0000000000000000 .L0 
C:\Users\kasie\AppData\Local\Temp\ccBtjLu5.s:1310   .text.xQueueGenericSendFromISR:0000000000000002 .L0 
C:\Users\kasie\AppData\Local\Temp\ccBtjLu5.s:1311   .text.xQueueGenericSendFromISR:0000000000000002 .L0 
C:\Users\kasie\AppData\Local\Temp\ccBtjLu5.s:1312   .text.xQueueGenericSendFromISR:0000000000000002 .L0 
lib/freertos/src/queue.c:927    .text.xQueueGenericSendFromISR:0000000000000002 .L0 
C:\Users\kasie\AppData\Local\Temp\ccBtjLu5.s:1322   .text.xQueueGenericSendFromISR:0000000000000006 .L0 
C:\Users\kasie\AppData\Local\Temp\ccBtjLu5.s:1323   .text.xQueueGenericSendFromISR:0000000000000006 .L0 
C:\Users\kasie\AppData\Local\Temp\ccBtjLu5.s:1324   .text.xQueueGenericSendFromISR:0000000000000006 .L0 
C:\Users\kasie\AppData\Local\Temp\ccBtjLu5.s:1325   .text.xQueueGenericSendFromISR:0000000000000006 .L0 
C:\Users\kasie\AppData\Local\Temp\ccBtjLu5.s:1328   .text.xQueueGenericSendFromISR:0000000000000008 .L0 
C:\Users\kasie\AppData\Local\Temp\ccBtjLu5.s:1329   .text.xQueueGenericSendFromISR:0000000000000008 .L0 
C:\Users\kasie\AppData\Local\Temp\ccBtjLu5.s:1334   .text.xQueueGenericSendFromISR:000000000000000e .L0 
C:\Users\kasie\AppData\Local\Temp\ccBtjLu5.s:1335   .text.xQueueGenericSendFromISR:000000000000000e .L0 
C:\Users\kasie\AppData\Local\Temp\ccBtjLu5.s:1336   .text.xQueueGenericSendFromISR:000000000000000e .L0 
lib/freertos/src/queue.c:928    .text.xQueueGenericSendFromISR:000000000000000e .L0 
C:\Users\kasie\AppData\Local\Temp\ccBtjLu5.s:1346   .text.xQueueGenericSendFromISR:0000000000000012 .L0 
C:\Users\kasie\AppData\Local\Temp\ccBtjLu5.s:1347   .text.xQueueGenericSendFromISR:0000000000000012 .L0 
C:\Users\kasie\AppData\Local\Temp\ccBtjLu5.s:1348   .text.xQueueGenericSendFromISR:0000000000000012 .L0 
C:\Users\kasie\AppData\Local\Temp\ccBtjLu5.s:1349   .text.xQueueGenericSendFromISR:0000000000000012 .L0 
C:\Users\kasie\AppData\Local\Temp\ccBtjLu5.s:1352   .text.xQueueGenericSendFromISR:0000000000000014 .L0 
C:\Users\kasie\AppData\Local\Temp\ccBtjLu5.s:1353   .text.xQueueGenericSendFromISR:0000000000000014 .L0 
C:\Users\kasie\AppData\Local\Temp\ccBtjLu5.s:1356   .text.xQueueGenericSendFromISR:000000000000001a .L0 
C:\Users\kasie\AppData\Local\Temp\ccBtjLu5.s:1361   .text.xQueueGenericSendFromISR:0000000000000022 .L0 
C:\Users\kasie\AppData\Local\Temp\ccBtjLu5.s:1362   .text.xQueueGenericSendFromISR:0000000000000022 .L0 
C:\Users\kasie\AppData\Local\Temp\ccBtjLu5.s:1363   .text.xQueueGenericSendFromISR:0000000000000022 .L0 
lib/freertos/src/queue.c:929    .text.xQueueGenericSendFromISR:0000000000000022 .L0 
C:\Users\kasie\AppData\Local\Temp\ccBtjLu5.s:1373   .text.xQueueGenericSendFromISR:0000000000000026 .L0 
C:\Users\kasie\AppData\Local\Temp\ccBtjLu5.s:1374   .text.xQueueGenericSendFromISR:0000000000000026 .L0 
C:\Users\kasie\AppData\Local\Temp\ccBtjLu5.s:1375   .text.xQueueGenericSendFromISR:0000000000000026 .L0 
C:\Users\kasie\AppData\Local\Temp\ccBtjLu5.s:1376   .text.xQueueGenericSendFromISR:0000000000000026 .L0 
C:\Users\kasie\AppData\Local\Temp\ccBtjLu5.s:1379   .text.xQueueGenericSendFromISR:0000000000000028 .L0 
C:\Users\kasie\AppData\Local\Temp\ccBtjLu5.s:1381   .text.xQueueGenericSendFromISR:000000000000002a .L0 
C:\Users\kasie\AppData\Local\Temp\ccBtjLu5.s:1384   .text.xQueueGenericSendFromISR:000000000000002e .L0 
C:\Users\kasie\AppData\Local\Temp\ccBtjLu5.s:1385   .text.xQueueGenericSendFromISR:000000000000002e .L0 
C:\Users\kasie\AppData\Local\Temp\ccBtjLu5.s:1388   .text.xQueueGenericSendFromISR:0000000000000030 .L0 
C:\Users\kasie\AppData\Local\Temp\ccBtjLu5.s:1389   .text.xQueueGenericSendFromISR:0000000000000030 .L0 
C:\Users\kasie\AppData\Local\Temp\ccBtjLu5.s:1390   .text.xQueueGenericSendFromISR:0000000000000030 .L0 
C:\Users\kasie\AppData\Local\Temp\ccBtjLu5.s:1391   .text.xQueueGenericSendFromISR:0000000000000030 .L0 
C:\Users\kasie\AppData\Local\Temp\ccBtjLu5.s:1397   .text.xQueueGenericSendFromISR:000000000000003c .L0 
GAS LISTING C:\Users\kasie\AppData\Local\Temp\ccBtjLu5.s 			page 126


C:\Users\kasie\AppData\Local\Temp\ccBtjLu5.s:1398   .text.xQueueGenericSendFromISR:000000000000003c .L0 
C:\Users\kasie\AppData\Local\Temp\ccBtjLu5.s:1399   .text.xQueueGenericSendFromISR:000000000000003c .L0 
C:\Users\kasie\AppData\Local\Temp\ccBtjLu5.s:1400   .text.xQueueGenericSendFromISR:000000000000003c .L0 
C:\Users\kasie\AppData\Local\Temp\ccBtjLu5.s:1401   .text.xQueueGenericSendFromISR:000000000000003c .L0 
C:\Users\kasie\AppData\Local\Temp\ccBtjLu5.s:1405   .text.xQueueGenericSendFromISR:0000000000000040 .L0 
C:\Users\kasie\AppData\Local\Temp\ccBtjLu5.s:1408   .text.xQueueGenericSendFromISR:0000000000000048 .L0 
C:\Users\kasie\AppData\Local\Temp\ccBtjLu5.s:1410   .text.xQueueGenericSendFromISR:000000000000004a .L0 
C:\Users\kasie\AppData\Local\Temp\ccBtjLu5.s:1412   .text.xQueueGenericSendFromISR:000000000000004c .L0 
C:\Users\kasie\AppData\Local\Temp\ccBtjLu5.s:1415   .text.xQueueGenericSendFromISR:000000000000004e .L0 
C:\Users\kasie\AppData\Local\Temp\ccBtjLu5.s:1416   .text.xQueueGenericSendFromISR:000000000000004e .L0 
C:\Users\kasie\AppData\Local\Temp\ccBtjLu5.s:1419   .text.xQueueGenericSendFromISR:0000000000000054 .L0 
C:\Users\kasie\AppData\Local\Temp\ccBtjLu5.s:1421   .text.xQueueGenericSendFromISR:0000000000000056 .L0 
C:\Users\kasie\AppData\Local\Temp\ccBtjLu5.s:1423   .text.xQueueGenericSendFromISR:0000000000000058 .L0 
C:\Users\kasie\AppData\Local\Temp\ccBtjLu5.s:1427   .text.xQueueGenericSendFromISR:000000000000005c .L0 
C:\Users\kasie\AppData\Local\Temp\ccBtjLu5.s:1428   .text.xQueueGenericSendFromISR:000000000000005c .L0 
C:\Users\kasie\AppData\Local\Temp\ccBtjLu5.s:1430   .text.xQueueGenericSendFromISR:0000000000000060 .L0 
C:\Users\kasie\AppData\Local\Temp\ccBtjLu5.s:1434   .text.xQueueGenericSendFromISR:0000000000000064 .L0 
C:\Users\kasie\AppData\Local\Temp\ccBtjLu5.s:1436   .text.xQueueGenericSendFromISR:0000000000000068 .L0 
C:\Users\kasie\AppData\Local\Temp\ccBtjLu5.s:1439   .text.xQueueGenericSendFromISR:0000000000000070 .L0 
C:\Users\kasie\AppData\Local\Temp\ccBtjLu5.s:1442   .text.xQueueGenericSendFromISR:0000000000000074 .L0 
C:\Users\kasie\AppData\Local\Temp\ccBtjLu5.s:1443   .text.xQueueGenericSendFromISR:0000000000000074 .L0 
C:\Users\kasie\AppData\Local\Temp\ccBtjLu5.s:1444   .text.xQueueGenericSendFromISR:0000000000000074 .L0 
C:\Users\kasie\AppData\Local\Temp\ccBtjLu5.s:1445   .text.xQueueGenericSendFromISR:0000000000000074 .L0 
C:\Users\kasie\AppData\Local\Temp\ccBtjLu5.s:1448   .text.xQueueGenericSendFromISR:000000000000007a .L0 
C:\Users\kasie\AppData\Local\Temp\ccBtjLu5.s:1449   .text.xQueueGenericSendFromISR:000000000000007a .L0 
C:\Users\kasie\AppData\Local\Temp\ccBtjLu5.s:1454   .text.xQueueGenericSendFromISR:000000000000007e .L0 
C:\Users\kasie\AppData\Local\Temp\ccBtjLu5.s:1459   .text.xQueueGenericSendFromISR:0000000000000080 .L0 
C:\Users\kasie\AppData\Local\Temp\ccBtjLu5.s:1463   .text.xQueueGenericSendFromISR:000000000000008a .L0 
C:\Users\kasie\AppData\Local\Temp\ccBtjLu5.s:1464   .text.xQueueGenericSendFromISR:000000000000008a .L0 
C:\Users\kasie\AppData\Local\Temp\ccBtjLu5.s:1465   .text.xQueueGenericSendFromISR:000000000000008c .L0 
C:\Users\kasie\AppData\Local\Temp\ccBtjLu5.s:1466   .text.xQueueGenericSendFromISR:000000000000008c .L0 
C:\Users\kasie\AppData\Local\Temp\ccBtjLu5.s:1468   .text.xQueueGenericSendFromISR:000000000000008e .L0 
C:\Users\kasie\AppData\Local\Temp\ccBtjLu5.s:1472   .text.xQueueGenericSendFromISR:0000000000000092 .L0 
C:\Users\kasie\AppData\Local\Temp\ccBtjLu5.s:1475   .text.xQueueGenericSendFromISR:0000000000000094 .L0 
C:\Users\kasie\AppData\Local\Temp\ccBtjLu5.s:1478   .text.xQueueGenericSendFromISR:0000000000000096 .L0 
C:\Users\kasie\AppData\Local\Temp\ccBtjLu5.s:1481   .text.xQueueGenericSendFromISR:0000000000000098 .L0 
C:\Users\kasie\AppData\Local\Temp\ccBtjLu5.s:1484   .text.xQueueGenericSendFromISR:000000000000009a .L0 
C:\Users\kasie\AppData\Local\Temp\ccBtjLu5.s:1487   .text.xQueueGenericSendFromISR:000000000000009c .L0 
C:\Users\kasie\AppData\Local\Temp\ccBtjLu5.s:1493   .text.xQueueGenericSendFromISR:000000000000009e .L0 
C:\Users\kasie\AppData\Local\Temp\ccBtjLu5.s:1496   .text.xQueueGenericSendFromISR:000000000000009e .L0 
C:\Users\kasie\AppData\Local\Temp\ccBtjLu5.s:1497   .text.xQueueGenericSendFromISR:000000000000009e .L0 
C:\Users\kasie\AppData\Local\Temp\ccBtjLu5.s:1501   .text.xQueueGenericSendFromISR:00000000000000aa .L0 
C:\Users\kasie\AppData\Local\Temp\ccBtjLu5.s:1503   .text.xQueueGenericSendFromISR:00000000000000ac .L0 
C:\Users\kasie\AppData\Local\Temp\ccBtjLu5.s:1504   .text.xQueueGenericSendFromISR:00000000000000ac .L0 
C:\Users\kasie\AppData\Local\Temp\ccBtjLu5.s:1506   .text.xQueueGenericSendFromISR:00000000000000b0 .L0 
C:\Users\kasie\AppData\Local\Temp\ccBtjLu5.s:1507   .text.xQueueGenericSendFromISR:00000000000000b0 .L0 
C:\Users\kasie\AppData\Local\Temp\ccBtjLu5.s:1512   .text.xQueueGenericSendFromISR:00000000000000b8 .L0 
C:\Users\kasie\AppData\Local\Temp\ccBtjLu5.s:1513   .text.xQueueGenericSendFromISR:00000000000000b8 .L0 
C:\Users\kasie\AppData\Local\Temp\ccBtjLu5.s:1516   .text.xQueueGenericSendFromISR:00000000000000ba .L0 
C:\Users\kasie\AppData\Local\Temp\ccBtjLu5.s:1519   .text.xQueueGenericSendFromISR:00000000000000be .L0 
C:\Users\kasie\AppData\Local\Temp\ccBtjLu5.s:1522   .text.xQueueGenericSendFromISR:00000000000000c4 .L0 
C:\Users\kasie\AppData\Local\Temp\ccBtjLu5.s:1529   .text.xQueueGiveFromISR:0000000000000000 xQueueGiveFromISR
C:\Users\kasie\AppData\Local\Temp\ccBtjLu5.s:1532   .text.xQueueGiveFromISR:0000000000000000 .L0 
C:\Users\kasie\AppData\Local\Temp\ccBtjLu5.s:1534   .text.xQueueGiveFromISR:0000000000000000 .L0 
C:\Users\kasie\AppData\Local\Temp\ccBtjLu5.s:1535   .text.xQueueGiveFromISR:0000000000000000 .L0 
C:\Users\kasie\AppData\Local\Temp\ccBtjLu5.s:1536   .text.xQueueGiveFromISR:0000000000000000 .L0 
C:\Users\kasie\AppData\Local\Temp\ccBtjLu5.s:1537   .text.xQueueGiveFromISR:0000000000000000 .L0 
GAS LISTING C:\Users\kasie\AppData\Local\Temp\ccBtjLu5.s 			page 127


C:\Users\kasie\AppData\Local\Temp\ccBtjLu5.s:1538   .text.xQueueGiveFromISR:0000000000000000 .L0 
C:\Users\kasie\AppData\Local\Temp\ccBtjLu5.s:1541   .text.xQueueGiveFromISR:0000000000000002 .L0 
C:\Users\kasie\AppData\Local\Temp\ccBtjLu5.s:1542   .text.xQueueGiveFromISR:0000000000000002 .L0 
C:\Users\kasie\AppData\Local\Temp\ccBtjLu5.s:1543   .text.xQueueGiveFromISR:0000000000000002 .L0 
lib/freertos/src/queue.c:1084   .text.xQueueGiveFromISR:0000000000000002 .L0 
C:\Users\kasie\AppData\Local\Temp\ccBtjLu5.s:1553   .text.xQueueGiveFromISR:0000000000000006 .L0 
C:\Users\kasie\AppData\Local\Temp\ccBtjLu5.s:1554   .text.xQueueGiveFromISR:0000000000000006 .L0 
C:\Users\kasie\AppData\Local\Temp\ccBtjLu5.s:1555   .text.xQueueGiveFromISR:0000000000000006 .L0 
C:\Users\kasie\AppData\Local\Temp\ccBtjLu5.s:1556   .text.xQueueGiveFromISR:0000000000000006 .L0 
C:\Users\kasie\AppData\Local\Temp\ccBtjLu5.s:1559   .text.xQueueGiveFromISR:0000000000000008 .L0 
C:\Users\kasie\AppData\Local\Temp\ccBtjLu5.s:1560   .text.xQueueGiveFromISR:0000000000000008 .L0 
C:\Users\kasie\AppData\Local\Temp\ccBtjLu5.s:1564   .text.xQueueGiveFromISR:000000000000000c .L0 
C:\Users\kasie\AppData\Local\Temp\ccBtjLu5.s:1565   .text.xQueueGiveFromISR:000000000000000c .L0 
C:\Users\kasie\AppData\Local\Temp\ccBtjLu5.s:1566   .text.xQueueGiveFromISR:000000000000000c .L0 
lib/freertos/src/queue.c:1088   .text.xQueueGiveFromISR:000000000000000c .L0 
C:\Users\kasie\AppData\Local\Temp\ccBtjLu5.s:1576   .text.xQueueGiveFromISR:0000000000000010 .L0 
C:\Users\kasie\AppData\Local\Temp\ccBtjLu5.s:1577   .text.xQueueGiveFromISR:0000000000000010 .L0 
C:\Users\kasie\AppData\Local\Temp\ccBtjLu5.s:1578   .text.xQueueGiveFromISR:0000000000000010 .L0 
C:\Users\kasie\AppData\Local\Temp\ccBtjLu5.s:1579   .text.xQueueGiveFromISR:0000000000000010 .L0 
C:\Users\kasie\AppData\Local\Temp\ccBtjLu5.s:1582   .text.xQueueGiveFromISR:0000000000000012 .L0 
C:\Users\kasie\AppData\Local\Temp\ccBtjLu5.s:1583   .text.xQueueGiveFromISR:0000000000000012 .L0 
C:\Users\kasie\AppData\Local\Temp\ccBtjLu5.s:1589   .text.xQueueGiveFromISR:000000000000001a .L0 
C:\Users\kasie\AppData\Local\Temp\ccBtjLu5.s:1590   .text.xQueueGiveFromISR:000000000000001a .L0 
C:\Users\kasie\AppData\Local\Temp\ccBtjLu5.s:1591   .text.xQueueGiveFromISR:000000000000001a .L0 
lib/freertos/src/queue.c:1093   .text.xQueueGiveFromISR:000000000000001a .L0 
C:\Users\kasie\AppData\Local\Temp\ccBtjLu5.s:1601   .text.xQueueGiveFromISR:000000000000001e .L0 
C:\Users\kasie\AppData\Local\Temp\ccBtjLu5.s:1602   .text.xQueueGiveFromISR:000000000000001e .L0 
C:\Users\kasie\AppData\Local\Temp\ccBtjLu5.s:1603   .text.xQueueGiveFromISR:000000000000001e .L0 
C:\Users\kasie\AppData\Local\Temp\ccBtjLu5.s:1604   .text.xQueueGiveFromISR:000000000000001e .L0 
C:\Users\kasie\AppData\Local\Temp\ccBtjLu5.s:1607   .text.xQueueGiveFromISR:0000000000000020 .L0 
C:\Users\kasie\AppData\Local\Temp\ccBtjLu5.s:1609   .text.xQueueGiveFromISR:0000000000000022 .L0 
C:\Users\kasie\AppData\Local\Temp\ccBtjLu5.s:1612   .text.xQueueGiveFromISR:0000000000000026 .L0 
C:\Users\kasie\AppData\Local\Temp\ccBtjLu5.s:1613   .text.xQueueGiveFromISR:0000000000000026 .L0 
C:\Users\kasie\AppData\Local\Temp\ccBtjLu5.s:1616   .text.xQueueGiveFromISR:0000000000000028 .L0 
C:\Users\kasie\AppData\Local\Temp\ccBtjLu5.s:1617   .text.xQueueGiveFromISR:0000000000000028 .L0 
C:\Users\kasie\AppData\Local\Temp\ccBtjLu5.s:1618   .text.xQueueGiveFromISR:0000000000000028 .L0 
C:\Users\kasie\AppData\Local\Temp\ccBtjLu5.s:1619   .text.xQueueGiveFromISR:0000000000000028 .L0 
C:\Users\kasie\AppData\Local\Temp\ccBtjLu5.s:1622   .text.xQueueGiveFromISR:000000000000002e .L0 
C:\Users\kasie\AppData\Local\Temp\ccBtjLu5.s:1623   .text.xQueueGiveFromISR:000000000000002e .L0 
C:\Users\kasie\AppData\Local\Temp\ccBtjLu5.s:1624   .text.xQueueGiveFromISR:000000000000002e .L0 
C:\Users\kasie\AppData\Local\Temp\ccBtjLu5.s:1627   .text.xQueueGiveFromISR:0000000000000030 .L0 
C:\Users\kasie\AppData\Local\Temp\ccBtjLu5.s:1631   .text.xQueueGiveFromISR:0000000000000038 .L0 
C:\Users\kasie\AppData\Local\Temp\ccBtjLu5.s:1633   .text.xQueueGiveFromISR:000000000000003a .L0 
C:\Users\kasie\AppData\Local\Temp\ccBtjLu5.s:1636   .text.xQueueGiveFromISR:000000000000003c .L0 
C:\Users\kasie\AppData\Local\Temp\ccBtjLu5.s:1640   .text.xQueueGiveFromISR:000000000000003e .L0 
C:\Users\kasie\AppData\Local\Temp\ccBtjLu5.s:1641   .text.xQueueGiveFromISR:000000000000003e .L0 
C:\Users\kasie\AppData\Local\Temp\ccBtjLu5.s:1642   .text.xQueueGiveFromISR:000000000000003e .L0 
C:\Users\kasie\AppData\Local\Temp\ccBtjLu5.s:1644   .text.xQueueGiveFromISR:0000000000000040 .L0 
C:\Users\kasie\AppData\Local\Temp\ccBtjLu5.s:1647   .text.xQueueGiveFromISR:0000000000000044 .L0 
C:\Users\kasie\AppData\Local\Temp\ccBtjLu5.s:1648   .text.xQueueGiveFromISR:0000000000000044 .L0 
C:\Users\kasie\AppData\Local\Temp\ccBtjLu5.s:1650   .text.xQueueGiveFromISR:0000000000000048 .L0 
C:\Users\kasie\AppData\Local\Temp\ccBtjLu5.s:1653   .text.xQueueGiveFromISR:000000000000004a .L0 
C:\Users\kasie\AppData\Local\Temp\ccBtjLu5.s:1655   .text.xQueueGiveFromISR:000000000000004c .L0 
C:\Users\kasie\AppData\Local\Temp\ccBtjLu5.s:1659   .text.xQueueGiveFromISR:0000000000000052 .L0 
C:\Users\kasie\AppData\Local\Temp\ccBtjLu5.s:1660   .text.xQueueGiveFromISR:0000000000000052 .L0 
C:\Users\kasie\AppData\Local\Temp\ccBtjLu5.s:1661   .text.xQueueGiveFromISR:0000000000000052 .L0 
C:\Users\kasie\AppData\Local\Temp\ccBtjLu5.s:1662   .text.xQueueGiveFromISR:0000000000000052 .L0 
GAS LISTING C:\Users\kasie\AppData\Local\Temp\ccBtjLu5.s 			page 128


C:\Users\kasie\AppData\Local\Temp\ccBtjLu5.s:1666   .text.xQueueGiveFromISR:0000000000000058 .L0 
C:\Users\kasie\AppData\Local\Temp\ccBtjLu5.s:1667   .text.xQueueGiveFromISR:0000000000000058 .L0 
C:\Users\kasie\AppData\Local\Temp\ccBtjLu5.s:1673   .text.xQueueGiveFromISR:000000000000005c .L0 
C:\Users\kasie\AppData\Local\Temp\ccBtjLu5.s:1679   .text.xQueueGiveFromISR:000000000000005e .L0 
C:\Users\kasie\AppData\Local\Temp\ccBtjLu5.s:1683   .text.xQueueGiveFromISR:0000000000000068 .L0 
C:\Users\kasie\AppData\Local\Temp\ccBtjLu5.s:1684   .text.xQueueGiveFromISR:0000000000000068 .L0 
C:\Users\kasie\AppData\Local\Temp\ccBtjLu5.s:1685   .text.xQueueGiveFromISR:000000000000006a .L0 
C:\Users\kasie\AppData\Local\Temp\ccBtjLu5.s:1686   .text.xQueueGiveFromISR:000000000000006a .L0 
C:\Users\kasie\AppData\Local\Temp\ccBtjLu5.s:1688   .text.xQueueGiveFromISR:000000000000006c .L0 
C:\Users\kasie\AppData\Local\Temp\ccBtjLu5.s:1692   .text.xQueueGiveFromISR:0000000000000070 .L0 
C:\Users\kasie\AppData\Local\Temp\ccBtjLu5.s:1695   .text.xQueueGiveFromISR:0000000000000072 .L0 
C:\Users\kasie\AppData\Local\Temp\ccBtjLu5.s:1698   .text.xQueueGiveFromISR:0000000000000074 .L0 
C:\Users\kasie\AppData\Local\Temp\ccBtjLu5.s:1702   .text.xQueueGiveFromISR:0000000000000076 .L0 
C:\Users\kasie\AppData\Local\Temp\ccBtjLu5.s:1707   .text.xQueueGiveFromISR:0000000000000078 .L0 
C:\Users\kasie\AppData\Local\Temp\ccBtjLu5.s:1711   .text.xQueueGiveFromISR:0000000000000078 .L0 
C:\Users\kasie\AppData\Local\Temp\ccBtjLu5.s:1712   .text.xQueueGiveFromISR:0000000000000078 .L0 
C:\Users\kasie\AppData\Local\Temp\ccBtjLu5.s:1717   .text.xQueueGiveFromISR:0000000000000084 .L0 
C:\Users\kasie\AppData\Local\Temp\ccBtjLu5.s:1719   .text.xQueueGiveFromISR:0000000000000086 .L0 
C:\Users\kasie\AppData\Local\Temp\ccBtjLu5.s:1720   .text.xQueueGiveFromISR:0000000000000086 .L0 
C:\Users\kasie\AppData\Local\Temp\ccBtjLu5.s:1722   .text.xQueueGiveFromISR:000000000000008a .L0 
C:\Users\kasie\AppData\Local\Temp\ccBtjLu5.s:1723   .text.xQueueGiveFromISR:000000000000008a .L0 
C:\Users\kasie\AppData\Local\Temp\ccBtjLu5.s:1729   .text.xQueueGiveFromISR:0000000000000092 .L0 
C:\Users\kasie\AppData\Local\Temp\ccBtjLu5.s:1730   .text.xQueueGiveFromISR:0000000000000092 .L0 
C:\Users\kasie\AppData\Local\Temp\ccBtjLu5.s:1733   .text.xQueueGiveFromISR:0000000000000094 .L0 
C:\Users\kasie\AppData\Local\Temp\ccBtjLu5.s:1736   .text.xQueueGiveFromISR:0000000000000098 .L0 
C:\Users\kasie\AppData\Local\Temp\ccBtjLu5.s:1741   .text.xQueueGiveFromISR:000000000000009e .L0 
C:\Users\kasie\AppData\Local\Temp\ccBtjLu5.s:1748   .text.xQueueGenericReceive:0000000000000000 xQueueGenericReceive
C:\Users\kasie\AppData\Local\Temp\ccBtjLu5.s:1751   .text.xQueueGenericReceive:0000000000000000 .L0 
C:\Users\kasie\AppData\Local\Temp\ccBtjLu5.s:1753   .text.xQueueGenericReceive:0000000000000000 .L0 
C:\Users\kasie\AppData\Local\Temp\ccBtjLu5.s:1754   .text.xQueueGenericReceive:0000000000000000 .L0 
C:\Users\kasie\AppData\Local\Temp\ccBtjLu5.s:1755   .text.xQueueGenericReceive:0000000000000000 .L0 
C:\Users\kasie\AppData\Local\Temp\ccBtjLu5.s:1756   .text.xQueueGenericReceive:0000000000000000 .L0 
C:\Users\kasie\AppData\Local\Temp\ccBtjLu5.s:1757   .text.xQueueGenericReceive:0000000000000000 .L0 
C:\Users\kasie\AppData\Local\Temp\ccBtjLu5.s:1758   .text.xQueueGenericReceive:0000000000000000 .L0 
C:\Users\kasie\AppData\Local\Temp\ccBtjLu5.s:1759   .text.xQueueGenericReceive:0000000000000000 .L0 
C:\Users\kasie\AppData\Local\Temp\ccBtjLu5.s:1761   .text.xQueueGenericReceive:0000000000000002 .L0 
C:\Users\kasie\AppData\Local\Temp\ccBtjLu5.s:1769   .text.xQueueGenericReceive:0000000000000010 .L0 
C:\Users\kasie\AppData\Local\Temp\ccBtjLu5.s:1770   .text.xQueueGenericReceive:0000000000000010 .L0 
C:\Users\kasie\AppData\Local\Temp\ccBtjLu5.s:1771   .text.xQueueGenericReceive:0000000000000010 .L0 
C:\Users\kasie\AppData\Local\Temp\ccBtjLu5.s:1772   .text.xQueueGenericReceive:0000000000000010 .L0 
C:\Users\kasie\AppData\Local\Temp\ccBtjLu5.s:1773   .text.xQueueGenericReceive:0000000000000010 .L0 
C:\Users\kasie\AppData\Local\Temp\ccBtjLu5.s:1774   .text.xQueueGenericReceive:0000000000000010 .L0 
C:\Users\kasie\AppData\Local\Temp\ccBtjLu5.s:1775   .text.xQueueGenericReceive:0000000000000010 .L0 
C:\Users\kasie\AppData\Local\Temp\ccBtjLu5.s:1777   .text.xQueueGenericReceive:0000000000000010 .L0 
C:\Users\kasie\AppData\Local\Temp\ccBtjLu5.s:1779   .text.xQueueGenericReceive:0000000000000012 .L0 
C:\Users\kasie\AppData\Local\Temp\ccBtjLu5.s:1782   .text.xQueueGenericReceive:0000000000000014 .L0 
C:\Users\kasie\AppData\Local\Temp\ccBtjLu5.s:1783   .text.xQueueGenericReceive:0000000000000014 .L0 
C:\Users\kasie\AppData\Local\Temp\ccBtjLu5.s:1784   .text.xQueueGenericReceive:0000000000000014 .L0 
lib/freertos/src/queue.c:1244   .text.xQueueGenericReceive:0000000000000014 .L0 
C:\Users\kasie\AppData\Local\Temp\ccBtjLu5.s:1794   .text.xQueueGenericReceive:0000000000000018 .L0 
C:\Users\kasie\AppData\Local\Temp\ccBtjLu5.s:1795   .text.xQueueGenericReceive:0000000000000018 .L0 
C:\Users\kasie\AppData\Local\Temp\ccBtjLu5.s:1796   .text.xQueueGenericReceive:0000000000000018 .L0 
C:\Users\kasie\AppData\Local\Temp\ccBtjLu5.s:1797   .text.xQueueGenericReceive:0000000000000018 .L0 
C:\Users\kasie\AppData\Local\Temp\ccBtjLu5.s:1800   .text.xQueueGenericReceive:000000000000001a .L0 
C:\Users\kasie\AppData\Local\Temp\ccBtjLu5.s:1801   .text.xQueueGenericReceive:000000000000001a .L0 
C:\Users\kasie\AppData\Local\Temp\ccBtjLu5.s:1806   .text.xQueueGenericReceive:0000000000000020 .L0 
C:\Users\kasie\AppData\Local\Temp\ccBtjLu5.s:1807   .text.xQueueGenericReceive:0000000000000020 .L0 
GAS LISTING C:\Users\kasie\AppData\Local\Temp\ccBtjLu5.s 			page 129


C:\Users\kasie\AppData\Local\Temp\ccBtjLu5.s:1808   .text.xQueueGenericReceive:0000000000000020 .L0 
lib/freertos/src/queue.c:1245   .text.xQueueGenericReceive:0000000000000020 .L0 
C:\Users\kasie\AppData\Local\Temp\ccBtjLu5.s:1818   .text.xQueueGenericReceive:0000000000000024 .L0 
C:\Users\kasie\AppData\Local\Temp\ccBtjLu5.s:1819   .text.xQueueGenericReceive:0000000000000024 .L0 
C:\Users\kasie\AppData\Local\Temp\ccBtjLu5.s:1820   .text.xQueueGenericReceive:0000000000000024 .L0 
C:\Users\kasie\AppData\Local\Temp\ccBtjLu5.s:1821   .text.xQueueGenericReceive:0000000000000024 .L0 
C:\Users\kasie\AppData\Local\Temp\ccBtjLu5.s:1827   .text.xQueueGenericReceive:000000000000002c .L0 
C:\Users\kasie\AppData\Local\Temp\ccBtjLu5.s:1828   .text.xQueueGenericReceive:000000000000002c .L0 
C:\Users\kasie\AppData\Local\Temp\ccBtjLu5.s:1832   .text.xQueueGenericReceive:0000000000000036 .L0 
C:\Users\kasie\AppData\Local\Temp\ccBtjLu5.s:1836   .text.xQueueGenericReceive:000000000000003a .L0 
C:\Users\kasie\AppData\Local\Temp\ccBtjLu5.s:1837   .text.xQueueGenericReceive:000000000000003a .L0 
C:\Users\kasie\AppData\Local\Temp\ccBtjLu5.s:1838   .text.xQueueGenericReceive:000000000000003a .L0 
lib/freertos/src/queue.c:1248   .text.xQueueGenericReceive:000000000000003a .L0 
C:\Users\kasie\AppData\Local\Temp\ccBtjLu5.s:1848   .text.xQueueGenericReceive:000000000000003e .L0 
C:\Users\kasie\AppData\Local\Temp\ccBtjLu5.s:1849   .text.xQueueGenericReceive:000000000000003e .L0 
C:\Users\kasie\AppData\Local\Temp\ccBtjLu5.s:1850   .text.xQueueGenericReceive:000000000000003e .L0 
C:\Users\kasie\AppData\Local\Temp\ccBtjLu5.s:1851   .text.xQueueGenericReceive:000000000000003e .L0 
C:\Users\kasie\AppData\Local\Temp\ccBtjLu5.s:1856   .text.xQueueGenericReceive:0000000000000042 .L0 
C:\Users\kasie\AppData\Local\Temp\ccBtjLu5.s:1858   .text.xQueueGenericReceive:0000000000000044 .L0 
C:\Users\kasie\AppData\Local\Temp\ccBtjLu5.s:1864   .text.xQueueGenericReceive:000000000000004a .L0 
C:\Users\kasie\AppData\Local\Temp\ccBtjLu5.s:1865   .text.xQueueGenericReceive:000000000000004a .L0 
C:\Users\kasie\AppData\Local\Temp\ccBtjLu5.s:1866   .text.xQueueGenericReceive:000000000000004a .L0 
C:\Users\kasie\AppData\Local\Temp\ccBtjLu5.s:1868   .text.xQueueGenericReceive:000000000000004c .L0 
C:\Users\kasie\AppData\Local\Temp\ccBtjLu5.s:1870   .text.xQueueGenericReceive:0000000000000050 .L0 
C:\Users\kasie\AppData\Local\Temp\ccBtjLu5.s:1871   .text.xQueueGenericReceive:0000000000000050 .L0 
C:\Users\kasie\AppData\Local\Temp\ccBtjLu5.s:1873   .text.xQueueGenericReceive:0000000000000054 .L0 
C:\Users\kasie\AppData\Local\Temp\ccBtjLu5.s:1874   .text.xQueueGenericReceive:0000000000000054 .L0 
C:\Users\kasie\AppData\Local\Temp\ccBtjLu5.s:1880   .text.xQueueGenericReceive:0000000000000060 .L0 
C:\Users\kasie\AppData\Local\Temp\ccBtjLu5.s:1883   .text.xQueueGenericReceive:0000000000000064 .L0 
C:\Users\kasie\AppData\Local\Temp\ccBtjLu5.s:1884   .text.xQueueGenericReceive:0000000000000064 .L0 
lib/freertos/src/queue.c:1325   .text.xQueueGenericReceive:0000000000000068 .L0 
C:\Users\kasie\AppData\Local\Temp\ccBtjLu5.s:1893   .text.xQueueGenericReceive:000000000000006c .L0 
C:\Users\kasie\AppData\Local\Temp\ccBtjLu5.s:1894   .text.xQueueGenericReceive:000000000000006c .L0 
C:\Users\kasie\AppData\Local\Temp\ccBtjLu5.s:1898   .text.xQueueGenericReceive:000000000000006e .L0 
C:\Users\kasie\AppData\Local\Temp\ccBtjLu5.s:1899   .text.xQueueGenericReceive:000000000000006e .L0 
C:\Users\kasie\AppData\Local\Temp\ccBtjLu5.s:1904   .text.xQueueGenericReceive:0000000000000072 .L0 
C:\Users\kasie\AppData\Local\Temp\ccBtjLu5.s:1907   .text.xQueueGenericReceive:000000000000007a .L0 
C:\Users\kasie\AppData\Local\Temp\ccBtjLu5.s:1908   .text.xQueueGenericReceive:000000000000007a .L0 
C:\Users\kasie\AppData\Local\Temp\ccBtjLu5.s:1909   .text.xQueueGenericReceive:000000000000007a .L0 
C:\Users\kasie\AppData\Local\Temp\ccBtjLu5.s:1914   .text.xQueueGenericReceive:000000000000007e .L0 
C:\Users\kasie\AppData\Local\Temp\ccBtjLu5.s:1915   .text.xQueueGenericReceive:000000000000007e .L0 
C:\Users\kasie\AppData\Local\Temp\ccBtjLu5.s:1917   .text.xQueueGenericReceive:0000000000000080 .L0 
C:\Users\kasie\AppData\Local\Temp\ccBtjLu5.s:1922   .text.xQueueGenericReceive:000000000000008a .L0 
C:\Users\kasie\AppData\Local\Temp\ccBtjLu5.s:1924   .text.xQueueGenericReceive:000000000000008a .L0 
C:\Users\kasie\AppData\Local\Temp\ccBtjLu5.s:1925   .text.xQueueGenericReceive:000000000000008a .L0 
C:\Users\kasie\AppData\Local\Temp\ccBtjLu5.s:1928   .text.xQueueGenericReceive:0000000000000092 .L0 
C:\Users\kasie\AppData\Local\Temp\ccBtjLu5.s:1931   .text.xQueueGenericReceive:000000000000009a .L0 
C:\Users\kasie\AppData\Local\Temp\ccBtjLu5.s:1934   .text.xQueueGenericReceive:00000000000000a2 .L0 
C:\Users\kasie\AppData\Local\Temp\ccBtjLu5.s:1939   .text.xQueueGenericReceive:00000000000000ae .L0 
C:\Users\kasie\AppData\Local\Temp\ccBtjLu5.s:1942   .text.xQueueGenericReceive:00000000000000b2 .L0 
C:\Users\kasie\AppData\Local\Temp\ccBtjLu5.s:1947   .text.xQueueGenericReceive:00000000000000be .L0 
C:\Users\kasie\AppData\Local\Temp\ccBtjLu5.s:1950   .text.xQueueGenericReceive:00000000000000c2 .L0 
C:\Users\kasie\AppData\Local\Temp\ccBtjLu5.s:1953   .text.xQueueGenericReceive:00000000000000ca .L0 
C:\Users\kasie\AppData\Local\Temp\ccBtjLu5.s:1954   .text.xQueueGenericReceive:00000000000000ca .L0 
C:\Users\kasie\AppData\Local\Temp\ccBtjLu5.s:1959   .text.xQueueGenericReceive:00000000000000d6 .L0 
C:\Users\kasie\AppData\Local\Temp\ccBtjLu5.s:1964   .text.xQueueGenericReceive:00000000000000d8 .L0 
C:\Users\kasie\AppData\Local\Temp\ccBtjLu5.s:1965   .text.xQueueGenericReceive:00000000000000d8 .L0 
GAS LISTING C:\Users\kasie\AppData\Local\Temp\ccBtjLu5.s 			page 130


C:\Users\kasie\AppData\Local\Temp\ccBtjLu5.s:1966   .text.xQueueGenericReceive:00000000000000d8 .L0 
C:\Users\kasie\AppData\Local\Temp\ccBtjLu5.s:1969   .text.xQueueGenericReceive:00000000000000e0 .L0 
C:\Users\kasie\AppData\Local\Temp\ccBtjLu5.s:1970   .text.xQueueGenericReceive:00000000000000e0 .L0 
C:\Users\kasie\AppData\Local\Temp\ccBtjLu5.s:1972   .text.xQueueGenericReceive:00000000000000e2 .L0 
C:\Users\kasie\AppData\Local\Temp\ccBtjLu5.s:1975   .text.xQueueGenericReceive:00000000000000e4 .L0 
C:\Users\kasie\AppData\Local\Temp\ccBtjLu5.s:1980   .text.xQueueGenericReceive:00000000000000ec .L0 
C:\Users\kasie\AppData\Local\Temp\ccBtjLu5.s:1981   .text.xQueueGenericReceive:00000000000000ec .L0 
C:\Users\kasie\AppData\Local\Temp\ccBtjLu5.s:1982   .text.xQueueGenericReceive:00000000000000ec .L0 
C:\Users\kasie\AppData\Local\Temp\ccBtjLu5.s:1983   .text.xQueueGenericReceive:00000000000000ec .L0 
C:\Users\kasie\AppData\Local\Temp\ccBtjLu5.s:1986   .text.xQueueGenericReceive:00000000000000f0 .L0 
C:\Users\kasie\AppData\Local\Temp\ccBtjLu5.s:1989   .text.xQueueGenericReceive:00000000000000f8 .L0 
C:\Users\kasie\AppData\Local\Temp\ccBtjLu5.s:1993   .text.xQueueGenericReceive:0000000000000102 .L0 
C:\Users\kasie\AppData\Local\Temp\ccBtjLu5.s:1997   .text.xQueueGenericReceive:000000000000010a .L0 
C:\Users\kasie\AppData\Local\Temp\ccBtjLu5.s:1998   .text.xQueueGenericReceive:000000000000010a .L0 
C:\Users\kasie\AppData\Local\Temp\ccBtjLu5.s:2003   .text.xQueueGenericReceive:0000000000000116 .L0 
C:\Users\kasie\AppData\Local\Temp\ccBtjLu5.s:2007   .text.xQueueGenericReceive:0000000000000120 .L0 
C:\Users\kasie\AppData\Local\Temp\ccBtjLu5.s:2008   .text.xQueueGenericReceive:0000000000000120 .L0 
C:\Users\kasie\AppData\Local\Temp\ccBtjLu5.s:2011   .text.xQueueGenericReceive:0000000000000128 .L0 
C:\Users\kasie\AppData\Local\Temp\ccBtjLu5.s:2014   .text.xQueueGenericReceive:000000000000012a .L0 
C:\Users\kasie\AppData\Local\Temp\ccBtjLu5.s:2015   .text.xQueueGenericReceive:000000000000012a .L0 
lib/freertos/src/queue.c:1401   .text.xQueueGenericReceive:000000000000012e .L0 
C:\Users\kasie\AppData\Local\Temp\ccBtjLu5.s:2024   .text.xQueueGenericReceive:0000000000000132 .L0 
C:\Users\kasie\AppData\Local\Temp\ccBtjLu5.s:2025   .text.xQueueGenericReceive:0000000000000132 .L0 
C:\Users\kasie\AppData\Local\Temp\ccBtjLu5.s:2031   .text.xQueueGenericReceive:0000000000000134 .L0 
C:\Users\kasie\AppData\Local\Temp\ccBtjLu5.s:2032   .text.xQueueGenericReceive:0000000000000134 .L0 
C:\Users\kasie\AppData\Local\Temp\ccBtjLu5.s:2037   .text.xQueueGenericReceive:000000000000013c .L0 
C:\Users\kasie\AppData\Local\Temp\ccBtjLu5.s:2038   .text.xQueueGenericReceive:000000000000013c .L0 
C:\Users\kasie\AppData\Local\Temp\ccBtjLu5.s:2042   .text.xQueueGenericReceive:0000000000000146 .L0 
C:\Users\kasie\AppData\Local\Temp\ccBtjLu5.s:2043   .text.xQueueGenericReceive:0000000000000146 .L0 
C:\Users\kasie\AppData\Local\Temp\ccBtjLu5.s:2052   .text.xQueueGenericReceive:0000000000000152 .L0 
C:\Users\kasie\AppData\Local\Temp\ccBtjLu5.s:2053   .text.xQueueGenericReceive:0000000000000152 .L0 
C:\Users\kasie\AppData\Local\Temp\ccBtjLu5.s:2054   .text.xQueueGenericReceive:0000000000000152 .L0 
C:\Users\kasie\AppData\Local\Temp\ccBtjLu5.s:2058   .text.xQueueGenericReceive:000000000000015a .L0 
C:\Users\kasie\AppData\Local\Temp\ccBtjLu5.s:2059   .text.xQueueGenericReceive:000000000000015a .L0 
C:\Users\kasie\AppData\Local\Temp\ccBtjLu5.s:2062   .text.xQueueGenericReceive:000000000000015c .L0 
C:\Users\kasie\AppData\Local\Temp\ccBtjLu5.s:2063   .text.xQueueGenericReceive:000000000000015c .L0 
C:\Users\kasie\AppData\Local\Temp\ccBtjLu5.s:2066   .text.xQueueGenericReceive:0000000000000160 .L0 
C:\Users\kasie\AppData\Local\Temp\ccBtjLu5.s:2067   .text.xQueueGenericReceive:0000000000000160 .L0 
C:\Users\kasie\AppData\Local\Temp\ccBtjLu5.s:2070   .text.xQueueGenericReceive:0000000000000164 .L0 
C:\Users\kasie\AppData\Local\Temp\ccBtjLu5.s:2073   .text.xQueueGenericReceive:0000000000000168 .L0 
C:\Users\kasie\AppData\Local\Temp\ccBtjLu5.s:2076   .text.xQueueGenericReceive:0000000000000170 .L0 
C:\Users\kasie\AppData\Local\Temp\ccBtjLu5.s:2077   .text.xQueueGenericReceive:0000000000000170 .L0 
C:\Users\kasie\AppData\Local\Temp\ccBtjLu5.s:2079   .text.xQueueGenericReceive:0000000000000174 .L0 
C:\Users\kasie\AppData\Local\Temp\ccBtjLu5.s:2080   .text.xQueueGenericReceive:0000000000000174 .L0 
C:\Users\kasie\AppData\Local\Temp\ccBtjLu5.s:2081   .text.xQueueGenericReceive:0000000000000174 .L0 
C:\Users\kasie\AppData\Local\Temp\ccBtjLu5.s:2083   .text.xQueueGenericReceive:0000000000000176 .L0 
C:\Users\kasie\AppData\Local\Temp\ccBtjLu5.s:2086   .text.xQueueGenericReceive:0000000000000178 .L0 
C:\Users\kasie\AppData\Local\Temp\ccBtjLu5.s:2088   .text.xQueueGenericReceive:000000000000017a .L0 
C:\Users\kasie\AppData\Local\Temp\ccBtjLu5.s:2089   .text.xQueueGenericReceive:000000000000017a .L0 
C:\Users\kasie\AppData\Local\Temp\ccBtjLu5.s:2091   .text.xQueueGenericReceive:000000000000017c .L0 
C:\Users\kasie\AppData\Local\Temp\ccBtjLu5.s:2092   .text.xQueueGenericReceive:000000000000017c .L0 
C:\Users\kasie\AppData\Local\Temp\ccBtjLu5.s:2095   .text.xQueueGenericReceive:0000000000000184 .L0 
C:\Users\kasie\AppData\Local\Temp\ccBtjLu5.s:2098   .text.xQueueGenericReceive:0000000000000186 .L0 
C:\Users\kasie\AppData\Local\Temp\ccBtjLu5.s:2099   .text.xQueueGenericReceive:0000000000000186 .L0 
C:\Users\kasie\AppData\Local\Temp\ccBtjLu5.s:2100   .text.xQueueGenericReceive:0000000000000186 .L0 
C:\Users\kasie\AppData\Local\Temp\ccBtjLu5.s:2102   .text.xQueueGenericReceive:0000000000000188 .L0 
C:\Users\kasie\AppData\Local\Temp\ccBtjLu5.s:2104   .text.xQueueGenericReceive:000000000000018c .L0 
GAS LISTING C:\Users\kasie\AppData\Local\Temp\ccBtjLu5.s 			page 131


C:\Users\kasie\AppData\Local\Temp\ccBtjLu5.s:2108   .text.xQueueGenericReceive:0000000000000190 .L0 
C:\Users\kasie\AppData\Local\Temp\ccBtjLu5.s:2109   .text.xQueueGenericReceive:0000000000000190 .L0 
C:\Users\kasie\AppData\Local\Temp\ccBtjLu5.s:2112   .text.xQueueGenericReceive:0000000000000198 .L0 
C:\Users\kasie\AppData\Local\Temp\ccBtjLu5.s:2113   .text.xQueueGenericReceive:0000000000000198 .L0 
C:\Users\kasie\AppData\Local\Temp\ccBtjLu5.s:2118   .text.xQueueGenericReceive:000000000000019a .L0 
C:\Users\kasie\AppData\Local\Temp\ccBtjLu5.s:2119   .text.xQueueGenericReceive:000000000000019c .L0 
C:\Users\kasie\AppData\Local\Temp\ccBtjLu5.s:2120   .text.xQueueGenericReceive:000000000000019c .L0 
C:\Users\kasie\AppData\Local\Temp\ccBtjLu5.s:2122   .text.xQueueGenericReceive:000000000000019e .L0 
C:\Users\kasie\AppData\Local\Temp\ccBtjLu5.s:2125   .text.xQueueGenericReceive:00000000000001a0 .L0 
C:\Users\kasie\AppData\Local\Temp\ccBtjLu5.s:2127   .text.xQueueGenericReceive:00000000000001a2 .L0 
C:\Users\kasie\AppData\Local\Temp\ccBtjLu5.s:2129   .text.xQueueGenericReceive:00000000000001a4 .L0 
C:\Users\kasie\AppData\Local\Temp\ccBtjLu5.s:2132   .text.xQueueGenericReceive:00000000000001a6 .L0 
C:\Users\kasie\AppData\Local\Temp\ccBtjLu5.s:2135   .text.xQueueGenericReceive:00000000000001a8 .L0 
C:\Users\kasie\AppData\Local\Temp\ccBtjLu5.s:2139   .text.xQueueGenericReceive:00000000000001aa .L0 
C:\Users\kasie\AppData\Local\Temp\ccBtjLu5.s:2144   .text.xQueueGenericReceive:00000000000001ac .L0 
C:\Users\kasie\AppData\Local\Temp\ccBtjLu5.s:2146   .text.xQueueGenericReceive:00000000000001ac .L0 
C:\Users\kasie\AppData\Local\Temp\ccBtjLu5.s:2150   .text.xQueueGenericReceive:00000000000001b6 .L0 
C:\Users\kasie\AppData\Local\Temp\ccBtjLu5.s:2151   .text.xQueueGenericReceive:00000000000001b6 .L0 
C:\Users\kasie\AppData\Local\Temp\ccBtjLu5.s:2156   .text.xQueueGenericReceive:00000000000001be .L0 
C:\Users\kasie\AppData\Local\Temp\ccBtjLu5.s:2157   .text.xQueueGenericReceive:00000000000001be .L0 
C:\Users\kasie\AppData\Local\Temp\ccBtjLu5.s:2158   .text.xQueueGenericReceive:00000000000001be .L0 
C:\Users\kasie\AppData\Local\Temp\ccBtjLu5.s:2161   .text.xQueueGenericReceive:00000000000001c6 .L0 
C:\Users\kasie\AppData\Local\Temp\ccBtjLu5.s:2162   .text.xQueueGenericReceive:00000000000001c6 .L0 
C:\Users\kasie\AppData\Local\Temp\ccBtjLu5.s:2164   .text.xQueueGenericReceive:00000000000001c8 .L0 
C:\Users\kasie\AppData\Local\Temp\ccBtjLu5.s:2167   .text.xQueueGenericReceive:00000000000001cc .L0 
C:\Users\kasie\AppData\Local\Temp\ccBtjLu5.s:2168   .text.xQueueGenericReceive:00000000000001cc .L0 
C:\Users\kasie\AppData\Local\Temp\ccBtjLu5.s:2171   .text.xQueueGenericReceive:00000000000001d4 .L0 
C:\Users\kasie\AppData\Local\Temp\ccBtjLu5.s:2174   .text.xQueueGenericReceive:00000000000001d6 .L0 
C:\Users\kasie\AppData\Local\Temp\ccBtjLu5.s:2181   .text.xQueueReceiveFromISR:0000000000000000 xQueueReceiveFromISR
C:\Users\kasie\AppData\Local\Temp\ccBtjLu5.s:2184   .text.xQueueReceiveFromISR:0000000000000000 .L0 
C:\Users\kasie\AppData\Local\Temp\ccBtjLu5.s:2186   .text.xQueueReceiveFromISR:0000000000000000 .L0 
C:\Users\kasie\AppData\Local\Temp\ccBtjLu5.s:2187   .text.xQueueReceiveFromISR:0000000000000000 .L0 
C:\Users\kasie\AppData\Local\Temp\ccBtjLu5.s:2188   .text.xQueueReceiveFromISR:0000000000000000 .L0 
C:\Users\kasie\AppData\Local\Temp\ccBtjLu5.s:2189   .text.xQueueReceiveFromISR:0000000000000000 .L0 
C:\Users\kasie\AppData\Local\Temp\ccBtjLu5.s:2190   .text.xQueueReceiveFromISR:0000000000000000 .L0 
C:\Users\kasie\AppData\Local\Temp\ccBtjLu5.s:2193   .text.xQueueReceiveFromISR:0000000000000002 .L0 
C:\Users\kasie\AppData\Local\Temp\ccBtjLu5.s:2194   .text.xQueueReceiveFromISR:0000000000000002 .L0 
C:\Users\kasie\AppData\Local\Temp\ccBtjLu5.s:2195   .text.xQueueReceiveFromISR:0000000000000002 .L0 
lib/freertos/src/queue.c:1440   .text.xQueueReceiveFromISR:0000000000000002 .L0 
C:\Users\kasie\AppData\Local\Temp\ccBtjLu5.s:2205   .text.xQueueReceiveFromISR:0000000000000006 .L0 
C:\Users\kasie\AppData\Local\Temp\ccBtjLu5.s:2206   .text.xQueueReceiveFromISR:0000000000000006 .L0 
C:\Users\kasie\AppData\Local\Temp\ccBtjLu5.s:2207   .text.xQueueReceiveFromISR:0000000000000006 .L0 
C:\Users\kasie\AppData\Local\Temp\ccBtjLu5.s:2208   .text.xQueueReceiveFromISR:0000000000000006 .L0 
C:\Users\kasie\AppData\Local\Temp\ccBtjLu5.s:2211   .text.xQueueReceiveFromISR:0000000000000008 .L0 
C:\Users\kasie\AppData\Local\Temp\ccBtjLu5.s:2212   .text.xQueueReceiveFromISR:0000000000000008 .L0 
C:\Users\kasie\AppData\Local\Temp\ccBtjLu5.s:2217   .text.xQueueReceiveFromISR:000000000000000e .L0 
C:\Users\kasie\AppData\Local\Temp\ccBtjLu5.s:2218   .text.xQueueReceiveFromISR:000000000000000e .L0 
C:\Users\kasie\AppData\Local\Temp\ccBtjLu5.s:2219   .text.xQueueReceiveFromISR:000000000000000e .L0 
lib/freertos/src/queue.c:1441   .text.xQueueReceiveFromISR:000000000000000e .L0 
C:\Users\kasie\AppData\Local\Temp\ccBtjLu5.s:2229   .text.xQueueReceiveFromISR:0000000000000012 .L0 
C:\Users\kasie\AppData\Local\Temp\ccBtjLu5.s:2230   .text.xQueueReceiveFromISR:0000000000000012 .L0 
C:\Users\kasie\AppData\Local\Temp\ccBtjLu5.s:2231   .text.xQueueReceiveFromISR:0000000000000012 .L0 
C:\Users\kasie\AppData\Local\Temp\ccBtjLu5.s:2232   .text.xQueueReceiveFromISR:0000000000000012 .L0 
C:\Users\kasie\AppData\Local\Temp\ccBtjLu5.s:2235   .text.xQueueReceiveFromISR:0000000000000014 .L0 
C:\Users\kasie\AppData\Local\Temp\ccBtjLu5.s:2237   .text.xQueueReceiveFromISR:0000000000000016 .L0 
C:\Users\kasie\AppData\Local\Temp\ccBtjLu5.s:2239   .text.xQueueReceiveFromISR:0000000000000018 .L0 
C:\Users\kasie\AppData\Local\Temp\ccBtjLu5.s:2242   .text.xQueueReceiveFromISR:000000000000001a .L0 
GAS LISTING C:\Users\kasie\AppData\Local\Temp\ccBtjLu5.s 			page 132


C:\Users\kasie\AppData\Local\Temp\ccBtjLu5.s:2243   .text.xQueueReceiveFromISR:000000000000001a .L0 
C:\Users\kasie\AppData\Local\Temp\ccBtjLu5.s:2244   .text.xQueueReceiveFromISR:000000000000001a .L0 
C:\Users\kasie\AppData\Local\Temp\ccBtjLu5.s:2245   .text.xQueueReceiveFromISR:000000000000001a .L0 
C:\Users\kasie\AppData\Local\Temp\ccBtjLu5.s:2252   .text.xQueueReceiveFromISR:0000000000000028 .L0 
C:\Users\kasie\AppData\Local\Temp\ccBtjLu5.s:2253   .text.xQueueReceiveFromISR:0000000000000028 .L0 
C:\Users\kasie\AppData\Local\Temp\ccBtjLu5.s:2254   .text.xQueueReceiveFromISR:0000000000000028 .L0 
C:\Users\kasie\AppData\Local\Temp\ccBtjLu5.s:2255   .text.xQueueReceiveFromISR:0000000000000028 .L0 
C:\Users\kasie\AppData\Local\Temp\ccBtjLu5.s:2256   .text.xQueueReceiveFromISR:0000000000000028 .L0 
C:\Users\kasie\AppData\Local\Temp\ccBtjLu5.s:2257   .text.xQueueReceiveFromISR:0000000000000028 .L0 
C:\Users\kasie\AppData\Local\Temp\ccBtjLu5.s:2260   .text.xQueueReceiveFromISR:000000000000002a .L0 
C:\Users\kasie\AppData\Local\Temp\ccBtjLu5.s:2264   .text.xQueueReceiveFromISR:0000000000000032 .L0 
C:\Users\kasie\AppData\Local\Temp\ccBtjLu5.s:2267   .text.xQueueReceiveFromISR:0000000000000036 .L0 
C:\Users\kasie\AppData\Local\Temp\ccBtjLu5.s:2271   .text.xQueueReceiveFromISR:0000000000000038 .L0 
C:\Users\kasie\AppData\Local\Temp\ccBtjLu5.s:2272   .text.xQueueReceiveFromISR:0000000000000038 .L0 
C:\Users\kasie\AppData\Local\Temp\ccBtjLu5.s:2273   .text.xQueueReceiveFromISR:0000000000000038 .L0 
C:\Users\kasie\AppData\Local\Temp\ccBtjLu5.s:2275   .text.xQueueReceiveFromISR:000000000000003a .L0 
C:\Users\kasie\AppData\Local\Temp\ccBtjLu5.s:2279   .text.xQueueReceiveFromISR:0000000000000040 .L0 
C:\Users\kasie\AppData\Local\Temp\ccBtjLu5.s:2280   .text.xQueueReceiveFromISR:0000000000000040 .L0 
C:\Users\kasie\AppData\Local\Temp\ccBtjLu5.s:2282   .text.xQueueReceiveFromISR:0000000000000044 .L0 
C:\Users\kasie\AppData\Local\Temp\ccBtjLu5.s:2287   .text.xQueueReceiveFromISR:000000000000004e .L0 
C:\Users\kasie\AppData\Local\Temp\ccBtjLu5.s:2289   .text.xQueueReceiveFromISR:0000000000000052 .L0 
C:\Users\kasie\AppData\Local\Temp\ccBtjLu5.s:2292   .text.xQueueReceiveFromISR:0000000000000054 .L0 
C:\Users\kasie\AppData\Local\Temp\ccBtjLu5.s:2295   .text.xQueueReceiveFromISR:0000000000000058 .L0 
C:\Users\kasie\AppData\Local\Temp\ccBtjLu5.s:2296   .text.xQueueReceiveFromISR:0000000000000058 .L0 
C:\Users\kasie\AppData\Local\Temp\ccBtjLu5.s:2297   .text.xQueueReceiveFromISR:0000000000000058 .L0 
C:\Users\kasie\AppData\Local\Temp\ccBtjLu5.s:2298   .text.xQueueReceiveFromISR:0000000000000058 .L0 
C:\Users\kasie\AppData\Local\Temp\ccBtjLu5.s:2300   .text.xQueueReceiveFromISR:000000000000005c .L0 
C:\Users\kasie\AppData\Local\Temp\ccBtjLu5.s:2301   .text.xQueueReceiveFromISR:000000000000005c .L0 
C:\Users\kasie\AppData\Local\Temp\ccBtjLu5.s:2304   .text.xQueueReceiveFromISR:0000000000000062 .L0 
C:\Users\kasie\AppData\Local\Temp\ccBtjLu5.s:2305   .text.xQueueReceiveFromISR:0000000000000062 .L0 
C:\Users\kasie\AppData\Local\Temp\ccBtjLu5.s:2310   .text.xQueueReceiveFromISR:0000000000000066 .L0 
C:\Users\kasie\AppData\Local\Temp\ccBtjLu5.s:2316   .text.xQueueReceiveFromISR:0000000000000068 .L0 
C:\Users\kasie\AppData\Local\Temp\ccBtjLu5.s:2317   .text.xQueueReceiveFromISR:0000000000000068 .L0 
C:\Users\kasie\AppData\Local\Temp\ccBtjLu5.s:2321   .text.xQueueReceiveFromISR:0000000000000072 .L0 
C:\Users\kasie\AppData\Local\Temp\ccBtjLu5.s:2322   .text.xQueueReceiveFromISR:0000000000000072 .L0 
C:\Users\kasie\AppData\Local\Temp\ccBtjLu5.s:2323   .text.xQueueReceiveFromISR:0000000000000074 .L0 
C:\Users\kasie\AppData\Local\Temp\ccBtjLu5.s:2324   .text.xQueueReceiveFromISR:0000000000000074 .L0 
C:\Users\kasie\AppData\Local\Temp\ccBtjLu5.s:2326   .text.xQueueReceiveFromISR:0000000000000076 .L0 
C:\Users\kasie\AppData\Local\Temp\ccBtjLu5.s:2330   .text.xQueueReceiveFromISR:000000000000007a .L0 
C:\Users\kasie\AppData\Local\Temp\ccBtjLu5.s:2333   .text.xQueueReceiveFromISR:000000000000007c .L0 
C:\Users\kasie\AppData\Local\Temp\ccBtjLu5.s:2336   .text.xQueueReceiveFromISR:000000000000007e .L0 
C:\Users\kasie\AppData\Local\Temp\ccBtjLu5.s:2338   .text.xQueueReceiveFromISR:0000000000000080 .L0 
C:\Users\kasie\AppData\Local\Temp\ccBtjLu5.s:2341   .text.xQueueReceiveFromISR:0000000000000082 .L0 
C:\Users\kasie\AppData\Local\Temp\ccBtjLu5.s:2344   .text.xQueueReceiveFromISR:0000000000000084 .L0 
C:\Users\kasie\AppData\Local\Temp\ccBtjLu5.s:2350   .text.xQueueReceiveFromISR:0000000000000086 .L0 
C:\Users\kasie\AppData\Local\Temp\ccBtjLu5.s:2354   .text.xQueueReceiveFromISR:0000000000000086 .L0 
C:\Users\kasie\AppData\Local\Temp\ccBtjLu5.s:2355   .text.xQueueReceiveFromISR:0000000000000086 .L0 
C:\Users\kasie\AppData\Local\Temp\ccBtjLu5.s:2359   .text.xQueueReceiveFromISR:0000000000000092 .L0 
C:\Users\kasie\AppData\Local\Temp\ccBtjLu5.s:2361   .text.xQueueReceiveFromISR:0000000000000094 .L0 
C:\Users\kasie\AppData\Local\Temp\ccBtjLu5.s:2362   .text.xQueueReceiveFromISR:0000000000000094 .L0 
C:\Users\kasie\AppData\Local\Temp\ccBtjLu5.s:2364   .text.xQueueReceiveFromISR:0000000000000098 .L0 
C:\Users\kasie\AppData\Local\Temp\ccBtjLu5.s:2365   .text.xQueueReceiveFromISR:0000000000000098 .L0 
C:\Users\kasie\AppData\Local\Temp\ccBtjLu5.s:2370   .text.xQueueReceiveFromISR:00000000000000a0 .L0 
C:\Users\kasie\AppData\Local\Temp\ccBtjLu5.s:2371   .text.xQueueReceiveFromISR:00000000000000a0 .L0 
C:\Users\kasie\AppData\Local\Temp\ccBtjLu5.s:2374   .text.xQueueReceiveFromISR:00000000000000a2 .L0 
C:\Users\kasie\AppData\Local\Temp\ccBtjLu5.s:2377   .text.xQueueReceiveFromISR:00000000000000a6 .L0 
C:\Users\kasie\AppData\Local\Temp\ccBtjLu5.s:2381   .text.xQueueReceiveFromISR:00000000000000ac .L0 
GAS LISTING C:\Users\kasie\AppData\Local\Temp\ccBtjLu5.s 			page 133


C:\Users\kasie\AppData\Local\Temp\ccBtjLu5.s:2388   .text.xQueuePeekFromISR:0000000000000000 xQueuePeekFromISR
C:\Users\kasie\AppData\Local\Temp\ccBtjLu5.s:2391   .text.xQueuePeekFromISR:0000000000000000 .L0 
C:\Users\kasie\AppData\Local\Temp\ccBtjLu5.s:2393   .text.xQueuePeekFromISR:0000000000000000 .L0 
C:\Users\kasie\AppData\Local\Temp\ccBtjLu5.s:2394   .text.xQueuePeekFromISR:0000000000000000 .L0 
C:\Users\kasie\AppData\Local\Temp\ccBtjLu5.s:2395   .text.xQueuePeekFromISR:0000000000000000 .L0 
C:\Users\kasie\AppData\Local\Temp\ccBtjLu5.s:2396   .text.xQueuePeekFromISR:0000000000000000 .L0 
C:\Users\kasie\AppData\Local\Temp\ccBtjLu5.s:2397   .text.xQueuePeekFromISR:0000000000000000 .L0 
C:\Users\kasie\AppData\Local\Temp\ccBtjLu5.s:2398   .text.xQueuePeekFromISR:0000000000000000 .L0 
C:\Users\kasie\AppData\Local\Temp\ccBtjLu5.s:2401   .text.xQueuePeekFromISR:0000000000000002 .L0 
C:\Users\kasie\AppData\Local\Temp\ccBtjLu5.s:2402   .text.xQueuePeekFromISR:0000000000000002 .L0 
C:\Users\kasie\AppData\Local\Temp\ccBtjLu5.s:2403   .text.xQueuePeekFromISR:0000000000000002 .L0 
lib/freertos/src/queue.c:1532   .text.xQueuePeekFromISR:0000000000000002 .L0 
C:\Users\kasie\AppData\Local\Temp\ccBtjLu5.s:2413   .text.xQueuePeekFromISR:0000000000000006 .L0 
C:\Users\kasie\AppData\Local\Temp\ccBtjLu5.s:2414   .text.xQueuePeekFromISR:0000000000000006 .L0 
C:\Users\kasie\AppData\Local\Temp\ccBtjLu5.s:2415   .text.xQueuePeekFromISR:0000000000000006 .L0 
C:\Users\kasie\AppData\Local\Temp\ccBtjLu5.s:2416   .text.xQueuePeekFromISR:0000000000000006 .L0 
C:\Users\kasie\AppData\Local\Temp\ccBtjLu5.s:2419   .text.xQueuePeekFromISR:0000000000000008 .L0 
C:\Users\kasie\AppData\Local\Temp\ccBtjLu5.s:2420   .text.xQueuePeekFromISR:0000000000000008 .L0 
C:\Users\kasie\AppData\Local\Temp\ccBtjLu5.s:2425   .text.xQueuePeekFromISR:000000000000000e .L0 
C:\Users\kasie\AppData\Local\Temp\ccBtjLu5.s:2426   .text.xQueuePeekFromISR:000000000000000e .L0 
C:\Users\kasie\AppData\Local\Temp\ccBtjLu5.s:2427   .text.xQueuePeekFromISR:000000000000000e .L0 
lib/freertos/src/queue.c:1533   .text.xQueuePeekFromISR:000000000000000e .L0 
C:\Users\kasie\AppData\Local\Temp\ccBtjLu5.s:2437   .text.xQueuePeekFromISR:0000000000000012 .L0 
C:\Users\kasie\AppData\Local\Temp\ccBtjLu5.s:2438   .text.xQueuePeekFromISR:0000000000000012 .L0 
C:\Users\kasie\AppData\Local\Temp\ccBtjLu5.s:2439   .text.xQueuePeekFromISR:0000000000000012 .L0 
C:\Users\kasie\AppData\Local\Temp\ccBtjLu5.s:2440   .text.xQueuePeekFromISR:0000000000000012 .L0 
C:\Users\kasie\AppData\Local\Temp\ccBtjLu5.s:2443   .text.xQueuePeekFromISR:0000000000000014 .L0 
C:\Users\kasie\AppData\Local\Temp\ccBtjLu5.s:2444   .text.xQueuePeekFromISR:0000000000000014 .L0 
C:\Users\kasie\AppData\Local\Temp\ccBtjLu5.s:2448   .text.xQueuePeekFromISR:0000000000000016 .L0 
C:\Users\kasie\AppData\Local\Temp\ccBtjLu5.s:2449   .text.xQueuePeekFromISR:0000000000000016 .L0 
C:\Users\kasie\AppData\Local\Temp\ccBtjLu5.s:2450   .text.xQueuePeekFromISR:0000000000000016 .L0 
lib/freertos/src/queue.c:1534   .text.xQueuePeekFromISR:0000000000000016 .L0 
C:\Users\kasie\AppData\Local\Temp\ccBtjLu5.s:2460   .text.xQueuePeekFromISR:000000000000001a .L0 
C:\Users\kasie\AppData\Local\Temp\ccBtjLu5.s:2461   .text.xQueuePeekFromISR:000000000000001a .L0 
C:\Users\kasie\AppData\Local\Temp\ccBtjLu5.s:2462   .text.xQueuePeekFromISR:000000000000001a .L0 
C:\Users\kasie\AppData\Local\Temp\ccBtjLu5.s:2463   .text.xQueuePeekFromISR:000000000000001a .L0 
C:\Users\kasie\AppData\Local\Temp\ccBtjLu5.s:2466   .text.xQueuePeekFromISR:000000000000001c .L0 
C:\Users\kasie\AppData\Local\Temp\ccBtjLu5.s:2468   .text.xQueuePeekFromISR:000000000000001e .L0 
C:\Users\kasie\AppData\Local\Temp\ccBtjLu5.s:2473   .text.xQueuePeekFromISR:0000000000000026 .L0 
C:\Users\kasie\AppData\Local\Temp\ccBtjLu5.s:2474   .text.xQueuePeekFromISR:0000000000000026 .L0 
C:\Users\kasie\AppData\Local\Temp\ccBtjLu5.s:2475   .text.xQueuePeekFromISR:0000000000000026 .L0 
C:\Users\kasie\AppData\Local\Temp\ccBtjLu5.s:2478   .text.xQueuePeekFromISR:0000000000000028 .L0 
C:\Users\kasie\AppData\Local\Temp\ccBtjLu5.s:2479   .text.xQueuePeekFromISR:0000000000000028 .L0 
C:\Users\kasie\AppData\Local\Temp\ccBtjLu5.s:2480   .text.xQueuePeekFromISR:0000000000000028 .L0 
C:\Users\kasie\AppData\Local\Temp\ccBtjLu5.s:2481   .text.xQueuePeekFromISR:0000000000000028 .L0 
C:\Users\kasie\AppData\Local\Temp\ccBtjLu5.s:2482   .text.xQueuePeekFromISR:000000000000002a .L0 
C:\Users\kasie\AppData\Local\Temp\ccBtjLu5.s:2484   .text.xQueuePeekFromISR:000000000000002a .L0 
C:\Users\kasie\AppData\Local\Temp\ccBtjLu5.s:2487   .text.xQueuePeekFromISR:0000000000000032 .L0 
C:\Users\kasie\AppData\Local\Temp\ccBtjLu5.s:2489   .text.xQueuePeekFromISR:0000000000000034 .L0 
C:\Users\kasie\AppData\Local\Temp\ccBtjLu5.s:2492   .text.xQueuePeekFromISR:0000000000000036 .L0 
C:\Users\kasie\AppData\Local\Temp\ccBtjLu5.s:2493   .text.xQueuePeekFromISR:0000000000000036 .L0 
C:\Users\kasie\AppData\Local\Temp\ccBtjLu5.s:2495   .text.xQueuePeekFromISR:0000000000000038 .L0 
C:\Users\kasie\AppData\Local\Temp\ccBtjLu5.s:2498   .text.xQueuePeekFromISR:000000000000003c .L0 
C:\Users\kasie\AppData\Local\Temp\ccBtjLu5.s:2499   .text.xQueuePeekFromISR:000000000000003c .L0 
C:\Users\kasie\AppData\Local\Temp\ccBtjLu5.s:2500   .text.xQueuePeekFromISR:000000000000003c .L0 
C:\Users\kasie\AppData\Local\Temp\ccBtjLu5.s:2503   .text.xQueuePeekFromISR:000000000000003e .L0 
C:\Users\kasie\AppData\Local\Temp\ccBtjLu5.s:2508   .text.xQueuePeekFromISR:0000000000000048 .L0 
GAS LISTING C:\Users\kasie\AppData\Local\Temp\ccBtjLu5.s 			page 134


C:\Users\kasie\AppData\Local\Temp\ccBtjLu5.s:2509   .text.xQueuePeekFromISR:0000000000000048 .L0 
C:\Users\kasie\AppData\Local\Temp\ccBtjLu5.s:2512   .text.xQueuePeekFromISR:000000000000004a .L0 
C:\Users\kasie\AppData\Local\Temp\ccBtjLu5.s:2513   .text.xQueuePeekFromISR:000000000000004a .L0 
C:\Users\kasie\AppData\Local\Temp\ccBtjLu5.s:2517   .text.xQueuePeekFromISR:000000000000004c .L0 
C:\Users\kasie\AppData\Local\Temp\ccBtjLu5.s:2518   .text.xQueuePeekFromISR:000000000000004c .L0 
C:\Users\kasie\AppData\Local\Temp\ccBtjLu5.s:2522   .text.xQueuePeekFromISR:0000000000000056 .L0 
C:\Users\kasie\AppData\Local\Temp\ccBtjLu5.s:2523   .text.xQueuePeekFromISR:0000000000000056 .L0 
C:\Users\kasie\AppData\Local\Temp\ccBtjLu5.s:2524   .text.xQueuePeekFromISR:0000000000000058 .L0 
C:\Users\kasie\AppData\Local\Temp\ccBtjLu5.s:2526   .text.xQueuePeekFromISR:000000000000005a .L0 
C:\Users\kasie\AppData\Local\Temp\ccBtjLu5.s:2530   .text.xQueuePeekFromISR:000000000000005e .L0 
C:\Users\kasie\AppData\Local\Temp\ccBtjLu5.s:2533   .text.xQueuePeekFromISR:0000000000000060 .L0 
C:\Users\kasie\AppData\Local\Temp\ccBtjLu5.s:2537   .text.xQueuePeekFromISR:0000000000000062 .L0 
C:\Users\kasie\AppData\Local\Temp\ccBtjLu5.s:2540   .text.xQueuePeekFromISR:0000000000000064 .L0 
C:\Users\kasie\AppData\Local\Temp\ccBtjLu5.s:2547   .text.uxQueueMessagesWaiting:0000000000000000 uxQueueMessagesWaiting
C:\Users\kasie\AppData\Local\Temp\ccBtjLu5.s:2550   .text.uxQueueMessagesWaiting:0000000000000000 .L0 
C:\Users\kasie\AppData\Local\Temp\ccBtjLu5.s:2552   .text.uxQueueMessagesWaiting:0000000000000000 .L0 
C:\Users\kasie\AppData\Local\Temp\ccBtjLu5.s:2553   .text.uxQueueMessagesWaiting:0000000000000000 .L0 
C:\Users\kasie\AppData\Local\Temp\ccBtjLu5.s:2554   .text.uxQueueMessagesWaiting:0000000000000000 .L0 
C:\Users\kasie\AppData\Local\Temp\ccBtjLu5.s:2557   .text.uxQueueMessagesWaiting:0000000000000002 .L0 
C:\Users\kasie\AppData\Local\Temp\ccBtjLu5.s:2558   .text.uxQueueMessagesWaiting:0000000000000002 .L0 
C:\Users\kasie\AppData\Local\Temp\ccBtjLu5.s:2559   .text.uxQueueMessagesWaiting:0000000000000002 .L0 
lib/freertos/src/queue.c:1583   .text.uxQueueMessagesWaiting:0000000000000002 .L0 
C:\Users\kasie\AppData\Local\Temp\ccBtjLu5.s:2569   .text.uxQueueMessagesWaiting:0000000000000006 .L0 
C:\Users\kasie\AppData\Local\Temp\ccBtjLu5.s:2570   .text.uxQueueMessagesWaiting:0000000000000006 .L0 
C:\Users\kasie\AppData\Local\Temp\ccBtjLu5.s:2571   .text.uxQueueMessagesWaiting:0000000000000006 .L0 
C:\Users\kasie\AppData\Local\Temp\ccBtjLu5.s:2572   .text.uxQueueMessagesWaiting:0000000000000006 .L0 
C:\Users\kasie\AppData\Local\Temp\ccBtjLu5.s:2575   .text.uxQueueMessagesWaiting:0000000000000008 .L0 
C:\Users\kasie\AppData\Local\Temp\ccBtjLu5.s:2577   .text.uxQueueMessagesWaiting:000000000000000a .L0 
C:\Users\kasie\AppData\Local\Temp\ccBtjLu5.s:2580   .text.uxQueueMessagesWaiting:000000000000000e .L0 
C:\Users\kasie\AppData\Local\Temp\ccBtjLu5.s:2581   .text.uxQueueMessagesWaiting:000000000000000e .L0 
C:\Users\kasie\AppData\Local\Temp\ccBtjLu5.s:2584   .text.uxQueueMessagesWaiting:0000000000000010 .L0 
C:\Users\kasie\AppData\Local\Temp\ccBtjLu5.s:2585   .text.uxQueueMessagesWaiting:0000000000000010 .L0 
C:\Users\kasie\AppData\Local\Temp\ccBtjLu5.s:2588   .text.uxQueueMessagesWaiting:0000000000000018 .L0 
C:\Users\kasie\AppData\Local\Temp\ccBtjLu5.s:2589   .text.uxQueueMessagesWaiting:0000000000000018 .L0 
C:\Users\kasie\AppData\Local\Temp\ccBtjLu5.s:2593   .text.uxQueueMessagesWaiting:000000000000001c .L0 
C:\Users\kasie\AppData\Local\Temp\ccBtjLu5.s:2596   .text.uxQueueMessagesWaiting:0000000000000024 .L0 
C:\Users\kasie\AppData\Local\Temp\ccBtjLu5.s:2597   .text.uxQueueMessagesWaiting:0000000000000024 .L0 
C:\Users\kasie\AppData\Local\Temp\ccBtjLu5.s:2598   .text.uxQueueMessagesWaiting:0000000000000026 .L0 
C:\Users\kasie\AppData\Local\Temp\ccBtjLu5.s:2600   .text.uxQueueMessagesWaiting:0000000000000028 .L0 
C:\Users\kasie\AppData\Local\Temp\ccBtjLu5.s:2605   .text.uxQueueMessagesWaiting:000000000000002c .L0 
C:\Users\kasie\AppData\Local\Temp\ccBtjLu5.s:2608   .text.uxQueueMessagesWaiting:000000000000002e .L0 
C:\Users\kasie\AppData\Local\Temp\ccBtjLu5.s:2615   .text.uxQueueSpacesAvailable:0000000000000000 uxQueueSpacesAvailable
C:\Users\kasie\AppData\Local\Temp\ccBtjLu5.s:2618   .text.uxQueueSpacesAvailable:0000000000000000 .L0 
C:\Users\kasie\AppData\Local\Temp\ccBtjLu5.s:2620   .text.uxQueueSpacesAvailable:0000000000000000 .L0 
C:\Users\kasie\AppData\Local\Temp\ccBtjLu5.s:2621   .text.uxQueueSpacesAvailable:0000000000000000 .L0 
C:\Users\kasie\AppData\Local\Temp\ccBtjLu5.s:2622   .text.uxQueueSpacesAvailable:0000000000000000 .L0 
C:\Users\kasie\AppData\Local\Temp\ccBtjLu5.s:2623   .text.uxQueueSpacesAvailable:0000000000000000 .L0 
C:\Users\kasie\AppData\Local\Temp\ccBtjLu5.s:2624   .text.uxQueueSpacesAvailable:0000000000000000 .L0 
C:\Users\kasie\AppData\Local\Temp\ccBtjLu5.s:2627   .text.uxQueueSpacesAvailable:0000000000000002 .L0 
C:\Users\kasie\AppData\Local\Temp\ccBtjLu5.s:2628   .text.uxQueueSpacesAvailable:0000000000000002 .L0 
C:\Users\kasie\AppData\Local\Temp\ccBtjLu5.s:2629   .text.uxQueueSpacesAvailable:0000000000000002 .L0 
lib/freertos/src/queue.c:1601   .text.uxQueueSpacesAvailable:0000000000000002 .L0 
C:\Users\kasie\AppData\Local\Temp\ccBtjLu5.s:2639   .text.uxQueueSpacesAvailable:0000000000000006 .L0 
C:\Users\kasie\AppData\Local\Temp\ccBtjLu5.s:2640   .text.uxQueueSpacesAvailable:0000000000000006 .L0 
C:\Users\kasie\AppData\Local\Temp\ccBtjLu5.s:2641   .text.uxQueueSpacesAvailable:0000000000000006 .L0 
C:\Users\kasie\AppData\Local\Temp\ccBtjLu5.s:2642   .text.uxQueueSpacesAvailable:0000000000000006 .L0 
C:\Users\kasie\AppData\Local\Temp\ccBtjLu5.s:2645   .text.uxQueueSpacesAvailable:0000000000000008 .L0 
GAS LISTING C:\Users\kasie\AppData\Local\Temp\ccBtjLu5.s 			page 135


C:\Users\kasie\AppData\Local\Temp\ccBtjLu5.s:2647   .text.uxQueueSpacesAvailable:000000000000000a .L0 
C:\Users\kasie\AppData\Local\Temp\ccBtjLu5.s:2650   .text.uxQueueSpacesAvailable:000000000000000e .L0 
C:\Users\kasie\AppData\Local\Temp\ccBtjLu5.s:2651   .text.uxQueueSpacesAvailable:000000000000000e .L0 
C:\Users\kasie\AppData\Local\Temp\ccBtjLu5.s:2654   .text.uxQueueSpacesAvailable:0000000000000010 .L0 
C:\Users\kasie\AppData\Local\Temp\ccBtjLu5.s:2655   .text.uxQueueSpacesAvailable:0000000000000010 .L0 
C:\Users\kasie\AppData\Local\Temp\ccBtjLu5.s:2658   .text.uxQueueSpacesAvailable:0000000000000018 .L0 
C:\Users\kasie\AppData\Local\Temp\ccBtjLu5.s:2659   .text.uxQueueSpacesAvailable:0000000000000018 .L0 
C:\Users\kasie\AppData\Local\Temp\ccBtjLu5.s:2661   .text.uxQueueSpacesAvailable:000000000000001a .L0 
C:\Users\kasie\AppData\Local\Temp\ccBtjLu5.s:2666   .text.uxQueueSpacesAvailable:0000000000000020 .L0 
C:\Users\kasie\AppData\Local\Temp\ccBtjLu5.s:2669   .text.uxQueueSpacesAvailable:0000000000000028 .L0 
C:\Users\kasie\AppData\Local\Temp\ccBtjLu5.s:2670   .text.uxQueueSpacesAvailable:0000000000000028 .L0 
C:\Users\kasie\AppData\Local\Temp\ccBtjLu5.s:2671   .text.uxQueueSpacesAvailable:000000000000002a .L0 
C:\Users\kasie\AppData\Local\Temp\ccBtjLu5.s:2673   .text.uxQueueSpacesAvailable:000000000000002c .L0 
C:\Users\kasie\AppData\Local\Temp\ccBtjLu5.s:2678   .text.uxQueueSpacesAvailable:0000000000000030 .L0 
C:\Users\kasie\AppData\Local\Temp\ccBtjLu5.s:2681   .text.uxQueueSpacesAvailable:0000000000000032 .L0 
C:\Users\kasie\AppData\Local\Temp\ccBtjLu5.s:2688   .text.uxQueueMessagesWaitingFromISR:0000000000000000 uxQueueMessagesWaitingFromISR
C:\Users\kasie\AppData\Local\Temp\ccBtjLu5.s:2691   .text.uxQueueMessagesWaitingFromISR:0000000000000000 .L0 
C:\Users\kasie\AppData\Local\Temp\ccBtjLu5.s:2693   .text.uxQueueMessagesWaitingFromISR:0000000000000000 .L0 
C:\Users\kasie\AppData\Local\Temp\ccBtjLu5.s:2694   .text.uxQueueMessagesWaitingFromISR:0000000000000000 .L0 
C:\Users\kasie\AppData\Local\Temp\ccBtjLu5.s:2695   .text.uxQueueMessagesWaitingFromISR:0000000000000000 .L0 
C:\Users\kasie\AppData\Local\Temp\ccBtjLu5.s:2698   .text.uxQueueMessagesWaitingFromISR:0000000000000002 .L0 
C:\Users\kasie\AppData\Local\Temp\ccBtjLu5.s:2699   .text.uxQueueMessagesWaitingFromISR:0000000000000002 .L0 
C:\Users\kasie\AppData\Local\Temp\ccBtjLu5.s:2700   .text.uxQueueMessagesWaitingFromISR:0000000000000002 .L0 
lib/freertos/src/queue.c:1617   .text.uxQueueMessagesWaitingFromISR:0000000000000002 .L0 
C:\Users\kasie\AppData\Local\Temp\ccBtjLu5.s:2710   .text.uxQueueMessagesWaitingFromISR:0000000000000006 .L0 
C:\Users\kasie\AppData\Local\Temp\ccBtjLu5.s:2711   .text.uxQueueMessagesWaitingFromISR:0000000000000006 .L0 
C:\Users\kasie\AppData\Local\Temp\ccBtjLu5.s:2712   .text.uxQueueMessagesWaitingFromISR:0000000000000006 .L0 
C:\Users\kasie\AppData\Local\Temp\ccBtjLu5.s:2713   .text.uxQueueMessagesWaitingFromISR:0000000000000006 .L0 
C:\Users\kasie\AppData\Local\Temp\ccBtjLu5.s:2716   .text.uxQueueMessagesWaitingFromISR:0000000000000008 .L0 
C:\Users\kasie\AppData\Local\Temp\ccBtjLu5.s:2717   .text.uxQueueMessagesWaitingFromISR:0000000000000008 .L0 
C:\Users\kasie\AppData\Local\Temp\ccBtjLu5.s:2718   .text.uxQueueMessagesWaitingFromISR:0000000000000008 .L0 
C:\Users\kasie\AppData\Local\Temp\ccBtjLu5.s:2721   .text.uxQueueMessagesWaitingFromISR:000000000000000a .L0 
C:\Users\kasie\AppData\Local\Temp\ccBtjLu5.s:2722   .text.uxQueueMessagesWaitingFromISR:000000000000000a .L0 
C:\Users\kasie\AppData\Local\Temp\ccBtjLu5.s:2723   .text.uxQueueMessagesWaitingFromISR:000000000000000c .L0 
C:\Users\kasie\AppData\Local\Temp\ccBtjLu5.s:2730   .text.uxQueueGetQueueNumber:0000000000000000 uxQueueGetQueueNumber
C:\Users\kasie\AppData\Local\Temp\ccBtjLu5.s:2733   .text.uxQueueGetQueueNumber:0000000000000000 .L0 
C:\Users\kasie\AppData\Local\Temp\ccBtjLu5.s:2735   .text.uxQueueGetQueueNumber:0000000000000000 .L0 
C:\Users\kasie\AppData\Local\Temp\ccBtjLu5.s:2736   .text.uxQueueGetQueueNumber:0000000000000000 .L0 
C:\Users\kasie\AppData\Local\Temp\ccBtjLu5.s:2737   .text.uxQueueGetQueueNumber:0000000000000000 .L0 
C:\Users\kasie\AppData\Local\Temp\ccBtjLu5.s:2740   .text.uxQueueGetQueueNumber:0000000000000004 .L0 
C:\Users\kasie\AppData\Local\Temp\ccBtjLu5.s:2747   .text.vQueueSetQueueNumber:0000000000000000 vQueueSetQueueNumber
C:\Users\kasie\AppData\Local\Temp\ccBtjLu5.s:2750   .text.vQueueSetQueueNumber:0000000000000000 .L0 
C:\Users\kasie\AppData\Local\Temp\ccBtjLu5.s:2752   .text.vQueueSetQueueNumber:0000000000000000 .L0 
C:\Users\kasie\AppData\Local\Temp\ccBtjLu5.s:2753   .text.vQueueSetQueueNumber:0000000000000000 .L0 
C:\Users\kasie\AppData\Local\Temp\ccBtjLu5.s:2754   .text.vQueueSetQueueNumber:0000000000000000 .L0 
C:\Users\kasie\AppData\Local\Temp\ccBtjLu5.s:2756   .text.vQueueSetQueueNumber:0000000000000002 .L0 
C:\Users\kasie\AppData\Local\Temp\ccBtjLu5.s:2757   .text.vQueueSetQueueNumber:0000000000000004 .L0 
C:\Users\kasie\AppData\Local\Temp\ccBtjLu5.s:2764   .text.ucQueueGetQueueType:0000000000000000 ucQueueGetQueueType
C:\Users\kasie\AppData\Local\Temp\ccBtjLu5.s:2767   .text.ucQueueGetQueueType:0000000000000000 .L0 
C:\Users\kasie\AppData\Local\Temp\ccBtjLu5.s:2769   .text.ucQueueGetQueueType:0000000000000000 .L0 
C:\Users\kasie\AppData\Local\Temp\ccBtjLu5.s:2770   .text.ucQueueGetQueueType:0000000000000000 .L0 
C:\Users\kasie\AppData\Local\Temp\ccBtjLu5.s:2771   .text.ucQueueGetQueueType:0000000000000000 .L0 
C:\Users\kasie\AppData\Local\Temp\ccBtjLu5.s:2774   .text.ucQueueGetQueueType:0000000000000006 .L0 
C:\Users\kasie\AppData\Local\Temp\ccBtjLu5.s:2781   .text.xQueueIsQueueEmptyFromISR:0000000000000000 xQueueIsQueueEmptyFromISR
C:\Users\kasie\AppData\Local\Temp\ccBtjLu5.s:2784   .text.xQueueIsQueueEmptyFromISR:0000000000000000 .L0 
C:\Users\kasie\AppData\Local\Temp\ccBtjLu5.s:2786   .text.xQueueIsQueueEmptyFromISR:0000000000000000 .L0 
C:\Users\kasie\AppData\Local\Temp\ccBtjLu5.s:2787   .text.xQueueIsQueueEmptyFromISR:0000000000000000 .L0 
GAS LISTING C:\Users\kasie\AppData\Local\Temp\ccBtjLu5.s 			page 136


C:\Users\kasie\AppData\Local\Temp\ccBtjLu5.s:2788   .text.xQueueIsQueueEmptyFromISR:0000000000000000 .L0 
C:\Users\kasie\AppData\Local\Temp\ccBtjLu5.s:2791   .text.xQueueIsQueueEmptyFromISR:0000000000000002 .L0 
C:\Users\kasie\AppData\Local\Temp\ccBtjLu5.s:2792   .text.xQueueIsQueueEmptyFromISR:0000000000000002 .L0 
C:\Users\kasie\AppData\Local\Temp\ccBtjLu5.s:2793   .text.xQueueIsQueueEmptyFromISR:0000000000000002 .L0 
lib/freertos/src/queue.c:1939   .text.xQueueIsQueueEmptyFromISR:0000000000000002 .L0 
C:\Users\kasie\AppData\Local\Temp\ccBtjLu5.s:2803   .text.xQueueIsQueueEmptyFromISR:0000000000000006 .L0 
C:\Users\kasie\AppData\Local\Temp\ccBtjLu5.s:2804   .text.xQueueIsQueueEmptyFromISR:0000000000000006 .L0 
C:\Users\kasie\AppData\Local\Temp\ccBtjLu5.s:2805   .text.xQueueIsQueueEmptyFromISR:0000000000000006 .L0 
C:\Users\kasie\AppData\Local\Temp\ccBtjLu5.s:2806   .text.xQueueIsQueueEmptyFromISR:0000000000000006 .L0 
C:\Users\kasie\AppData\Local\Temp\ccBtjLu5.s:2809   .text.xQueueIsQueueEmptyFromISR:0000000000000008 .L0 
C:\Users\kasie\AppData\Local\Temp\ccBtjLu5.s:2810   .text.xQueueIsQueueEmptyFromISR:0000000000000008 .L0 
C:\Users\kasie\AppData\Local\Temp\ccBtjLu5.s:2811   .text.xQueueIsQueueEmptyFromISR:0000000000000008 .L0 
C:\Users\kasie\AppData\Local\Temp\ccBtjLu5.s:2814   .text.xQueueIsQueueEmptyFromISR:000000000000000a .L0 
C:\Users\kasie\AppData\Local\Temp\ccBtjLu5.s:2815   .text.xQueueIsQueueEmptyFromISR:000000000000000a .L0 
C:\Users\kasie\AppData\Local\Temp\ccBtjLu5.s:2818   .text.xQueueIsQueueEmptyFromISR:0000000000000010 .L0 
C:\Users\kasie\AppData\Local\Temp\ccBtjLu5.s:2825   .text.xQueueIsQueueFullFromISR:0000000000000000 xQueueIsQueueFullFromISR
C:\Users\kasie\AppData\Local\Temp\ccBtjLu5.s:2828   .text.xQueueIsQueueFullFromISR:0000000000000000 .L0 
C:\Users\kasie\AppData\Local\Temp\ccBtjLu5.s:2830   .text.xQueueIsQueueFullFromISR:0000000000000000 .L0 
C:\Users\kasie\AppData\Local\Temp\ccBtjLu5.s:2831   .text.xQueueIsQueueFullFromISR:0000000000000000 .L0 
C:\Users\kasie\AppData\Local\Temp\ccBtjLu5.s:2832   .text.xQueueIsQueueFullFromISR:0000000000000000 .L0 
C:\Users\kasie\AppData\Local\Temp\ccBtjLu5.s:2835   .text.xQueueIsQueueFullFromISR:0000000000000002 .L0 
C:\Users\kasie\AppData\Local\Temp\ccBtjLu5.s:2836   .text.xQueueIsQueueFullFromISR:0000000000000002 .L0 
C:\Users\kasie\AppData\Local\Temp\ccBtjLu5.s:2837   .text.xQueueIsQueueFullFromISR:0000000000000002 .L0 
lib/freertos/src/queue.c:1978   .text.xQueueIsQueueFullFromISR:0000000000000002 .L0 
C:\Users\kasie\AppData\Local\Temp\ccBtjLu5.s:2847   .text.xQueueIsQueueFullFromISR:0000000000000006 .L0 
C:\Users\kasie\AppData\Local\Temp\ccBtjLu5.s:2848   .text.xQueueIsQueueFullFromISR:0000000000000006 .L0 
C:\Users\kasie\AppData\Local\Temp\ccBtjLu5.s:2849   .text.xQueueIsQueueFullFromISR:0000000000000006 .L0 
C:\Users\kasie\AppData\Local\Temp\ccBtjLu5.s:2850   .text.xQueueIsQueueFullFromISR:0000000000000006 .L0 
C:\Users\kasie\AppData\Local\Temp\ccBtjLu5.s:2853   .text.xQueueIsQueueFullFromISR:0000000000000008 .L0 
C:\Users\kasie\AppData\Local\Temp\ccBtjLu5.s:2854   .text.xQueueIsQueueFullFromISR:0000000000000008 .L0 
C:\Users\kasie\AppData\Local\Temp\ccBtjLu5.s:2855   .text.xQueueIsQueueFullFromISR:0000000000000008 .L0 
C:\Users\kasie\AppData\Local\Temp\ccBtjLu5.s:2858   .text.xQueueIsQueueFullFromISR:000000000000000a .L0 
C:\Users\kasie\AppData\Local\Temp\ccBtjLu5.s:2859   .text.xQueueIsQueueFullFromISR:000000000000000a .L0 
C:\Users\kasie\AppData\Local\Temp\ccBtjLu5.s:2864   .text.xQueueIsQueueFullFromISR:000000000000000e .L0 
C:\Users\kasie\AppData\Local\Temp\ccBtjLu5.s:2866   .text.xQueueIsQueueFullFromISR:0000000000000014 .L0 
C:\Users\kasie\AppData\Local\Temp\ccBtjLu5.s:2873   .text.vQueueAddToRegistry:0000000000000000 vQueueAddToRegistry
C:\Users\kasie\AppData\Local\Temp\ccBtjLu5.s:2876   .text.vQueueAddToRegistry:0000000000000000 .L0 
C:\Users\kasie\AppData\Local\Temp\ccBtjLu5.s:2878   .text.vQueueAddToRegistry:0000000000000000 .L0 
C:\Users\kasie\AppData\Local\Temp\ccBtjLu5.s:2879   .text.vQueueAddToRegistry:0000000000000000 .L0 
                            *COM*:0000000000000050 xQueueRegistry
C:\Users\kasie\AppData\Local\Temp\ccBtjLu5.s:2880   .text.vQueueAddToRegistry:0000000000000000 .L0 
C:\Users\kasie\AppData\Local\Temp\ccBtjLu5.s:2883   .text.vQueueAddToRegistry:0000000000000008 .L0 
C:\Users\kasie\AppData\Local\Temp\ccBtjLu5.s:2886   .text.vQueueAddToRegistry:000000000000000e .L0 
C:\Users\kasie\AppData\Local\Temp\ccBtjLu5.s:2890   .text.vQueueAddToRegistry:0000000000000010 .L0 
C:\Users\kasie\AppData\Local\Temp\ccBtjLu5.s:2891   .text.vQueueAddToRegistry:0000000000000010 .L0 
C:\Users\kasie\AppData\Local\Temp\ccBtjLu5.s:2894   .text.vQueueAddToRegistry:0000000000000018 .L0 
C:\Users\kasie\AppData\Local\Temp\ccBtjLu5.s:2895   .text.vQueueAddToRegistry:0000000000000018 .L0 
C:\Users\kasie\AppData\Local\Temp\ccBtjLu5.s:2900   .text.vQueueAddToRegistry:000000000000001e .L0 
C:\Users\kasie\AppData\Local\Temp\ccBtjLu5.s:2901   .text.vQueueAddToRegistry:000000000000001e .L0 
C:\Users\kasie\AppData\Local\Temp\ccBtjLu5.s:2903   .text.vQueueAddToRegistry:0000000000000020 .L0 
C:\Users\kasie\AppData\Local\Temp\ccBtjLu5.s:2904   .text.vQueueAddToRegistry:0000000000000020 .L0 
C:\Users\kasie\AppData\Local\Temp\ccBtjLu5.s:2908   .text.vQueueAddToRegistry:0000000000000022 .L0 
C:\Users\kasie\AppData\Local\Temp\ccBtjLu5.s:2909   .text.vQueueAddToRegistry:0000000000000022 .L0 
C:\Users\kasie\AppData\Local\Temp\ccBtjLu5.s:2913   .text.vQueueAddToRegistry:0000000000000026 .L0 
C:\Users\kasie\AppData\Local\Temp\ccBtjLu5.s:2915   .text.vQueueAddToRegistry:000000000000002a .L0 
C:\Users\kasie\AppData\Local\Temp\ccBtjLu5.s:2916   .text.vQueueAddToRegistry:000000000000002c .L0 
C:\Users\kasie\AppData\Local\Temp\ccBtjLu5.s:2923   .text.pcQueueGetName:0000000000000000 pcQueueGetName
GAS LISTING C:\Users\kasie\AppData\Local\Temp\ccBtjLu5.s 			page 137


C:\Users\kasie\AppData\Local\Temp\ccBtjLu5.s:2926   .text.pcQueueGetName:0000000000000000 .L0 
C:\Users\kasie\AppData\Local\Temp\ccBtjLu5.s:2928   .text.pcQueueGetName:0000000000000000 .L0 
C:\Users\kasie\AppData\Local\Temp\ccBtjLu5.s:2929   .text.pcQueueGetName:0000000000000000 .L0 
C:\Users\kasie\AppData\Local\Temp\ccBtjLu5.s:2930   .text.pcQueueGetName:0000000000000000 .L0 
C:\Users\kasie\AppData\Local\Temp\ccBtjLu5.s:2931   .text.pcQueueGetName:0000000000000000 .L0 
C:\Users\kasie\AppData\Local\Temp\ccBtjLu5.s:2934   .text.pcQueueGetName:0000000000000008 .L0 
C:\Users\kasie\AppData\Local\Temp\ccBtjLu5.s:2937   .text.pcQueueGetName:000000000000000e .L0 
C:\Users\kasie\AppData\Local\Temp\ccBtjLu5.s:2941   .text.pcQueueGetName:0000000000000010 .L0 
C:\Users\kasie\AppData\Local\Temp\ccBtjLu5.s:2942   .text.pcQueueGetName:0000000000000010 .L0 
C:\Users\kasie\AppData\Local\Temp\ccBtjLu5.s:2945   .text.pcQueueGetName:0000000000000016 .L0 
C:\Users\kasie\AppData\Local\Temp\ccBtjLu5.s:2946   .text.pcQueueGetName:0000000000000016 .L0 
C:\Users\kasie\AppData\Local\Temp\ccBtjLu5.s:2952   .text.pcQueueGetName:000000000000001c .L0 
C:\Users\kasie\AppData\Local\Temp\ccBtjLu5.s:2956   .text.pcQueueGetName:000000000000001e .L0 
C:\Users\kasie\AppData\Local\Temp\ccBtjLu5.s:2957   .text.pcQueueGetName:000000000000001e .L0 
C:\Users\kasie\AppData\Local\Temp\ccBtjLu5.s:2961   .text.pcQueueGetName:0000000000000022 .L0 
C:\Users\kasie\AppData\Local\Temp\ccBtjLu5.s:2963   .text.pcQueueGetName:0000000000000026 .L0 
C:\Users\kasie\AppData\Local\Temp\ccBtjLu5.s:2966   .text.pcQueueGetName:0000000000000028 .L0 
C:\Users\kasie\AppData\Local\Temp\ccBtjLu5.s:2967   .text.pcQueueGetName:0000000000000028 .L0 
C:\Users\kasie\AppData\Local\Temp\ccBtjLu5.s:2968   .text.pcQueueGetName:000000000000002a .L0 
C:\Users\kasie\AppData\Local\Temp\ccBtjLu5.s:2975   .text.vQueueUnregisterQueue:0000000000000000 vQueueUnregisterQueue
C:\Users\kasie\AppData\Local\Temp\ccBtjLu5.s:2978   .text.vQueueUnregisterQueue:0000000000000000 .L0 
C:\Users\kasie\AppData\Local\Temp\ccBtjLu5.s:2980   .text.vQueueUnregisterQueue:0000000000000000 .L0 
C:\Users\kasie\AppData\Local\Temp\ccBtjLu5.s:2981   .text.vQueueUnregisterQueue:0000000000000000 .L0 
C:\Users\kasie\AppData\Local\Temp\ccBtjLu5.s:2982   .text.vQueueUnregisterQueue:0000000000000000 .L0 
C:\Users\kasie\AppData\Local\Temp\ccBtjLu5.s:2985   .text.vQueueUnregisterQueue:0000000000000008 .L0 
C:\Users\kasie\AppData\Local\Temp\ccBtjLu5.s:2988   .text.vQueueUnregisterQueue:000000000000000e .L0 
C:\Users\kasie\AppData\Local\Temp\ccBtjLu5.s:2992   .text.vQueueUnregisterQueue:0000000000000010 .L0 
C:\Users\kasie\AppData\Local\Temp\ccBtjLu5.s:2993   .text.vQueueUnregisterQueue:0000000000000010 .L0 
C:\Users\kasie\AppData\Local\Temp\ccBtjLu5.s:2996   .text.vQueueUnregisterQueue:0000000000000016 .L0 
C:\Users\kasie\AppData\Local\Temp\ccBtjLu5.s:2997   .text.vQueueUnregisterQueue:0000000000000016 .L0 
C:\Users\kasie\AppData\Local\Temp\ccBtjLu5.s:3002   .text.vQueueUnregisterQueue:000000000000001e .L0 
C:\Users\kasie\AppData\Local\Temp\ccBtjLu5.s:3003   .text.vQueueUnregisterQueue:000000000000001e .L0 
C:\Users\kasie\AppData\Local\Temp\ccBtjLu5.s:3005   .text.vQueueUnregisterQueue:0000000000000022 .L0 
C:\Users\kasie\AppData\Local\Temp\ccBtjLu5.s:3009   .text.vQueueUnregisterQueue:0000000000000024 .L0 
C:\Users\kasie\AppData\Local\Temp\ccBtjLu5.s:3010   .text.vQueueUnregisterQueue:0000000000000024 .L0 
C:\Users\kasie\AppData\Local\Temp\ccBtjLu5.s:3014   .text.vQueueUnregisterQueue:0000000000000028 .L0 
C:\Users\kasie\AppData\Local\Temp\ccBtjLu5.s:3016   .text.vQueueUnregisterQueue:000000000000002c .L0 
C:\Users\kasie\AppData\Local\Temp\ccBtjLu5.s:3017   .text.vQueueUnregisterQueue:000000000000002e .L0 
C:\Users\kasie\AppData\Local\Temp\ccBtjLu5.s:3024   .text.vQueueDelete:0000000000000000 vQueueDelete
C:\Users\kasie\AppData\Local\Temp\ccBtjLu5.s:3027   .text.vQueueDelete:0000000000000000 .L0 
C:\Users\kasie\AppData\Local\Temp\ccBtjLu5.s:3029   .text.vQueueDelete:0000000000000000 .L0 
C:\Users\kasie\AppData\Local\Temp\ccBtjLu5.s:3030   .text.vQueueDelete:0000000000000000 .L0 
C:\Users\kasie\AppData\Local\Temp\ccBtjLu5.s:3031   .text.vQueueDelete:0000000000000000 .L0 
C:\Users\kasie\AppData\Local\Temp\ccBtjLu5.s:3034   .text.vQueueDelete:0000000000000002 .L0 
C:\Users\kasie\AppData\Local\Temp\ccBtjLu5.s:3035   .text.vQueueDelete:0000000000000002 .L0 
C:\Users\kasie\AppData\Local\Temp\ccBtjLu5.s:3036   .text.vQueueDelete:0000000000000002 .L0 
lib/freertos/src/queue.c:1629   .text.vQueueDelete:0000000000000002 .L0 
C:\Users\kasie\AppData\Local\Temp\ccBtjLu5.s:3046   .text.vQueueDelete:0000000000000006 .L0 
C:\Users\kasie\AppData\Local\Temp\ccBtjLu5.s:3047   .text.vQueueDelete:0000000000000006 .L0 
C:\Users\kasie\AppData\Local\Temp\ccBtjLu5.s:3048   .text.vQueueDelete:0000000000000006 .L0 
C:\Users\kasie\AppData\Local\Temp\ccBtjLu5.s:3049   .text.vQueueDelete:0000000000000006 .L0 
C:\Users\kasie\AppData\Local\Temp\ccBtjLu5.s:3052   .text.vQueueDelete:0000000000000008 .L0 
C:\Users\kasie\AppData\Local\Temp\ccBtjLu5.s:3054   .text.vQueueDelete:000000000000000a .L0 
C:\Users\kasie\AppData\Local\Temp\ccBtjLu5.s:3057   .text.vQueueDelete:000000000000000e .L0 
C:\Users\kasie\AppData\Local\Temp\ccBtjLu5.s:3058   .text.vQueueDelete:000000000000000e .L0 
C:\Users\kasie\AppData\Local\Temp\ccBtjLu5.s:3061   .text.vQueueDelete:0000000000000010 .L0 
C:\Users\kasie\AppData\Local\Temp\ccBtjLu5.s:3062   .text.vQueueDelete:0000000000000010 .L0 
GAS LISTING C:\Users\kasie\AppData\Local\Temp\ccBtjLu5.s 			page 138


C:\Users\kasie\AppData\Local\Temp\ccBtjLu5.s:3063   .text.vQueueDelete:0000000000000010 .L0 
C:\Users\kasie\AppData\Local\Temp\ccBtjLu5.s:3066   .text.vQueueDelete:0000000000000018 .L0 
C:\Users\kasie\AppData\Local\Temp\ccBtjLu5.s:3068   .text.vQueueDelete:000000000000001a .L0 
C:\Users\kasie\AppData\Local\Temp\ccBtjLu5.s:3069   .text.vQueueDelete:000000000000001c .L0 
C:\Users\kasie\AppData\Local\Temp\ccBtjLu5.s:3072   .text.vQueueDelete:000000000000001e .L0 
C:\Users\kasie\AppData\Local\Temp\ccBtjLu5.s:3075   .text.vQueueDelete:0000000000000020 .L0 
C:\Users\kasie\AppData\Local\Temp\ccBtjLu5.s:3077   .text.vQueueDelete:0000000000000020 .L0 
C:\Users\kasie\AppData\Local\Temp\ccBtjLu5.s:3079   .text.vQueueDelete:0000000000000028 .L0 
C:\Users\kasie\AppData\Local\Temp\ccBtjLu5.s:3086   .text.vQueueWaitForMessageRestricted:0000000000000000 vQueueWaitForMessageRestricted
C:\Users\kasie\AppData\Local\Temp\ccBtjLu5.s:3089   .text.vQueueWaitForMessageRestricted:0000000000000000 .L0 
C:\Users\kasie\AppData\Local\Temp\ccBtjLu5.s:3091   .text.vQueueWaitForMessageRestricted:0000000000000000 .L0 
C:\Users\kasie\AppData\Local\Temp\ccBtjLu5.s:3092   .text.vQueueWaitForMessageRestricted:0000000000000000 .L0 
C:\Users\kasie\AppData\Local\Temp\ccBtjLu5.s:3093   .text.vQueueWaitForMessageRestricted:0000000000000000 .L0 
C:\Users\kasie\AppData\Local\Temp\ccBtjLu5.s:3095   .text.vQueueWaitForMessageRestricted:0000000000000002 .L0 
C:\Users\kasie\AppData\Local\Temp\ccBtjLu5.s:3098   .text.vQueueWaitForMessageRestricted:0000000000000006 .L0 
C:\Users\kasie\AppData\Local\Temp\ccBtjLu5.s:3102   .text.vQueueWaitForMessageRestricted:0000000000000008 .L0 
C:\Users\kasie\AppData\Local\Temp\ccBtjLu5.s:3103   .text.vQueueWaitForMessageRestricted:0000000000000008 .L0 
C:\Users\kasie\AppData\Local\Temp\ccBtjLu5.s:3105   .text.vQueueWaitForMessageRestricted:000000000000000c .L0 
C:\Users\kasie\AppData\Local\Temp\ccBtjLu5.s:3107   .text.vQueueWaitForMessageRestricted:000000000000000c .L0 
C:\Users\kasie\AppData\Local\Temp\ccBtjLu5.s:3110   .text.vQueueWaitForMessageRestricted:0000000000000014 .L0 
C:\Users\kasie\AppData\Local\Temp\ccBtjLu5.s:3118   .text.vQueueWaitForMessageRestricted:0000000000000026 .L0 
C:\Users\kasie\AppData\Local\Temp\ccBtjLu5.s:3121   .text.vQueueWaitForMessageRestricted:000000000000002a .L0 
C:\Users\kasie\AppData\Local\Temp\ccBtjLu5.s:3127   .text.vQueueWaitForMessageRestricted:0000000000000038 .L0 
C:\Users\kasie\AppData\Local\Temp\ccBtjLu5.s:3134   .text.vQueueWaitForMessageRestricted:0000000000000040 .L0 
C:\Users\kasie\AppData\Local\Temp\ccBtjLu5.s:3137   .text.vQueueWaitForMessageRestricted:0000000000000048 .L0 
C:\Users\kasie\AppData\Local\Temp\ccBtjLu5.s:3138   .text.vQueueWaitForMessageRestricted:0000000000000048 .L0 
C:\Users\kasie\AppData\Local\Temp\ccBtjLu5.s:3140   .text.vQueueWaitForMessageRestricted:000000000000004a .L0 
C:\Users\kasie\AppData\Local\Temp\ccBtjLu5.s:3144   .text.vQueueWaitForMessageRestricted:0000000000000050 .L0 
C:\Users\kasie\AppData\Local\Temp\ccBtjLu5.s:3149   .text.vQueueWaitForMessageRestricted:000000000000005c .L0 
C:\Users\kasie\AppData\Local\Temp\ccBtjLu5.s:3150   .text.vQueueWaitForMessageRestricted:000000000000005c .L0 
C:\Users\kasie\AppData\Local\Temp\ccBtjLu5.s:3152   .text.vQueueWaitForMessageRestricted:000000000000005e .L0 
C:\Users\kasie\AppData\Local\Temp\ccBtjLu5.s:3153   .text.vQueueWaitForMessageRestricted:0000000000000060 .L0 
C:\Users\kasie\AppData\Local\Temp\ccBtjLu5.s:3156   .text.vQueueWaitForMessageRestricted:0000000000000062 .L0 
C:\Users\kasie\AppData\Local\Temp\ccBtjLu5.s:3159   .text.vQueueWaitForMessageRestricted:0000000000000064 .L0 
C:\Users\kasie\AppData\Local\Temp\ccBtjLu5.s:3161   .text.vQueueWaitForMessageRestricted:0000000000000064 .L0 
C:\Users\kasie\AppData\Local\Temp\ccBtjLu5.s:3163   .text.vQueueWaitForMessageRestricted:000000000000006c .L0 
C:\Users\kasie\AppData\Local\Temp\ccBtjLu5.s:174    .text.prvCopyDataToQueue:0000000000000096 .L0 
C:\Users\kasie\AppData\Local\Temp\ccBtjLu5.s:221    .text.prvCopyDataFromQueue:0000000000000024 .L0 
C:\Users\kasie\AppData\Local\Temp\ccBtjLu5.s:371    .text.prvUnlockQueue:00000000000000a2 .L0 
C:\Users\kasie\AppData\Local\Temp\ccBtjLu5.s:523    .text.xQueueGenericReset:000000000000008c .L0 
C:\Users\kasie\AppData\Local\Temp\ccBtjLu5.s:662    .text.xQueueGenericCreate:000000000000005e .L0 
C:\Users\kasie\AppData\Local\Temp\ccBtjLu5.s:758    .text.xQueueCreateCountingSemaphore:0000000000000032 .L0 
C:\Users\kasie\AppData\Local\Temp\ccBtjLu5.s:1143   .text.xQueueGenericSend:000000000000019a .L0 
C:\Users\kasie\AppData\Local\Temp\ccBtjLu5.s:1294   .text.xQueueCreateMutex:000000000000005a .L0 
C:\Users\kasie\AppData\Local\Temp\ccBtjLu5.s:1525   .text.xQueueGenericSendFromISR:00000000000000c4 .L0 
C:\Users\kasie\AppData\Local\Temp\ccBtjLu5.s:1744   .text.xQueueGiveFromISR:000000000000009e .L0 
C:\Users\kasie\AppData\Local\Temp\ccBtjLu5.s:2177   .text.xQueueGenericReceive:00000000000001d6 .L0 
C:\Users\kasie\AppData\Local\Temp\ccBtjLu5.s:2384   .text.xQueueReceiveFromISR:00000000000000ac .L0 
C:\Users\kasie\AppData\Local\Temp\ccBtjLu5.s:2543   .text.xQueuePeekFromISR:0000000000000064 .L0 
C:\Users\kasie\AppData\Local\Temp\ccBtjLu5.s:2611   .text.uxQueueMessagesWaiting:000000000000002e .L0 
C:\Users\kasie\AppData\Local\Temp\ccBtjLu5.s:2684   .text.uxQueueSpacesAvailable:0000000000000032 .L0 
C:\Users\kasie\AppData\Local\Temp\ccBtjLu5.s:2726   .text.uxQueueMessagesWaitingFromISR:000000000000000c .L0 
C:\Users\kasie\AppData\Local\Temp\ccBtjLu5.s:2743   .text.uxQueueGetQueueNumber:0000000000000004 .L0 
C:\Users\kasie\AppData\Local\Temp\ccBtjLu5.s:2760   .text.vQueueSetQueueNumber:0000000000000004 .L0 
C:\Users\kasie\AppData\Local\Temp\ccBtjLu5.s:2777   .text.ucQueueGetQueueType:0000000000000006 .L0 
C:\Users\kasie\AppData\Local\Temp\ccBtjLu5.s:2821   .text.xQueueIsQueueEmptyFromISR:0000000000000010 .L0 
C:\Users\kasie\AppData\Local\Temp\ccBtjLu5.s:2869   .text.xQueueIsQueueFullFromISR:0000000000000014 .L0 
GAS LISTING C:\Users\kasie\AppData\Local\Temp\ccBtjLu5.s 			page 139


C:\Users\kasie\AppData\Local\Temp\ccBtjLu5.s:2919   .text.vQueueAddToRegistry:000000000000002c .L0 
C:\Users\kasie\AppData\Local\Temp\ccBtjLu5.s:2971   .text.pcQueueGetName:000000000000002a .L0 
C:\Users\kasie\AppData\Local\Temp\ccBtjLu5.s:3020   .text.vQueueUnregisterQueue:000000000000002e .L0 
C:\Users\kasie\AppData\Local\Temp\ccBtjLu5.s:3082   .text.vQueueDelete:0000000000000028 .L0 
C:\Users\kasie\AppData\Local\Temp\ccBtjLu5.s:3167   .text.vQueueWaitForMessageRestricted:000000000000006c .L0 
                     .debug_frame:0000000000000000 .L0 
C:\Users\kasie\AppData\Local\Temp\ccBtjLu5.s:95     .text.prvCopyDataToQueue:0000000000000040 .L2
C:\Users\kasie\AppData\Local\Temp\ccBtjLu5.s:67     .text.prvCopyDataToQueue:000000000000002c .L3
C:\Users\kasie\AppData\Local\Temp\ccBtjLu5.s:124    .text.prvCopyDataToQueue:0000000000000060 .L4
C:\Users\kasie\AppData\Local\Temp\ccBtjLu5.s:149    .text.prvCopyDataToQueue:0000000000000082 .L5
C:\Users\kasie\AppData\Local\Temp\ccBtjLu5.s:166    .text.prvCopyDataToQueue:0000000000000092 .L7
C:\Users\kasie\AppData\Local\Temp\ccBtjLu5.s:215    .text.prvCopyDataFromQueue:0000000000000022 .L11
C:\Users\kasie\AppData\Local\Temp\ccBtjLu5.s:207    .text.prvCopyDataFromQueue:0000000000000018 .L13
C:\Users\kasie\AppData\Local\Temp\ccBtjLu5.s:313    .text.prvUnlockQueue:0000000000000062 .L18
C:\Users\kasie\AppData\Local\Temp\ccBtjLu5.s:341    .text.prvUnlockQueue:0000000000000082 .L22
C:\Users\kasie\AppData\Local\Temp\ccBtjLu5.s:260    .text.prvUnlockQueue:0000000000000024 .L16
C:\Users\kasie\AppData\Local\Temp\ccBtjLu5.s:331    .text.prvUnlockQueue:000000000000007a .L17
C:\Users\kasie\AppData\Local\Temp\ccBtjLu5.s:257    .text.prvUnlockQueue:0000000000000020 .L15
C:\Users\kasie\AppData\Local\Temp\ccBtjLu5.s:287    .text.prvUnlockQueue:000000000000004a .L20
C:\Users\kasie\AppData\Local\Temp\ccBtjLu5.s:358    .text.prvUnlockQueue:000000000000009a .L21
C:\Users\kasie\AppData\Local\Temp\ccBtjLu5.s:284    .text.prvUnlockQueue:0000000000000046 .L19
C:\Users\kasie\AppData\Local\Temp\ccBtjLu5.s:401    .text.xQueueGenericReset:0000000000000008 .L37
C:\Users\kasie\AppData\Local\Temp\ccBtjLu5.s:395    .text.xQueueGenericReset:0000000000000006 .L38
C:\Users\kasie\AppData\Local\Temp\ccBtjLu5.s:504    .text.xQueueGenericReset:0000000000000072 .L39
C:\Users\kasie\AppData\Local\Temp\ccBtjLu5.s:481    .text.xQueueGenericReset:000000000000005e .L41
C:\Users\kasie\AppData\Local\Temp\ccBtjLu5.s:555    .text.xQueueGenericCreate:0000000000000008 .L49
C:\Users\kasie\AppData\Local\Temp\ccBtjLu5.s:549    .text.xQueueGenericCreate:0000000000000006 .L50
C:\Users\kasie\AppData\Local\Temp\ccBtjLu5.s:640    .text.xQueueGenericCreate:000000000000004e .L48
C:\Users\kasie\AppData\Local\Temp\ccBtjLu5.s:615    .text.xQueueGenericCreate:0000000000000036 .L52
C:\Users\kasie\AppData\Local\Temp\ccBtjLu5.s:692    .text.xQueueCreateCountingSemaphore:0000000000000008 .L61
C:\Users\kasie\AppData\Local\Temp\ccBtjLu5.s:686    .text.xQueueCreateCountingSemaphore:0000000000000006 .L62
C:\Users\kasie\AppData\Local\Temp\ccBtjLu5.s:714    .text.xQueueCreateCountingSemaphore:0000000000000012 .L63
C:\Users\kasie\AppData\Local\Temp\ccBtjLu5.s:708    .text.xQueueCreateCountingSemaphore:0000000000000010 .L64
C:\Users\kasie\AppData\Local\Temp\ccBtjLu5.s:744    .text.xQueueCreateCountingSemaphore:000000000000002a .L60
C:\Users\kasie\AppData\Local\Temp\ccBtjLu5.s:811    .text.xQueueGenericSend:000000000000001a .L72
C:\Users\kasie\AppData\Local\Temp\ccBtjLu5.s:805    .text.xQueueGenericSend:0000000000000018 .L73
C:\Users\kasie\AppData\Local\Temp\ccBtjLu5.s:835    .text.xQueueGenericSend:0000000000000026 .L74
C:\Users\kasie\AppData\Local\Temp\ccBtjLu5.s:829    .text.xQueueGenericSend:0000000000000024 .L75
C:\Users\kasie\AppData\Local\Temp\ccBtjLu5.s:862    .text.xQueueGenericSend:000000000000003a .L76
C:\Users\kasie\AppData\Local\Temp\ccBtjLu5.s:856    .text.xQueueGenericSend:0000000000000038 .L77
C:\Users\kasie\AppData\Local\Temp\ccBtjLu5.s:892    .text.xQueueGenericSend:0000000000000054 .L96
C:\Users\kasie\AppData\Local\Temp\ccBtjLu5.s:894    .text.xQueueGenericSend:0000000000000056 .L78
C:\Users\kasie\AppData\Local\Temp\ccBtjLu5.s:886    .text.xQueueGenericSend:0000000000000052 .L79
C:\Users\kasie\AppData\Local\Temp\ccBtjLu5.s:1007   .text.xQueueGenericSend:0000000000000104 .L80
C:\Users\kasie\AppData\Local\Temp\ccBtjLu5.s:920    .text.xQueueGenericSend:0000000000000070 .L88
C:\Users\kasie\AppData\Local\Temp\ccBtjLu5.s:1069   .text.xQueueGenericSend:000000000000014e .L71
C:\Users\kasie\AppData\Local\Temp\ccBtjLu5.s:929    .text.xQueueGenericSend:000000000000007c .L89
C:\Users\kasie\AppData\Local\Temp\ccBtjLu5.s:947    .text.xQueueGenericSend:00000000000000a4 .L90
C:\Users\kasie\AppData\Local\Temp\ccBtjLu5.s:955    .text.xQueueGenericSend:00000000000000b4 .L91
C:\Users\kasie\AppData\Local\Temp\ccBtjLu5.s:1129   .text.xQueueGenericSend:0000000000000186 .L92
C:\Users\kasie\AppData\Local\Temp\ccBtjLu5.s:1095   .text.xQueueGenericSend:0000000000000160 .L93
C:\Users\kasie\AppData\Local\Temp\ccBtjLu5.s:1116   .text.xQueueGenericSend:000000000000017c .L94
C:\Users\kasie\AppData\Local\Temp\ccBtjLu5.s:1024   .text.xQueueGenericSend:000000000000011c .L81
C:\Users\kasie\AppData\Local\Temp\ccBtjLu5.s:903    .text.xQueueGenericSend:0000000000000060 .L82
C:\Users\kasie\AppData\Local\Temp\ccBtjLu5.s:1043   .text.xQueueGenericSend:000000000000013a .L83
C:\Users\kasie\AppData\Local\Temp\ccBtjLu5.s:1060   .text.xQueueGenericSend:0000000000000144 .L85
C:\Users\kasie\AppData\Local\Temp\ccBtjLu5.s:1004   .text.xQueueGenericSend:0000000000000102 .L95
GAS LISTING C:\Users\kasie\AppData\Local\Temp\ccBtjLu5.s 			page 140


C:\Users\kasie\AppData\Local\Temp\ccBtjLu5.s:913    .text.xQueueGenericSend:000000000000006c .L108
C:\Users\kasie\AppData\Local\Temp\ccBtjLu5.s:1278   .text.xQueueCreateMutex:000000000000004e .L110
C:\Users\kasie\AppData\Local\Temp\ccBtjLu5.s:1326   .text.xQueueGenericSendFromISR:0000000000000008 .L117
C:\Users\kasie\AppData\Local\Temp\ccBtjLu5.s:1320   .text.xQueueGenericSendFromISR:0000000000000006 .L118
C:\Users\kasie\AppData\Local\Temp\ccBtjLu5.s:1350   .text.xQueueGenericSendFromISR:0000000000000014 .L119
C:\Users\kasie\AppData\Local\Temp\ccBtjLu5.s:1344   .text.xQueueGenericSendFromISR:0000000000000012 .L120
C:\Users\kasie\AppData\Local\Temp\ccBtjLu5.s:1377   .text.xQueueGenericSendFromISR:0000000000000028 .L121
C:\Users\kasie\AppData\Local\Temp\ccBtjLu5.s:1371   .text.xQueueGenericSendFromISR:0000000000000026 .L122
C:\Users\kasie\AppData\Local\Temp\ccBtjLu5.s:1424   .text.xQueueGenericSendFromISR:000000000000005c .L123
C:\Users\kasie\AppData\Local\Temp\ccBtjLu5.s:1455   .text.xQueueGenericSendFromISR:0000000000000080 .L124
C:\Users\kasie\AppData\Local\Temp\ccBtjLu5.s:1510   .text.xQueueGenericSendFromISR:00000000000000b8 .L125
C:\Users\kasie\AppData\Local\Temp\ccBtjLu5.s:1491   .text.xQueueGenericSendFromISR:000000000000009e .L126
C:\Users\kasie\AppData\Local\Temp\ccBtjLu5.s:1452   .text.xQueueGenericSendFromISR:000000000000007e .L140
C:\Users\kasie\AppData\Local\Temp\ccBtjLu5.s:1557   .text.xQueueGiveFromISR:0000000000000008 .L142
C:\Users\kasie\AppData\Local\Temp\ccBtjLu5.s:1551   .text.xQueueGiveFromISR:0000000000000006 .L143
C:\Users\kasie\AppData\Local\Temp\ccBtjLu5.s:1580   .text.xQueueGiveFromISR:0000000000000012 .L144
C:\Users\kasie\AppData\Local\Temp\ccBtjLu5.s:1574   .text.xQueueGiveFromISR:0000000000000010 .L145
C:\Users\kasie\AppData\Local\Temp\ccBtjLu5.s:1605   .text.xQueueGiveFromISR:0000000000000020 .L146
C:\Users\kasie\AppData\Local\Temp\ccBtjLu5.s:1599   .text.xQueueGiveFromISR:000000000000001e .L147
C:\Users\kasie\AppData\Local\Temp\ccBtjLu5.s:1674   .text.xQueueGiveFromISR:000000000000005e .L148
C:\Users\kasie\AppData\Local\Temp\ccBtjLu5.s:1727   .text.xQueueGiveFromISR:0000000000000092 .L149
C:\Users\kasie\AppData\Local\Temp\ccBtjLu5.s:1705   .text.xQueueGiveFromISR:0000000000000078 .L150
C:\Users\kasie\AppData\Local\Temp\ccBtjLu5.s:1671   .text.xQueueGiveFromISR:000000000000005c .L164
C:\Users\kasie\AppData\Local\Temp\ccBtjLu5.s:1798   .text.xQueueGenericReceive:000000000000001a .L166
C:\Users\kasie\AppData\Local\Temp\ccBtjLu5.s:1792   .text.xQueueGenericReceive:0000000000000018 .L167
C:\Users\kasie\AppData\Local\Temp\ccBtjLu5.s:1822   .text.xQueueGenericReceive:0000000000000026 .L168
C:\Users\kasie\AppData\Local\Temp\ccBtjLu5.s:1816   .text.xQueueGenericReceive:0000000000000024 .L169
C:\Users\kasie\AppData\Local\Temp\ccBtjLu5.s:1852   .text.xQueueGenericReceive:0000000000000040 .L190
C:\Users\kasie\AppData\Local\Temp\ccBtjLu5.s:1854   .text.xQueueGenericReceive:0000000000000042 .L170
C:\Users\kasie\AppData\Local\Temp\ccBtjLu5.s:1846   .text.xQueueGenericReceive:000000000000003e .L171
C:\Users\kasie\AppData\Local\Temp\ccBtjLu5.s:2048   .text.xQueueGenericReceive:0000000000000150 .L172
C:\Users\kasie\AppData\Local\Temp\ccBtjLu5.s:2106   .text.xQueueGenericReceive:0000000000000190 .L177
C:\Users\kasie\AppData\Local\Temp\ccBtjLu5.s:1912   .text.xQueueGenericReceive:000000000000007e .L180
C:\Users\kasie\AppData\Local\Temp\ccBtjLu5.s:2115   .text.xQueueGenericReceive:000000000000019a .L165
C:\Users\kasie\AppData\Local\Temp\ccBtjLu5.s:1921   .text.xQueueGenericReceive:000000000000008a .L181
C:\Users\kasie\AppData\Local\Temp\ccBtjLu5.s:1940   .text.xQueueGenericReceive:00000000000000b2 .L182
C:\Users\kasie\AppData\Local\Temp\ccBtjLu5.s:1948   .text.xQueueGenericReceive:00000000000000c2 .L183
C:\Users\kasie\AppData\Local\Temp\ccBtjLu5.s:2142   .text.xQueueGenericReceive:00000000000001ac .L184
C:\Users\kasie\AppData\Local\Temp\ccBtjLu5.s:2027   .text.xQueueGenericReceive:0000000000000134 .L185
C:\Users\kasie\AppData\Local\Temp\ccBtjLu5.s:1995   .text.xQueueGenericReceive:000000000000010a .L187
C:\Users\kasie\AppData\Local\Temp\ccBtjLu5.s:2045   .text.xQueueGenericReceive:000000000000014e .L188
C:\Users\kasie\AppData\Local\Temp\ccBtjLu5.s:1896   .text.xQueueGenericReceive:000000000000006e .L173
C:\Users\kasie\AppData\Local\Temp\ccBtjLu5.s:1861   .text.xQueueGenericReceive:000000000000004a .L174
C:\Users\kasie\AppData\Local\Temp\ccBtjLu5.s:2096   .text.xQueueGenericReceive:0000000000000186 .L175
C:\Users\kasie\AppData\Local\Temp\ccBtjLu5.s:1876   .text.xQueueGenericReceive:0000000000000058 .L212
C:\Users\kasie\AppData\Local\Temp\ccBtjLu5.s:1902   .text.xQueueGenericReceive:0000000000000072 .L189
C:\Users\kasie\AppData\Local\Temp\ccBtjLu5.s:2209   .text.xQueueReceiveFromISR:0000000000000008 .L214
C:\Users\kasie\AppData\Local\Temp\ccBtjLu5.s:2203   .text.xQueueReceiveFromISR:0000000000000006 .L215
C:\Users\kasie\AppData\Local\Temp\ccBtjLu5.s:2233   .text.xQueueReceiveFromISR:0000000000000014 .L216
C:\Users\kasie\AppData\Local\Temp\ccBtjLu5.s:2227   .text.xQueueReceiveFromISR:0000000000000012 .L217
C:\Users\kasie\AppData\Local\Temp\ccBtjLu5.s:2312   .text.xQueueReceiveFromISR:0000000000000068 .L218
C:\Users\kasie\AppData\Local\Temp\ccBtjLu5.s:2368   .text.xQueueReceiveFromISR:00000000000000a0 .L219
C:\Users\kasie\AppData\Local\Temp\ccBtjLu5.s:2348   .text.xQueueReceiveFromISR:0000000000000086 .L220
C:\Users\kasie\AppData\Local\Temp\ccBtjLu5.s:2308   .text.xQueueReceiveFromISR:0000000000000066 .L235
C:\Users\kasie\AppData\Local\Temp\ccBtjLu5.s:2417   .text.xQueuePeekFromISR:0000000000000008 .L237
C:\Users\kasie\AppData\Local\Temp\ccBtjLu5.s:2411   .text.xQueuePeekFromISR:0000000000000006 .L238
C:\Users\kasie\AppData\Local\Temp\ccBtjLu5.s:2441   .text.xQueuePeekFromISR:0000000000000014 .L239
GAS LISTING C:\Users\kasie\AppData\Local\Temp\ccBtjLu5.s 			page 141


C:\Users\kasie\AppData\Local\Temp\ccBtjLu5.s:2445   .text.xQueuePeekFromISR:0000000000000016 .L240
C:\Users\kasie\AppData\Local\Temp\ccBtjLu5.s:2435   .text.xQueuePeekFromISR:0000000000000012 .L241
C:\Users\kasie\AppData\Local\Temp\ccBtjLu5.s:2464   .text.xQueuePeekFromISR:000000000000001c .L242
C:\Users\kasie\AppData\Local\Temp\ccBtjLu5.s:2458   .text.xQueuePeekFromISR:000000000000001a .L243
C:\Users\kasie\AppData\Local\Temp\ccBtjLu5.s:2515   .text.xQueuePeekFromISR:000000000000004c .L244
C:\Users\kasie\AppData\Local\Temp\ccBtjLu5.s:2573   .text.uxQueueMessagesWaiting:0000000000000008 .L253
C:\Users\kasie\AppData\Local\Temp\ccBtjLu5.s:2567   .text.uxQueueMessagesWaiting:0000000000000006 .L254
C:\Users\kasie\AppData\Local\Temp\ccBtjLu5.s:2643   .text.uxQueueSpacesAvailable:0000000000000008 .L258
C:\Users\kasie\AppData\Local\Temp\ccBtjLu5.s:2637   .text.uxQueueSpacesAvailable:0000000000000006 .L259
C:\Users\kasie\AppData\Local\Temp\ccBtjLu5.s:2714   .text.uxQueueMessagesWaitingFromISR:0000000000000008 .L263
C:\Users\kasie\AppData\Local\Temp\ccBtjLu5.s:2708   .text.uxQueueMessagesWaitingFromISR:0000000000000006 .L264
C:\Users\kasie\AppData\Local\Temp\ccBtjLu5.s:2807   .text.xQueueIsQueueEmptyFromISR:0000000000000008 .L269
C:\Users\kasie\AppData\Local\Temp\ccBtjLu5.s:2801   .text.xQueueIsQueueEmptyFromISR:0000000000000006 .L270
C:\Users\kasie\AppData\Local\Temp\ccBtjLu5.s:2851   .text.xQueueIsQueueFullFromISR:0000000000000008 .L272
C:\Users\kasie\AppData\Local\Temp\ccBtjLu5.s:2845   .text.xQueueIsQueueFullFromISR:0000000000000006 .L273
C:\Users\kasie\AppData\Local\Temp\ccBtjLu5.s:2906   .text.vQueueAddToRegistry:0000000000000022 .L275
C:\Users\kasie\AppData\Local\Temp\ccBtjLu5.s:2888   .text.vQueueAddToRegistry:0000000000000010 .L277
C:\Users\kasie\AppData\Local\Temp\ccBtjLu5.s:2954   .text.pcQueueGetName:000000000000001e .L280
C:\Users\kasie\AppData\Local\Temp\ccBtjLu5.s:2939   .text.pcQueueGetName:0000000000000010 .L282
C:\Users\kasie\AppData\Local\Temp\ccBtjLu5.s:3007   .text.vQueueUnregisterQueue:0000000000000024 .L285
C:\Users\kasie\AppData\Local\Temp\ccBtjLu5.s:2990   .text.vQueueUnregisterQueue:0000000000000010 .L287
C:\Users\kasie\AppData\Local\Temp\ccBtjLu5.s:3050   .text.vQueueDelete:0000000000000008 .L290
C:\Users\kasie\AppData\Local\Temp\ccBtjLu5.s:3044   .text.vQueueDelete:0000000000000006 .L291
C:\Users\kasie\AppData\Local\Temp\ccBtjLu5.s:3119   .text.vQueueWaitForMessageRestricted:000000000000002a .L295
C:\Users\kasie\AppData\Local\Temp\ccBtjLu5.s:3128   .text.vQueueWaitForMessageRestricted:000000000000003c .L296
C:\Users\kasie\AppData\Local\Temp\ccBtjLu5.s:3147   .text.vQueueWaitForMessageRestricted:000000000000005c .L297
C:\Users\kasie\AppData\Local\Temp\ccBtjLu5.s:7821   .debug_abbrev:0000000000000000 .Ldebug_abbrev0
C:\Users\kasie\AppData\Local\Temp\ccBtjLu5.s:11520  .debug_str:0000000000000119 .LASF252
C:\Users\kasie\AppData\Local\Temp\ccBtjLu5.s:11882  .debug_str:0000000000000afe .LASF253
C:\Users\kasie\AppData\Local\Temp\ccBtjLu5.s:11848  .debug_str:00000000000009e9 .LASF254
C:\Users\kasie\AppData\Local\Temp\ccBtjLu5.s:11308  .debug_ranges:0000000000000000 .Ldebug_ranges0
C:\Users\kasie\AppData\Local\Temp\ccBtjLu5.s:11466  .debug_line:0000000000000000 .Ldebug_line0
C:\Users\kasie\AppData\Local\Temp\ccBtjLu5.s:11476  .debug_str:000000000000003c .LASF4
C:\Users\kasie\AppData\Local\Temp\ccBtjLu5.s:11758  .debug_str:00000000000007c4 .LASF0
C:\Users\kasie\AppData\Local\Temp\ccBtjLu5.s:11956  .debug_str:0000000000000cb9 .LASF1
C:\Users\kasie\AppData\Local\Temp\ccBtjLu5.s:11726  .debug_str:000000000000070d .LASF2
C:\Users\kasie\AppData\Local\Temp\ccBtjLu5.s:11820  .debug_str:000000000000092b .LASF3
C:\Users\kasie\AppData\Local\Temp\ccBtjLu5.s:11888  .debug_str:0000000000000b27 .LASF5
C:\Users\kasie\AppData\Local\Temp\ccBtjLu5.s:11840  .debug_str:000000000000099f .LASF6
C:\Users\kasie\AppData\Local\Temp\ccBtjLu5.s:11588  .debug_str:0000000000000348 .LASF7
C:\Users\kasie\AppData\Local\Temp\ccBtjLu5.s:11540  .debug_str:0000000000000205 .LASF8
C:\Users\kasie\AppData\Local\Temp\ccBtjLu5.s:11594  .debug_str:0000000000000370 .LASF9
C:\Users\kasie\AppData\Local\Temp\ccBtjLu5.s:11908  .debug_str:0000000000000bbe .LASF10
C:\Users\kasie\AppData\Local\Temp\ccBtjLu5.s:11554  .debug_str:0000000000000267 .LASF11
C:\Users\kasie\AppData\Local\Temp\ccBtjLu5.s:11722  .debug_str:00000000000006f7 .LASF12
C:\Users\kasie\AppData\Local\Temp\ccBtjLu5.s:11672  .debug_str:00000000000005a6 .LASF13
C:\Users\kasie\AppData\Local\Temp\ccBtjLu5.s:11842  .debug_str:00000000000009a8 .LASF14
C:\Users\kasie\AppData\Local\Temp\ccBtjLu5.s:11896  .debug_str:0000000000000b44 .LASF15
C:\Users\kasie\AppData\Local\Temp\ccBtjLu5.s:11952  .debug_str:0000000000000cad .LASF16
C:\Users\kasie\AppData\Local\Temp\ccBtjLu5.s:11832  .debug_str:000000000000096a .LASF17
C:\Users\kasie\AppData\Local\Temp\ccBtjLu5.s:11474  .debug_str:0000000000000033 .LASF18
C:\Users\kasie\AppData\Local\Temp\ccBtjLu5.s:11538  .debug_str:00000000000001ff .LASF19
C:\Users\kasie\AppData\Local\Temp\ccBtjLu5.s:11834  .debug_str:0000000000000972 .LASF20
C:\Users\kasie\AppData\Local\Temp\ccBtjLu5.s:11806  .debug_str:00000000000008db .LASF21
C:\Users\kasie\AppData\Local\Temp\ccBtjLu5.s:11480  .debug_str:000000000000004e .LASF22
C:\Users\kasie\AppData\Local\Temp\ccBtjLu5.s:11884  .debug_str:0000000000000b17 .LASF23
C:\Users\kasie\AppData\Local\Temp\ccBtjLu5.s:11942  .debug_str:0000000000000c6b .LASF24
GAS LISTING C:\Users\kasie\AppData\Local\Temp\ccBtjLu5.s 			page 142


C:\Users\kasie\AppData\Local\Temp\ccBtjLu5.s:11690  .debug_str:0000000000000620 .LASF25
C:\Users\kasie\AppData\Local\Temp\ccBtjLu5.s:11878  .debug_str:0000000000000aee .LASF26
C:\Users\kasie\AppData\Local\Temp\ccBtjLu5.s:11704  .debug_str:0000000000000688 .LASF31
C:\Users\kasie\AppData\Local\Temp\ccBtjLu5.s:11890  .debug_str:0000000000000b2e .LASF27
C:\Users\kasie\AppData\Local\Temp\ccBtjLu5.s:11710  .debug_str:00000000000006a6 .LASF28
C:\Users\kasie\AppData\Local\Temp\ccBtjLu5.s:11752  .debug_str:000000000000079e .LASF29
C:\Users\kasie\AppData\Local\Temp\ccBtjLu5.s:11648  .debug_str:00000000000004f4 .LASF30
C:\Users\kasie\AppData\Local\Temp\ccBtjLu5.s:11502  .debug_str:00000000000000b9 .LASF32
C:\Users\kasie\AppData\Local\Temp\ccBtjLu5.s:11508  .debug_str:00000000000000d5 .LASF33
C:\Users\kasie\AppData\Local\Temp\ccBtjLu5.s:11978  .debug_str:0000000000000d3f .LASF34
C:\Users\kasie\AppData\Local\Temp\ccBtjLu5.s:11958  .debug_str:0000000000000ccc .LASF35
C:\Users\kasie\AppData\Local\Temp\ccBtjLu5.s:11774  .debug_str:000000000000082f .LASF36
C:\Users\kasie\AppData\Local\Temp\ccBtjLu5.s:11574  .debug_str:00000000000002e8 .LASF37
C:\Users\kasie\AppData\Local\Temp\ccBtjLu5.s:11916  .debug_str:0000000000000bf2 .LASF38
C:\Users\kasie\AppData\Local\Temp\ccBtjLu5.s:11816  .debug_str:000000000000091a .LASF39
C:\Users\kasie\AppData\Local\Temp\ccBtjLu5.s:11822  .debug_str:0000000000000937 .LASF40
C:\Users\kasie\AppData\Local\Temp\ccBtjLu5.s:11974  .debug_str:0000000000000d2b .LASF41
C:\Users\kasie\AppData\Local\Temp\ccBtjLu5.s:11546  .debug_str:0000000000000222 .LASF42
C:\Users\kasie\AppData\Local\Temp\ccBtjLu5.s:11972  .debug_str:0000000000000d23 .LASF43
C:\Users\kasie\AppData\Local\Temp\ccBtjLu5.s:11850  .debug_str:0000000000000a2d .LASF44
C:\Users\kasie\AppData\Local\Temp\ccBtjLu5.s:11914  .debug_str:0000000000000be9 .LASF45
C:\Users\kasie\AppData\Local\Temp\ccBtjLu5.s:11932  .debug_str:0000000000000c2e .LASF46
C:\Users\kasie\AppData\Local\Temp\ccBtjLu5.s:11800  .debug_str:00000000000008b1 .LASF47
C:\Users\kasie\AppData\Local\Temp\ccBtjLu5.s:11926  .debug_str:0000000000000c1b .LASF48
C:\Users\kasie\AppData\Local\Temp\ccBtjLu5.s:11628  .debug_str:000000000000047a .LASF49
C:\Users\kasie\AppData\Local\Temp\ccBtjLu5.s:11928  .debug_str:0000000000000c20 .LASF50
C:\Users\kasie\AppData\Local\Temp\ccBtjLu5.s:11864  .debug_str:0000000000000a7f .LASF51
C:\Users\kasie\AppData\Local\Temp\ccBtjLu5.s:11562  .debug_str:000000000000028e .LASF52
C:\Users\kasie\AppData\Local\Temp\ccBtjLu5.s:11678  .debug_str:00000000000005d2 .LASF53
C:\Users\kasie\AppData\Local\Temp\ccBtjLu5.s:11794  .debug_str:000000000000088e .LASF54
C:\Users\kasie\AppData\Local\Temp\ccBtjLu5.s:11544  .debug_str:000000000000021c .LASF55
C:\Users\kasie\AppData\Local\Temp\ccBtjLu5.s:11922  .debug_str:0000000000000c0d .LASF56
C:\Users\kasie\AppData\Local\Temp\ccBtjLu5.s:11644  .debug_str:00000000000004e1 .LASF57
C:\Users\kasie\AppData\Local\Temp\ccBtjLu5.s:11486  .debug_str:0000000000000067 .LASF58
C:\Users\kasie\AppData\Local\Temp\ccBtjLu5.s:11488  .debug_str:000000000000006d .LASF59
C:\Users\kasie\AppData\Local\Temp\ccBtjLu5.s:11830  .debug_str:0000000000000964 .LASF60
C:\Users\kasie\AppData\Local\Temp\ccBtjLu5.s:11634  .debug_str:0000000000000499 .LASF61
C:\Users\kasie\AppData\Local\Temp\ccBtjLu5.s:11778  .debug_str:000000000000083e .LASF62
C:\Users\kasie\AppData\Local\Temp\ccBtjLu5.s:11506  .debug_str:00000000000000cf .LASF63
C:\Users\kasie\AppData\Local\Temp\ccBtjLu5.s:11862  .debug_str:0000000000000a76 .LASF64
C:\Users\kasie\AppData\Local\Temp\ccBtjLu5.s:11658  .debug_str:0000000000000546 .LASF65
C:\Users\kasie\AppData\Local\Temp\ccBtjLu5.s:11892  .debug_str:0000000000000b34 .LASF66
C:\Users\kasie\AppData\Local\Temp\ccBtjLu5.s:11516  .debug_str:00000000000000fb .LASF67
C:\Users\kasie\AppData\Local\Temp\ccBtjLu5.s:11786  .debug_str:0000000000000869 .LASF68
C:\Users\kasie\AppData\Local\Temp\ccBtjLu5.s:11682  .debug_str:00000000000005e5 .LASF69
C:\Users\kasie\AppData\Local\Temp\ccBtjLu5.s:11606  .debug_str:00000000000003d6 .LASF70
C:\Users\kasie\AppData\Local\Temp\ccBtjLu5.s:11692  .debug_str:0000000000000632 .LASF71
C:\Users\kasie\AppData\Local\Temp\ccBtjLu5.s:11638  .debug_str:00000000000004b6 .LASF72
C:\Users\kasie\AppData\Local\Temp\ccBtjLu5.s:11854  .debug_str:0000000000000a41 .LASF73
C:\Users\kasie\AppData\Local\Temp\ccBtjLu5.s:11780  .debug_str:0000000000000844 .LASF74
C:\Users\kasie\AppData\Local\Temp\ccBtjLu5.s:11924  .debug_str:0000000000000c16 .LASF75
C:\Users\kasie\AppData\Local\Temp\ccBtjLu5.s:11724  .debug_str:0000000000000702 .LASF76
C:\Users\kasie\AppData\Local\Temp\ccBtjLu5.s:11602  .debug_str:00000000000003ae .LASF77
C:\Users\kasie\AppData\Local\Temp\ccBtjLu5.s:11940  .debug_str:0000000000000c63 .LASF78
C:\Users\kasie\AppData\Local\Temp\ccBtjLu5.s:11680  .debug_str:00000000000005da .LASF79
C:\Users\kasie\AppData\Local\Temp\ccBtjLu5.s:11712  .debug_str:00000000000006ae .LASF80
C:\Users\kasie\AppData\Local\Temp\ccBtjLu5.s:11950  .debug_str:0000000000000ca5 .LASF81
GAS LISTING C:\Users\kasie\AppData\Local\Temp\ccBtjLu5.s 			page 143


C:\Users\kasie\AppData\Local\Temp\ccBtjLu5.s:11560  .debug_str:0000000000000284 .LASF82
C:\Users\kasie\AppData\Local\Temp\ccBtjLu5.s:11670  .debug_str:00000000000005a1 .LASF83
C:\Users\kasie\AppData\Local\Temp\ccBtjLu5.s:11744  .debug_str:000000000000077c .LASF84
C:\Users\kasie\AppData\Local\Temp\ccBtjLu5.s:11494  .debug_str:000000000000008a .LASF85
C:\Users\kasie\AppData\Local\Temp\ccBtjLu5.s:11660  .debug_str:000000000000054e .LASF86
C:\Users\kasie\AppData\Local\Temp\ccBtjLu5.s:11776  .debug_str:0000000000000839 .LASF87
C:\Users\kasie\AppData\Local\Temp\ccBtjLu5.s:11716  .debug_str:00000000000006ce .LASF88
C:\Users\kasie\AppData\Local\Temp\ccBtjLu5.s:11652  .debug_str:0000000000000517 .LASF89
C:\Users\kasie\AppData\Local\Temp\ccBtjLu5.s:11732  .debug_str:0000000000000731 .LASF90
C:\Users\kasie\AppData\Local\Temp\ccBtjLu5.s:11482  .debug_str:0000000000000056 .LASF91
C:\Users\kasie\AppData\Local\Temp\ccBtjLu5.s:11622  .debug_str:0000000000000455 .LASF92
C:\Users\kasie\AppData\Local\Temp\ccBtjLu5.s:11880  .debug_str:0000000000000af7 .LASF93
C:\Users\kasie\AppData\Local\Temp\ccBtjLu5.s:11750  .debug_str:0000000000000798 .LASF94
C:\Users\kasie\AppData\Local\Temp\ccBtjLu5.s:11730  .debug_str:000000000000072a .LASF95
C:\Users\kasie\AppData\Local\Temp\ccBtjLu5.s:11748  .debug_str:0000000000000792 .LASF96
C:\Users\kasie\AppData\Local\Temp\ccBtjLu5.s:11852  .debug_str:0000000000000a39 .LASF97
C:\Users\kasie\AppData\Local\Temp\ccBtjLu5.s:11828  .debug_str:000000000000095e .LASF98
C:\Users\kasie\AppData\Local\Temp\ccBtjLu5.s:11522  .debug_str:00000000000001a1 .LASF99
C:\Users\kasie\AppData\Local\Temp\ccBtjLu5.s:11954  .debug_str:0000000000000cb4 .LASF100
C:\Users\kasie\AppData\Local\Temp\ccBtjLu5.s:11584  .debug_str:000000000000032d .LASF101
C:\Users\kasie\AppData\Local\Temp\ccBtjLu5.s:11868  .debug_str:0000000000000a90 .LASF102
C:\Users\kasie\AppData\Local\Temp\ccBtjLu5.s:11492  .debug_str:000000000000007d .LASF103
C:\Users\kasie\AppData\Local\Temp\ccBtjLu5.s:11570  .debug_str:00000000000002ca .LASF104
C:\Users\kasie\AppData\Local\Temp\ccBtjLu5.s:11738  .debug_str:0000000000000750 .LASF105
C:\Users\kasie\AppData\Local\Temp\ccBtjLu5.s:11790  .debug_str:0000000000000879 .LASF106
C:\Users\kasie\AppData\Local\Temp\ccBtjLu5.s:11886  .debug_str:0000000000000b22 .LASF107
C:\Users\kasie\AppData\Local\Temp\ccBtjLu5.s:11904  .debug_str:0000000000000b9a .LASF108
C:\Users\kasie\AppData\Local\Temp\ccBtjLu5.s:11838  .debug_str:0000000000000991 .LASF109
C:\Users\kasie\AppData\Local\Temp\ccBtjLu5.s:11784  .debug_str:000000000000085b .LASF110
C:\Users\kasie\AppData\Local\Temp\ccBtjLu5.s:11512  .debug_str:00000000000000e9 .LASF111
C:\Users\kasie\AppData\Local\Temp\ccBtjLu5.s:11698  .debug_str:000000000000065f .LASF112
C:\Users\kasie\AppData\Local\Temp\ccBtjLu5.s:11980  .debug_str:0000000000000d48 .LASF113
C:\Users\kasie\AppData\Local\Temp\ccBtjLu5.s:11552  .debug_str:0000000000000259 .LASF114
C:\Users\kasie\AppData\Local\Temp\ccBtjLu5.s:11876  .debug_str:0000000000000adf .LASF115
C:\Users\kasie\AppData\Local\Temp\ccBtjLu5.s:11960  .debug_str:0000000000000cd6 .LASF116
C:\Users\kasie\AppData\Local\Temp\ccBtjLu5.s:11772  .debug_str:0000000000000820 .LASF117
C:\Users\kasie\AppData\Local\Temp\ccBtjLu5.s:11504  .debug_str:00000000000000be .LASF118
C:\Users\kasie\AppData\Local\Temp\ccBtjLu5.s:11764  .debug_str:00000000000007e0 .LASF119
C:\Users\kasie\AppData\Local\Temp\ccBtjLu5.s:11934  .debug_str:0000000000000c36 .LASF120
C:\Users\kasie\AppData\Local\Temp\ccBtjLu5.s:11734  .debug_str:0000000000000739 .LASF121
C:\Users\kasie\AppData\Local\Temp\ccBtjLu5.s:11500  .debug_str:00000000000000b1 .LASF122
C:\Users\kasie\AppData\Local\Temp\ccBtjLu5.s:11478  .debug_str:0000000000000043 .LASF255
C:\Users\kasie\AppData\Local\Temp\ccBtjLu5.s:11556  .debug_str:0000000000000270 .LASF123
C:\Users\kasie\AppData\Local\Temp\ccBtjLu5.s:11610  .debug_str:00000000000003f1 .LASF124
C:\Users\kasie\AppData\Local\Temp\ccBtjLu5.s:11912  .debug_str:0000000000000bdf .LASF125
C:\Users\kasie\AppData\Local\Temp\ccBtjLu5.s:11472  .debug_str:000000000000002c .LASF126
C:\Users\kasie\AppData\Local\Temp\ccBtjLu5.s:11590  .debug_str:0000000000000354 .LASF127
C:\Users\kasie\AppData\Local\Temp\ccBtjLu5.s:11944  .debug_str:0000000000000c73 .LASF128
C:\Users\kasie\AppData\Local\Temp\ccBtjLu5.s:11700  .debug_str:000000000000066b .LASF129
C:\Users\kasie\AppData\Local\Temp\ccBtjLu5.s:11686  .debug_str:0000000000000602 .LASF130
C:\Users\kasie\AppData\Local\Temp\ccBtjLu5.s:11510  .debug_str:00000000000000de .LASF131
C:\Users\kasie\AppData\Local\Temp\ccBtjLu5.s:11858  .debug_str:0000000000000a5f .LASF132
C:\Users\kasie\AppData\Local\Temp\ccBtjLu5.s:11866  .debug_str:0000000000000a85 .LASF133
C:\Users\kasie\AppData\Local\Temp\ccBtjLu5.s:11740  .debug_str:000000000000075f .LASF134
C:\Users\kasie\AppData\Local\Temp\ccBtjLu5.s:11982  .debug_str:0000000000000d55 .LASF135
C:\Users\kasie\AppData\Local\Temp\ccBtjLu5.s:11532  .debug_str:00000000000001d9 .LASF136
C:\Users\kasie\AppData\Local\Temp\ccBtjLu5.s:11860  .debug_str:0000000000000a6b .LASF137
GAS LISTING C:\Users\kasie\AppData\Local\Temp\ccBtjLu5.s 			page 144


C:\Users\kasie\AppData\Local\Temp\ccBtjLu5.s:11824  .debug_str:0000000000000941 .LASF138
C:\Users\kasie\AppData\Local\Temp\ccBtjLu5.s:11720  .debug_str:00000000000006eb .LASF139
C:\Users\kasie\AppData\Local\Temp\ccBtjLu5.s:11920  .debug_str:0000000000000c02 .LASF140
C:\Users\kasie\AppData\Local\Temp\ccBtjLu5.s:11632  .debug_str:0000000000000489 .LASF141
C:\Users\kasie\AppData\Local\Temp\ccBtjLu5.s:11604  .debug_str:00000000000003c7 .LASF142
C:\Users\kasie\AppData\Local\Temp\ccBtjLu5.s:11568  .debug_str:00000000000002c4 .LASF143
C:\Users\kasie\AppData\Local\Temp\ccBtjLu5.s:11770  .debug_str:0000000000000810 .LASF144
C:\Users\kasie\AppData\Local\Temp\ccBtjLu5.s:11614  .debug_str:0000000000000414 .LASF145
C:\Users\kasie\AppData\Local\Temp\ccBtjLu5.s:11804  .debug_str:00000000000008d2 .LASF146
C:\Users\kasie\AppData\Local\Temp\ccBtjLu5.s:11788  .debug_str:0000000000000872 .LASF147
C:\Users\kasie\AppData\Local\Temp\ccBtjLu5.s:11498  .debug_str:00000000000000a7 .LASF148
C:\Users\kasie\AppData\Local\Temp\ccBtjLu5.s:11666  .debug_str:0000000000000578 .LASF149
C:\Users\kasie\AppData\Local\Temp\ccBtjLu5.s:11612  .debug_str:0000000000000404 .LASF150
C:\Users\kasie\AppData\Local\Temp\ccBtjLu5.s:11630  .debug_str:000000000000047f .LASF151
C:\Users\kasie\AppData\Local\Temp\ccBtjLu5.s:11586  .debug_str:000000000000033a .LASF152
C:\Users\kasie\AppData\Local\Temp\ccBtjLu5.s:11526  .debug_str:00000000000001ae .LASF153
C:\Users\kasie\AppData\Local\Temp\ccBtjLu5.s:11620  .debug_str:0000000000000440 .LASF154
C:\Users\kasie\AppData\Local\Temp\ccBtjLu5.s:11640  .debug_str:00000000000004bd .LASF155
C:\Users\kasie\AppData\Local\Temp\ccBtjLu5.s:11762  .debug_str:00000000000007d9 .LASF156
C:\Users\kasie\AppData\Local\Temp\ccBtjLu5.s:11524  .debug_str:00000000000001a7 .LASF157
C:\Users\kasie\AppData\Local\Temp\ccBtjLu5.s:11792  .debug_str:0000000000000884 .LASF158
C:\Users\kasie\AppData\Local\Temp\ccBtjLu5.s:11592  .debug_str:000000000000035c .LASF159
C:\Users\kasie\AppData\Local\Temp\ccBtjLu5.s:11870  .debug_str:0000000000000a9d .LASF160
C:\Users\kasie\AppData\Local\Temp\ccBtjLu5.s:11754  .debug_str:00000000000007a4 .LASF161
C:\Users\kasie\AppData\Local\Temp\ccBtjLu5.s:11976  .debug_str:0000000000000d36 .LASF162
C:\Users\kasie\AppData\Local\Temp\ccBtjLu5.s:11646  .debug_str:00000000000004e9 .LASF163
C:\Users\kasie\AppData\Local\Temp\ccBtjLu5.s:11580  .debug_str:0000000000000318 .LASF164
C:\Users\kasie\AppData\Local\Temp\ccBtjLu5.s:11760  .debug_str:00000000000007d1 .LASF165
C:\Users\kasie\AppData\Local\Temp\ccBtjLu5.s:11578  .debug_str:000000000000030a .LASF166
C:\Users\kasie\AppData\Local\Temp\ccBtjLu5.s:11746  .debug_str:0000000000000786 .LASF167
C:\Users\kasie\AppData\Local\Temp\ccBtjLu5.s:11968  .debug_str:0000000000000d11 .LASF168
C:\Users\kasie\AppData\Local\Temp\ccBtjLu5.s:11674  .debug_str:00000000000005b8 .LASF169
C:\Users\kasie\AppData\Local\Temp\ccBtjLu5.s:11642  .debug_str:00000000000004cd .LASF170
C:\Users\kasie\AppData\Local\Temp\ccBtjLu5.s:11484  .debug_str:000000000000005b .LASF171
C:\Users\kasie\AppData\Local\Temp\ccBtjLu5.s:11514  .debug_str:00000000000000f3 .LASF172
C:\Users\kasie\AppData\Local\Temp\ccBtjLu5.s:11938  .debug_str:0000000000000c50 .LASF173
C:\Users\kasie\AppData\Local\Temp\ccBtjLu5.s:11946  .debug_str:0000000000000c7c .LASF174
C:\Users\kasie\AppData\Local\Temp\ccBtjLu5.s:11808  .debug_str:00000000000008e3 .LASF175
C:\Users\kasie\AppData\Local\Temp\ccBtjLu5.s:11600  .debug_str:000000000000038f .LASF179
C:\Users\kasie\AppData\Local\Temp\ccBtjLu5.s:3087   .text.vQueueWaitForMessageRestricted:0000000000000000 .LFB32
C:\Users\kasie\AppData\Local\Temp\ccBtjLu5.s:3164   .text.vQueueWaitForMessageRestricted:000000000000006c .LFE32
C:\Users\kasie\AppData\Local\Temp\ccBtjLu5.s:8958   .debug_loc:0000000000000000 .LLST131
C:\Users\kasie\AppData\Local\Temp\ccBtjLu5.s:11818  .debug_str:0000000000000924 .LASF176
C:\Users\kasie\AppData\Local\Temp\ccBtjLu5.s:8976   .debug_loc:000000000000002c .LLST132
C:\Users\kasie\AppData\Local\Temp\ccBtjLu5.s:11796  .debug_str:0000000000000895 .LASF177
C:\Users\kasie\AppData\Local\Temp\ccBtjLu5.s:8998   .debug_loc:0000000000000063 .LLST133
C:\Users\kasie\AppData\Local\Temp\ccBtjLu5.s:11618  .debug_str:000000000000042e .LASF178
C:\Users\kasie\AppData\Local\Temp\ccBtjLu5.s:9017   .debug_loc:0000000000000090 .LLST134
C:\Users\kasie\AppData\Local\Temp\ccBtjLu5.s:11558  .debug_str:000000000000027c .LASF181
C:\Users\kasie\AppData\Local\Temp\ccBtjLu5.s:9036   .debug_loc:00000000000000bd .LLST135
C:\Users\kasie\AppData\Local\Temp\ccBtjLu5.s:3108   .text.vQueueWaitForMessageRestricted:0000000000000014 .LVL312
C:\Users\kasie\AppData\Local\Temp\ccBtjLu5.s:3135   .text.vQueueWaitForMessageRestricted:0000000000000048 .LVL315
C:\Users\kasie\AppData\Local\Temp\ccBtjLu5.s:3146   .text.vQueueWaitForMessageRestricted:000000000000005c .LVL316
C:\Users\kasie\AppData\Local\Temp\ccBtjLu5.s:3162   .text.vQueueWaitForMessageRestricted:000000000000006c .LVL318
C:\Users\kasie\AppData\Local\Temp\ccBtjLu5.s:11636  .debug_str:00000000000004a0 .LASF180
C:\Users\kasie\AppData\Local\Temp\ccBtjLu5.s:2976   .text.vQueueUnregisterQueue:0000000000000000 .LFB31
C:\Users\kasie\AppData\Local\Temp\ccBtjLu5.s:3018   .text.vQueueUnregisterQueue:000000000000002e .LFE31
GAS LISTING C:\Users\kasie\AppData\Local\Temp\ccBtjLu5.s 			page 145


C:\Users\kasie\AppData\Local\Temp\ccBtjLu5.s:9058   .debug_loc:00000000000000f4 .LLST127
C:\Users\kasie\AppData\Local\Temp\ccBtjLu5.s:11782  .debug_str:000000000000084c .LASF184
C:\Users\kasie\AppData\Local\Temp\ccBtjLu5.s:2924   .text.pcQueueGetName:0000000000000000 .LFB30
C:\Users\kasie\AppData\Local\Temp\ccBtjLu5.s:2969   .text.pcQueueGetName:000000000000002a .LFE30
C:\Users\kasie\AppData\Local\Temp\ccBtjLu5.s:9074   .debug_loc:000000000000011e .LLST124
C:\Users\kasie\AppData\Local\Temp\ccBtjLu5.s:9099   .debug_loc:0000000000000158 .LLST125
C:\Users\kasie\AppData\Local\Temp\ccBtjLu5.s:11596  .debug_str:000000000000037e .LASF182
C:\Users\kasie\AppData\Local\Temp\ccBtjLu5.s:9115   .debug_loc:0000000000000182 .LLST126
C:\Users\kasie\AppData\Local\Temp\ccBtjLu5.s:11718  .debug_str:00000000000006d7 .LASF183
C:\Users\kasie\AppData\Local\Temp\ccBtjLu5.s:2874   .text.vQueueAddToRegistry:0000000000000000 .LFB29
C:\Users\kasie\AppData\Local\Temp\ccBtjLu5.s:2917   .text.vQueueAddToRegistry:000000000000002c .LFE29
C:\Users\kasie\AppData\Local\Temp\ccBtjLu5.s:9132   .debug_loc:00000000000001ad .LLST123
C:\Users\kasie\AppData\Local\Temp\ccBtjLu5.s:11548  .debug_str:0000000000000230 .LASF185
C:\Users\kasie\AppData\Local\Temp\ccBtjLu5.s:2826   .text.xQueueIsQueueFullFromISR:0000000000000000 .LFB28
C:\Users\kasie\AppData\Local\Temp\ccBtjLu5.s:2867   .text.xQueueIsQueueFullFromISR:0000000000000014 .LFE28
C:\Users\kasie\AppData\Local\Temp\ccBtjLu5.s:9148   .debug_loc:00000000000001d7 .LLST121
C:\Users\kasie\AppData\Local\Temp\ccBtjLu5.s:11598  .debug_str:0000000000000387 .LASF186
C:\Users\kasie\AppData\Local\Temp\ccBtjLu5.s:9162   .debug_loc:00000000000001f8 .LLST122
C:\Users\kasie\AppData\Local\Temp\ccBtjLu5.s:2834   .text.xQueueIsQueueFullFromISR:0000000000000002 .LBB139
C:\Users\kasie\AppData\Local\Temp\ccBtjLu5.s:2846   .text.xQueueIsQueueFullFromISR:0000000000000006 .LBE139
C:\Users\kasie\AppData\Local\Temp\ccBtjLu5.s:11918  .debug_str:0000000000000bfc .LASF187
C:\Users\kasie\AppData\Local\Temp\ccBtjLu5.s:11572  .debug_str:00000000000002d9 .LASF189
C:\Users\kasie\AppData\Local\Temp\ccBtjLu5.s:11668  .debug_str:0000000000000587 .LASF188
C:\Users\kasie\AppData\Local\Temp\ccBtjLu5.s:2782   .text.xQueueIsQueueEmptyFromISR:0000000000000000 .LFB26
C:\Users\kasie\AppData\Local\Temp\ccBtjLu5.s:2819   .text.xQueueIsQueueEmptyFromISR:0000000000000010 .LFE26
C:\Users\kasie\AppData\Local\Temp\ccBtjLu5.s:9206   .debug_loc:000000000000023e .LLST119
C:\Users\kasie\AppData\Local\Temp\ccBtjLu5.s:9220   .debug_loc:000000000000025f .LLST120
C:\Users\kasie\AppData\Local\Temp\ccBtjLu5.s:2790   .text.xQueueIsQueueEmptyFromISR:0000000000000002 .LBB138
C:\Users\kasie\AppData\Local\Temp\ccBtjLu5.s:2802   .text.xQueueIsQueueEmptyFromISR:0000000000000006 .LBE138
C:\Users\kasie\AppData\Local\Temp\ccBtjLu5.s:11550  .debug_str:0000000000000249 .LASF190
C:\Users\kasie\AppData\Local\Temp\ccBtjLu5.s:11812  .debug_str:00000000000008fb .LASF191
C:\Users\kasie\AppData\Local\Temp\ccBtjLu5.s:225    .text.prvUnlockQueue:0000000000000000 .LFB24
C:\Users\kasie\AppData\Local\Temp\ccBtjLu5.s:369    .text.prvUnlockQueue:00000000000000a2 .LFE24
C:\Users\kasie\AppData\Local\Temp\ccBtjLu5.s:9234   .debug_loc:0000000000000279 .LLST8
C:\Users\kasie\AppData\Local\Temp\ccBtjLu5.s:9257   .debug_loc:00000000000002b1 .LLST9
C:\Users\kasie\AppData\Local\Temp\ccBtjLu5.s:9285   .debug_loc:00000000000002f5 .LLST10
C:\Users\kasie\AppData\Local\Temp\ccBtjLu5.s:325    .text.prvUnlockQueue:0000000000000070 .LVL35
C:\Users\kasie\AppData\Local\Temp\ccBtjLu5.s:330    .text.prvUnlockQueue:000000000000007a .LVL36
C:\Users\kasie\AppData\Local\Temp\ccBtjLu5.s:9300   .debug_loc:000000000000031e .LLST11
C:\Users\kasie\AppData\Local\Temp\ccBtjLu5.s:352    .text.prvUnlockQueue:0000000000000090 .LVL40
C:\Users\kasie\AppData\Local\Temp\ccBtjLu5.s:357    .text.prvUnlockQueue:000000000000009a .LVL41
C:\Users\kasie\AppData\Local\Temp\ccBtjLu5.s:245    .text.prvUnlockQueue:0000000000000014 .LVL25
C:\Users\kasie\AppData\Local\Temp\ccBtjLu5.s:268    .text.prvUnlockQueue:0000000000000032 .LVL27
C:\Users\kasie\AppData\Local\Temp\ccBtjLu5.s:271    .text.prvUnlockQueue:000000000000003a .LVL28
C:\Users\kasie\AppData\Local\Temp\ccBtjLu5.s:312    .text.prvUnlockQueue:0000000000000062 .LVL34
C:\Users\kasie\AppData\Local\Temp\ccBtjLu5.s:11766  .debug_str:00000000000007e9 .LASF192
C:\Users\kasie\AppData\Local\Temp\ccBtjLu5.s:178    .text.prvCopyDataFromQueue:0000000000000000 .LFB23
C:\Users\kasie\AppData\Local\Temp\ccBtjLu5.s:219    .text.prvCopyDataFromQueue:0000000000000024 .LFE23
C:\Users\kasie\AppData\Local\Temp\ccBtjLu5.s:9315   .debug_loc:0000000000000347 .LLST6
C:\Users\kasie\AppData\Local\Temp\ccBtjLu5.s:11490  .debug_str:0000000000000074 .LASF193
C:\Users\kasie\AppData\Local\Temp\ccBtjLu5.s:9337   .debug_loc:000000000000037e .LLST7
C:\Users\kasie\AppData\Local\Temp\ccBtjLu5.s:214    .text.prvCopyDataFromQueue:0000000000000022 .LVL23
C:\Users\kasie\AppData\Local\Temp\ccBtjLu5.s:11936  .debug_str:0000000000000c3d .LASF256
C:\Users\kasie\AppData\Local\Temp\ccBtjLu5.s:13     .text.prvCopyDataToQueue:0000000000000000 .LFB22
C:\Users\kasie\AppData\Local\Temp\ccBtjLu5.s:172    .text.prvCopyDataToQueue:0000000000000096 .LFE22
C:\Users\kasie\AppData\Local\Temp\ccBtjLu5.s:9359   .debug_loc:00000000000003b5 .LLST0
C:\Users\kasie\AppData\Local\Temp\ccBtjLu5.s:9382   .debug_loc:00000000000003ed .LLST1
GAS LISTING C:\Users\kasie\AppData\Local\Temp\ccBtjLu5.s 			page 146


C:\Users\kasie\AppData\Local\Temp\ccBtjLu5.s:11468  .debug_str:0000000000000000 .LASF194
C:\Users\kasie\AppData\Local\Temp\ccBtjLu5.s:9404   .debug_loc:0000000000000424 .LLST2
C:\Users\kasie\AppData\Local\Temp\ccBtjLu5.s:11706  .debug_str:0000000000000690 .LASF195
C:\Users\kasie\AppData\Local\Temp\ccBtjLu5.s:9440   .debug_loc:0000000000000477 .LLST3
C:\Users\kasie\AppData\Local\Temp\ccBtjLu5.s:9480   .debug_loc:00000000000004d5 .LLST4
C:\Users\kasie\AppData\Local\Temp\ccBtjLu5.s:9501   .debug_loc:000000000000050b .LLST5
C:\Users\kasie\AppData\Local\Temp\ccBtjLu5.s:60     .text.prvCopyDataToQueue:0000000000000026 .LVL5
C:\Users\kasie\AppData\Local\Temp\ccBtjLu5.s:105    .text.prvCopyDataToQueue:000000000000004c .LVL13
C:\Users\kasie\AppData\Local\Temp\ccBtjLu5.s:129    .text.prvCopyDataToQueue:000000000000006a .LVL15
C:\Users\kasie\AppData\Local\Temp\ccBtjLu5.s:11874  .debug_str:0000000000000acb .LASF196
C:\Users\kasie\AppData\Local\Temp\ccBtjLu5.s:2765   .text.ucQueueGetQueueType:0000000000000000 .LFB21
C:\Users\kasie\AppData\Local\Temp\ccBtjLu5.s:2775   .text.ucQueueGetQueueType:0000000000000006 .LFE21
C:\Users\kasie\AppData\Local\Temp\ccBtjLu5.s:9530   .debug_loc:0000000000000549 .LLST118
C:\Users\kasie\AppData\Local\Temp\ccBtjLu5.s:11948  .debug_str:0000000000000c90 .LASF197
C:\Users\kasie\AppData\Local\Temp\ccBtjLu5.s:2748   .text.vQueueSetQueueNumber:0000000000000000 .LFB20
C:\Users\kasie\AppData\Local\Temp\ccBtjLu5.s:2758   .text.vQueueSetQueueNumber:0000000000000004 .LFE20
C:\Users\kasie\AppData\Local\Temp\ccBtjLu5.s:11984  .debug_str:0000000000000d60 .LASF198
C:\Users\kasie\AppData\Local\Temp\ccBtjLu5.s:2731   .text.uxQueueGetQueueNumber:0000000000000000 .LFB19
C:\Users\kasie\AppData\Local\Temp\ccBtjLu5.s:2741   .text.uxQueueGetQueueNumber:0000000000000004 .LFE19
C:\Users\kasie\AppData\Local\Temp\ccBtjLu5.s:9544   .debug_loc:000000000000056a .LLST117
C:\Users\kasie\AppData\Local\Temp\ccBtjLu5.s:11626  .debug_str:000000000000046d .LASF199
C:\Users\kasie\AppData\Local\Temp\ccBtjLu5.s:3025   .text.vQueueDelete:0000000000000000 .LFB18
C:\Users\kasie\AppData\Local\Temp\ccBtjLu5.s:3080   .text.vQueueDelete:0000000000000028 .LFE18
C:\Users\kasie\AppData\Local\Temp\ccBtjLu5.s:9558   .debug_loc:000000000000058b .LLST128
C:\Users\kasie\AppData\Local\Temp\ccBtjLu5.s:9576   .debug_loc:00000000000005b7 .LLST129
C:\Users\kasie\AppData\Local\Temp\ccBtjLu5.s:9598   .debug_loc:00000000000005ee .LLST130
C:\Users\kasie\AppData\Local\Temp\ccBtjLu5.s:3033   .text.vQueueDelete:0000000000000002 .LBB140
C:\Users\kasie\AppData\Local\Temp\ccBtjLu5.s:3045   .text.vQueueDelete:0000000000000006 .LBE140
C:\Users\kasie\AppData\Local\Temp\ccBtjLu5.s:3064   .text.vQueueDelete:0000000000000018 .LVL307
C:\Users\kasie\AppData\Local\Temp\ccBtjLu5.s:3078   .text.vQueueDelete:0000000000000028 .LVL309
C:\Users\kasie\AppData\Local\Temp\ccBtjLu5.s:11898  .debug_str:0000000000000b50 .LASF200
C:\Users\kasie\AppData\Local\Temp\ccBtjLu5.s:2689   .text.uxQueueMessagesWaitingFromISR:0000000000000000 .LFB17
C:\Users\kasie\AppData\Local\Temp\ccBtjLu5.s:2724   .text.uxQueueMessagesWaitingFromISR:000000000000000c .LFE17
C:\Users\kasie\AppData\Local\Temp\ccBtjLu5.s:9620   .debug_loc:0000000000000625 .LLST116
C:\Users\kasie\AppData\Local\Temp\ccBtjLu5.s:11530  .debug_str:00000000000001d0 .LASF201
C:\Users\kasie\AppData\Local\Temp\ccBtjLu5.s:2697   .text.uxQueueMessagesWaitingFromISR:0000000000000002 .LBB137
C:\Users\kasie\AppData\Local\Temp\ccBtjLu5.s:2709   .text.uxQueueMessagesWaitingFromISR:0000000000000006 .LBE137
C:\Users\kasie\AppData\Local\Temp\ccBtjLu5.s:11910  .debug_str:0000000000000bc8 .LASF202
C:\Users\kasie\AppData\Local\Temp\ccBtjLu5.s:2616   .text.uxQueueSpacesAvailable:0000000000000000 .LFB16
C:\Users\kasie\AppData\Local\Temp\ccBtjLu5.s:2682   .text.uxQueueSpacesAvailable:0000000000000032 .LFE16
C:\Users\kasie\AppData\Local\Temp\ccBtjLu5.s:9634   .debug_loc:0000000000000646 .LLST112
C:\Users\kasie\AppData\Local\Temp\ccBtjLu5.s:9652   .debug_loc:0000000000000672 .LLST113
C:\Users\kasie\AppData\Local\Temp\ccBtjLu5.s:9670   .debug_loc:000000000000069e .LLST114
C:\Users\kasie\AppData\Local\Temp\ccBtjLu5.s:9687   .debug_loc:00000000000006c9 .LLST115
C:\Users\kasie\AppData\Local\Temp\ccBtjLu5.s:2626   .text.uxQueueSpacesAvailable:0000000000000002 .LBB136
C:\Users\kasie\AppData\Local\Temp\ccBtjLu5.s:2638   .text.uxQueueSpacesAvailable:0000000000000006 .LBE136
C:\Users\kasie\AppData\Local\Temp\ccBtjLu5.s:2656   .text.uxQueueSpacesAvailable:0000000000000018 .LVL266
C:\Users\kasie\AppData\Local\Temp\ccBtjLu5.s:2667   .text.uxQueueSpacesAvailable:0000000000000028 .LVL268
C:\Users\kasie\AppData\Local\Temp\ccBtjLu5.s:11872  .debug_str:0000000000000ab4 .LASF203
C:\Users\kasie\AppData\Local\Temp\ccBtjLu5.s:2548   .text.uxQueueMessagesWaiting:0000000000000000 .LFB15
C:\Users\kasie\AppData\Local\Temp\ccBtjLu5.s:2609   .text.uxQueueMessagesWaiting:000000000000002e .LFE15
C:\Users\kasie\AppData\Local\Temp\ccBtjLu5.s:9705   .debug_loc:00000000000006f5 .LLST109
C:\Users\kasie\AppData\Local\Temp\ccBtjLu5.s:9723   .debug_loc:0000000000000721 .LLST110
C:\Users\kasie\AppData\Local\Temp\ccBtjLu5.s:9741   .debug_loc:000000000000074d .LLST111
C:\Users\kasie\AppData\Local\Temp\ccBtjLu5.s:2556   .text.uxQueueMessagesWaiting:0000000000000002 .LBB135
C:\Users\kasie\AppData\Local\Temp\ccBtjLu5.s:2568   .text.uxQueueMessagesWaiting:0000000000000006 .LBE135
C:\Users\kasie\AppData\Local\Temp\ccBtjLu5.s:2586   .text.uxQueueMessagesWaiting:0000000000000018 .LVL259
GAS LISTING C:\Users\kasie\AppData\Local\Temp\ccBtjLu5.s 			page 147


C:\Users\kasie\AppData\Local\Temp\ccBtjLu5.s:2594   .text.uxQueueMessagesWaiting:0000000000000024 .LVL261
C:\Users\kasie\AppData\Local\Temp\ccBtjLu5.s:11676  .debug_str:00000000000005c0 .LASF204
C:\Users\kasie\AppData\Local\Temp\ccBtjLu5.s:2389   .text.xQueuePeekFromISR:0000000000000000 .LFB14
C:\Users\kasie\AppData\Local\Temp\ccBtjLu5.s:2541   .text.xQueuePeekFromISR:0000000000000064 .LFE14
C:\Users\kasie\AppData\Local\Temp\ccBtjLu5.s:9758   .debug_loc:0000000000000778 .LLST102
C:\Users\kasie\AppData\Local\Temp\ccBtjLu5.s:9776   .debug_loc:00000000000007a4 .LLST103
C:\Users\kasie\AppData\Local\Temp\ccBtjLu5.s:9794   .debug_loc:00000000000007d0 .LLST104
C:\Users\kasie\AppData\Local\Temp\ccBtjLu5.s:9811   .debug_loc:00000000000007fb .LLST105
C:\Users\kasie\AppData\Local\Temp\ccBtjLu5.s:11528  .debug_str:00000000000001b9 .LASF205
C:\Users\kasie\AppData\Local\Temp\ccBtjLu5.s:9827   .debug_loc:0000000000000825 .LLST106
C:\Users\kasie\AppData\Local\Temp\ccBtjLu5.s:11906  .debug_str:0000000000000ba7 .LASF206
C:\Users\kasie\AppData\Local\Temp\ccBtjLu5.s:9838   .debug_loc:0000000000000843 .LLST107
C:\Users\kasie\AppData\Local\Temp\ccBtjLu5.s:9845   .debug_loc:0000000000000856 .LLST108
C:\Users\kasie\AppData\Local\Temp\ccBtjLu5.s:2400   .text.xQueuePeekFromISR:0000000000000002 .LBB132
C:\Users\kasie\AppData\Local\Temp\ccBtjLu5.s:2412   .text.xQueuePeekFromISR:0000000000000006 .LBE132
C:\Users\kasie\AppData\Local\Temp\ccBtjLu5.s:2424   .text.xQueuePeekFromISR:000000000000000e .LBB133
C:\Users\kasie\AppData\Local\Temp\ccBtjLu5.s:2436   .text.xQueuePeekFromISR:0000000000000012 .LBE133
C:\Users\kasie\AppData\Local\Temp\ccBtjLu5.s:2447   .text.xQueuePeekFromISR:0000000000000016 .LBB134
C:\Users\kasie\AppData\Local\Temp\ccBtjLu5.s:2459   .text.xQueuePeekFromISR:000000000000001a .LBE134
C:\Users\kasie\AppData\Local\Temp\ccBtjLu5.s:2485   .text.xQueuePeekFromISR:0000000000000032 .LVL245
C:\Users\kasie\AppData\Local\Temp\ccBtjLu5.s:2506   .text.xQueuePeekFromISR:0000000000000048 .LVL249
C:\Users\kasie\AppData\Local\Temp\ccBtjLu5.s:2520   .text.xQueuePeekFromISR:0000000000000056 .LVL252
C:\Users\kasie\AppData\Local\Temp\ccBtjLu5.s:11496  .debug_str:0000000000000092 .LASF207
C:\Users\kasie\AppData\Local\Temp\ccBtjLu5.s:2182   .text.xQueueReceiveFromISR:0000000000000000 .LFB13
C:\Users\kasie\AppData\Local\Temp\ccBtjLu5.s:2382   .text.xQueueReceiveFromISR:00000000000000ac .LFE13
C:\Users\kasie\AppData\Local\Temp\ccBtjLu5.s:9863   .debug_loc:0000000000000882 .LLST93
C:\Users\kasie\AppData\Local\Temp\ccBtjLu5.s:9886   .debug_loc:00000000000008ba .LLST94
C:\Users\kasie\AppData\Local\Temp\ccBtjLu5.s:9908   .debug_loc:00000000000008f1 .LLST95
C:\Users\kasie\AppData\Local\Temp\ccBtjLu5.s:11900  .debug_str:0000000000000b6e .LASF208
C:\Users\kasie\AppData\Local\Temp\ccBtjLu5.s:9930   .debug_loc:0000000000000928 .LLST96
C:\Users\kasie\AppData\Local\Temp\ccBtjLu5.s:9952   .debug_loc:000000000000095f .LLST97
C:\Users\kasie\AppData\Local\Temp\ccBtjLu5.s:9963   .debug_loc:000000000000097d .LLST98
C:\Users\kasie\AppData\Local\Temp\ccBtjLu5.s:9978   .debug_loc:00000000000009a6 .LLST99
C:\Users\kasie\AppData\Local\Temp\ccBtjLu5.s:2192   .text.xQueueReceiveFromISR:0000000000000002 .LBB125
C:\Users\kasie\AppData\Local\Temp\ccBtjLu5.s:2204   .text.xQueueReceiveFromISR:0000000000000006 .LBE125
C:\Users\kasie\AppData\Local\Temp\ccBtjLu5.s:2216   .text.xQueueReceiveFromISR:000000000000000e .LBB126
C:\Users\kasie\AppData\Local\Temp\ccBtjLu5.s:2228   .text.xQueueReceiveFromISR:0000000000000012 .LBE126
C:\Users\kasie\AppData\Local\Temp\ccBtjLu5.s:10000  .debug_loc:00000000000009dd .LLST100
C:\Users\kasie\AppData\Local\Temp\ccBtjLu5.s:10019  .debug_loc:0000000000000a0a .LLST101
C:\Users\kasie\AppData\Local\Temp\ccBtjLu5.s:2285   .text.xQueueReceiveFromISR:000000000000004e .LVL227
C:\Users\kasie\AppData\Local\Temp\ccBtjLu5.s:2357   .text.xQueueReceiveFromISR:0000000000000092 .LVL239
C:\Users\kasie\AppData\Local\Temp\ccBtjLu5.s:2261   .text.xQueueReceiveFromISR:0000000000000032 .LVL224
C:\Users\kasie\AppData\Local\Temp\ccBtjLu5.s:2319   .text.xQueueReceiveFromISR:0000000000000072 .LVL232
C:\Users\kasie\AppData\Local\Temp\ccBtjLu5.s:11964  .debug_str:0000000000000cf1 .LASF209
C:\Users\kasie\AppData\Local\Temp\ccBtjLu5.s:1749   .text.xQueueGenericReceive:0000000000000000 .LFB12
C:\Users\kasie\AppData\Local\Temp\ccBtjLu5.s:2175   .text.xQueueGenericReceive:00000000000001d6 .LFE12
C:\Users\kasie\AppData\Local\Temp\ccBtjLu5.s:10030  .debug_loc:0000000000000a28 .LLST80
C:\Users\kasie\AppData\Local\Temp\ccBtjLu5.s:10053  .debug_loc:0000000000000a62 .LLST81
C:\Users\kasie\AppData\Local\Temp\ccBtjLu5.s:10081  .debug_loc:0000000000000aa6 .LLST82
C:\Users\kasie\AppData\Local\Temp\ccBtjLu5.s:10103  .debug_loc:0000000000000add .LLST83
C:\Users\kasie\AppData\Local\Temp\ccBtjLu5.s:11542  .debug_str:000000000000020f .LASF210
C:\Users\kasie\AppData\Local\Temp\ccBtjLu5.s:10110  .debug_loc:0000000000000af0 .LLST84
C:\Users\kasie\AppData\Local\Temp\ccBtjLu5.s:11688  .debug_str:0000000000000612 .LASF211
C:\Users\kasie\AppData\Local\Temp\ccBtjLu5.s:10132  .debug_loc:0000000000000b27 .LLST85
C:\Users\kasie\AppData\Local\Temp\ccBtjLu5.s:11810  .debug_str:00000000000008f2 .LASF212
C:\Users\kasie\AppData\Local\Temp\ccBtjLu5.s:10169  .debug_loc:0000000000000b82 .LLST86
C:\Users\kasie\AppData\Local\Temp\ccBtjLu5.s:10180  .debug_loc:0000000000000ba0 .LLST87
GAS LISTING C:\Users\kasie\AppData\Local\Temp\ccBtjLu5.s 			page 148


C:\Users\kasie\AppData\Local\Temp\ccBtjLu5.s:1781   .text.xQueueGenericReceive:0000000000000014 .LBB112
C:\Users\kasie\AppData\Local\Temp\ccBtjLu5.s:1793   .text.xQueueGenericReceive:0000000000000018 .LBE112
C:\Users\kasie\AppData\Local\Temp\ccBtjLu5.s:1805   .text.xQueueGenericReceive:0000000000000020 .LBB113
C:\Users\kasie\AppData\Local\Temp\ccBtjLu5.s:1817   .text.xQueueGenericReceive:0000000000000024 .LBE113
C:\Users\kasie\AppData\Local\Temp\ccBtjLu5.s:1835   .text.xQueueGenericReceive:000000000000003a .LBB114
C:\Users\kasie\AppData\Local\Temp\ccBtjLu5.s:1847   .text.xQueueGenericReceive:000000000000003e .LBE114
C:\Users\kasie\AppData\Local\Temp\ccBtjLu5.s:10208  .debug_loc:0000000000000be4 .LLST88
C:\Users\kasie\AppData\Local\Temp\ccBtjLu5.s:1882   .text.xQueueGenericReceive:0000000000000064 .LBB116
C:\Users\kasie\AppData\Local\Temp\ccBtjLu5.s:1892   .text.xQueueGenericReceive:000000000000006c .LBE116
C:\Users\kasie\AppData\Local\Temp\ccBtjLu5.s:1878   .text.xQueueGenericReceive:0000000000000060 .LVL175
C:\Users\kasie\AppData\Local\Temp\ccBtjLu5.s:1905   .text.xQueueGenericReceive:000000000000007a .LVL178
C:\Users\kasie\AppData\Local\Temp\ccBtjLu5.s:1919   .text.xQueueGenericReceive:000000000000008a .LVL180
C:\Users\kasie\AppData\Local\Temp\ccBtjLu5.s:2074   .text.xQueueGenericReceive:0000000000000170 .LVL205
C:\Users\kasie\AppData\Local\Temp\ccBtjLu5.s:2093   .text.xQueueGenericReceive:0000000000000184 .LVL207
C:\Users\kasie\AppData\Local\Temp\ccBtjLu5.s:2110   .text.xQueueGenericReceive:0000000000000198 .LVL209
C:\Users\kasie\AppData\Local\Temp\ccBtjLu5.s:2013   .text.xQueueGenericReceive:000000000000012a .LBB120
C:\Users\kasie\AppData\Local\Temp\ccBtjLu5.s:2023   .text.xQueueGenericReceive:0000000000000132 .LBE120
C:\Users\kasie\AppData\Local\Temp\ccBtjLu5.s:1962   .text.xQueueGenericReceive:00000000000000d8 .LBB117
C:\Users\kasie\AppData\Local\Temp\ccBtjLu5.s:10233  .debug_loc:0000000000000c25 .LLST89
C:\Users\kasie\AppData\Local\Temp\ccBtjLu5.s:10244  .debug_loc:0000000000000c43 .LLST90
C:\Users\kasie\AppData\Local\Temp\ccBtjLu5.s:1967   .text.xQueueGenericReceive:00000000000000e0 .LVL187
C:\Users\kasie\AppData\Local\Temp\ccBtjLu5.s:1976   .text.xQueueGenericReceive:00000000000000ec .LVL189
C:\Users\kasie\AppData\Local\Temp\ccBtjLu5.s:2033   .text.xQueueGenericReceive:000000000000013c .LVL197
C:\Users\kasie\AppData\Local\Temp\ccBtjLu5.s:2154   .text.xQueueGenericReceive:00000000000001be .LBB123
C:\Users\kasie\AppData\Local\Temp\ccBtjLu5.s:2173   .text.xQueueGenericReceive:00000000000001d6 .LBE123
C:\Users\kasie\AppData\Local\Temp\ccBtjLu5.s:10257  .debug_loc:0000000000000c63 .LLST91
C:\Users\kasie\AppData\Local\Temp\ccBtjLu5.s:2155   .text.xQueueGenericReceive:00000000000001be .LBB124
C:\Users\kasie\AppData\Local\Temp\ccBtjLu5.s:2172   .text.xQueueGenericReceive:00000000000001d6 .LBE124
C:\Users\kasie\AppData\Local\Temp\ccBtjLu5.s:10264  .debug_loc:0000000000000c76 .LLST92
C:\Users\kasie\AppData\Local\Temp\ccBtjLu5.s:2159   .text.xQueueGenericReceive:00000000000001c6 .LVL218
C:\Users\kasie\AppData\Local\Temp\ccBtjLu5.s:2169   .text.xQueueGenericReceive:00000000000001d4 .LVL220
C:\Users\kasie\AppData\Local\Temp\ccBtjLu5.s:1829   .text.xQueueGenericReceive:0000000000000034 .LVL171
C:\Users\kasie\AppData\Local\Temp\ccBtjLu5.s:1926   .text.xQueueGenericReceive:0000000000000092 .LVL181
C:\Users\kasie\AppData\Local\Temp\ccBtjLu5.s:1929   .text.xQueueGenericReceive:000000000000009a .LVL182
C:\Users\kasie\AppData\Local\Temp\ccBtjLu5.s:1932   .text.xQueueGenericReceive:00000000000000a2 .LVL183
C:\Users\kasie\AppData\Local\Temp\ccBtjLu5.s:1951   .text.xQueueGenericReceive:00000000000000ca .LVL184
C:\Users\kasie\AppData\Local\Temp\ccBtjLu5.s:1957   .text.xQueueGenericReceive:00000000000000d6 .LVL185
C:\Users\kasie\AppData\Local\Temp\ccBtjLu5.s:1987   .text.xQueueGenericReceive:00000000000000f8 .LVL190
C:\Users\kasie\AppData\Local\Temp\ccBtjLu5.s:1991   .text.xQueueGenericReceive:0000000000000102 .LVL191
C:\Users\kasie\AppData\Local\Temp\ccBtjLu5.s:1994   .text.xQueueGenericReceive:000000000000010a .LVL192
C:\Users\kasie\AppData\Local\Temp\ccBtjLu5.s:2001   .text.xQueueGenericReceive:0000000000000116 .LVL193
C:\Users\kasie\AppData\Local\Temp\ccBtjLu5.s:2005   .text.xQueueGenericReceive:0000000000000120 .LVL194
C:\Users\kasie\AppData\Local\Temp\ccBtjLu5.s:2009   .text.xQueueGenericReceive:0000000000000128 .LVL195
C:\Users\kasie\AppData\Local\Temp\ccBtjLu5.s:2040   .text.xQueueGenericReceive:0000000000000146 .LVL198
C:\Users\kasie\AppData\Local\Temp\ccBtjLu5.s:2044   .text.xQueueGenericReceive:000000000000014e .LVL199
C:\Users\kasie\AppData\Local\Temp\ccBtjLu5.s:2055   .text.xQueueGenericReceive:000000000000015a .LVL202
C:\Users\kasie\AppData\Local\Temp\ccBtjLu5.s:2148   .text.xQueueGenericReceive:00000000000001b6 .LVL216
C:\Users\kasie\AppData\Local\Temp\ccBtjLu5.s:2152   .text.xQueueGenericReceive:00000000000001be .LVL217
C:\Users\kasie\AppData\Local\Temp\ccBtjLu5.s:11742  .debug_str:000000000000076a .LASF213
C:\Users\kasie\AppData\Local\Temp\ccBtjLu5.s:1530   .text.xQueueGiveFromISR:0000000000000000 .LFB11
C:\Users\kasie\AppData\Local\Temp\ccBtjLu5.s:1742   .text.xQueueGiveFromISR:000000000000009e .LFE11
C:\Users\kasie\AppData\Local\Temp\ccBtjLu5.s:10272  .debug_loc:0000000000000c8a .LLST72
C:\Users\kasie\AppData\Local\Temp\ccBtjLu5.s:10295  .debug_loc:0000000000000cc2 .LLST73
C:\Users\kasie\AppData\Local\Temp\ccBtjLu5.s:10317  .debug_loc:0000000000000cf9 .LLST74
C:\Users\kasie\AppData\Local\Temp\ccBtjLu5.s:10339  .debug_loc:0000000000000d30 .LLST75
C:\Users\kasie\AppData\Local\Temp\ccBtjLu5.s:10350  .debug_loc:0000000000000d4e .LLST76
C:\Users\kasie\AppData\Local\Temp\ccBtjLu5.s:10373  .debug_loc:0000000000000d8d .LLST77
GAS LISTING C:\Users\kasie\AppData\Local\Temp\ccBtjLu5.s 			page 149


C:\Users\kasie\AppData\Local\Temp\ccBtjLu5.s:1540   .text.xQueueGiveFromISR:0000000000000002 .LBB93
C:\Users\kasie\AppData\Local\Temp\ccBtjLu5.s:1552   .text.xQueueGiveFromISR:0000000000000006 .LBE93
C:\Users\kasie\AppData\Local\Temp\ccBtjLu5.s:1563   .text.xQueueGiveFromISR:000000000000000c .LBB94
C:\Users\kasie\AppData\Local\Temp\ccBtjLu5.s:1575   .text.xQueueGiveFromISR:0000000000000010 .LBE94
C:\Users\kasie\AppData\Local\Temp\ccBtjLu5.s:1588   .text.xQueueGiveFromISR:000000000000001a .LBB95
C:\Users\kasie\AppData\Local\Temp\ccBtjLu5.s:1600   .text.xQueueGiveFromISR:000000000000001e .LBE95
C:\Users\kasie\AppData\Local\Temp\ccBtjLu5.s:10395  .debug_loc:0000000000000dc4 .LLST78
C:\Users\kasie\AppData\Local\Temp\ccBtjLu5.s:10435  .debug_loc:0000000000000e14 .LLST79
C:\Users\kasie\AppData\Local\Temp\ccBtjLu5.s:1715   .text.xQueueGiveFromISR:0000000000000084 .LVL164
C:\Users\kasie\AppData\Local\Temp\ccBtjLu5.s:1628   .text.xQueueGiveFromISR:0000000000000038 .LVL149
C:\Users\kasie\AppData\Local\Temp\ccBtjLu5.s:1681   .text.xQueueGiveFromISR:0000000000000068 .LVL157
C:\Users\kasie\AppData\Local\Temp\ccBtjLu5.s:11576  .debug_str:00000000000002f1 .LASF214
C:\Users\kasie\AppData\Local\Temp\ccBtjLu5.s:1299   .text.xQueueGenericSendFromISR:0000000000000000 .LFB10
C:\Users\kasie\AppData\Local\Temp\ccBtjLu5.s:1523   .text.xQueueGenericSendFromISR:00000000000000c4 .LFE10
C:\Users\kasie\AppData\Local\Temp\ccBtjLu5.s:10446  .debug_loc:0000000000000e32 .LLST63
C:\Users\kasie\AppData\Local\Temp\ccBtjLu5.s:10469  .debug_loc:0000000000000e6a .LLST64
C:\Users\kasie\AppData\Local\Temp\ccBtjLu5.s:10491  .debug_loc:0000000000000ea1 .LLST65
C:\Users\kasie\AppData\Local\Temp\ccBtjLu5.s:10513  .debug_loc:0000000000000ed8 .LLST66
C:\Users\kasie\AppData\Local\Temp\ccBtjLu5.s:11736  .debug_str:0000000000000742 .LASF215
C:\Users\kasie\AppData\Local\Temp\ccBtjLu5.s:10535  .debug_loc:0000000000000f0f .LLST67
C:\Users\kasie\AppData\Local\Temp\ccBtjLu5.s:10557  .debug_loc:0000000000000f46 .LLST68
C:\Users\kasie\AppData\Local\Temp\ccBtjLu5.s:10568  .debug_loc:0000000000000f64 .LLST69
C:\Users\kasie\AppData\Local\Temp\ccBtjLu5.s:10583  .debug_loc:0000000000000f8d .LLST70
C:\Users\kasie\AppData\Local\Temp\ccBtjLu5.s:1309   .text.xQueueGenericSendFromISR:0000000000000002 .LBB88
C:\Users\kasie\AppData\Local\Temp\ccBtjLu5.s:1321   .text.xQueueGenericSendFromISR:0000000000000006 .LBE88
C:\Users\kasie\AppData\Local\Temp\ccBtjLu5.s:1333   .text.xQueueGenericSendFromISR:000000000000000e .LBB89
C:\Users\kasie\AppData\Local\Temp\ccBtjLu5.s:1345   .text.xQueueGenericSendFromISR:0000000000000012 .LBE89
C:\Users\kasie\AppData\Local\Temp\ccBtjLu5.s:1360   .text.xQueueGenericSendFromISR:0000000000000022 .LBB90
C:\Users\kasie\AppData\Local\Temp\ccBtjLu5.s:1372   .text.xQueueGenericSendFromISR:0000000000000026 .LBE90
C:\Users\kasie\AppData\Local\Temp\ccBtjLu5.s:10605  .debug_loc:0000000000000fc4 .LLST71
C:\Users\kasie\AppData\Local\Temp\ccBtjLu5.s:1437   .text.xQueueGenericSendFromISR:0000000000000070 .LVL131
C:\Users\kasie\AppData\Local\Temp\ccBtjLu5.s:1499   .text.xQueueGenericSendFromISR:00000000000000aa .LVL143
C:\Users\kasie\AppData\Local\Temp\ccBtjLu5.s:1406   .text.xQueueGenericSendFromISR:0000000000000048 .LVL128
C:\Users\kasie\AppData\Local\Temp\ccBtjLu5.s:1461   .text.xQueueGenericSendFromISR:000000000000008a .LVL135
C:\Users\kasie\AppData\Local\Temp\ccBtjLu5.s:11664  .debug_str:0000000000000566 .LASF216
C:\Users\kasie\AppData\Local\Temp\ccBtjLu5.s:763    .text.xQueueGenericSend:0000000000000000 .LFB9
C:\Users\kasie\AppData\Local\Temp\ccBtjLu5.s:1141   .text.xQueueGenericSend:000000000000019a .LFE9
C:\Users\kasie\AppData\Local\Temp\ccBtjLu5.s:10616  .debug_loc:0000000000000fe2 .LLST35
C:\Users\kasie\AppData\Local\Temp\ccBtjLu5.s:10639  .debug_loc:000000000000101c .LLST36
C:\Users\kasie\AppData\Local\Temp\ccBtjLu5.s:10667  .debug_loc:0000000000001060 .LLST37
C:\Users\kasie\AppData\Local\Temp\ccBtjLu5.s:10689  .debug_loc:0000000000001097 .LLST38
C:\Users\kasie\AppData\Local\Temp\ccBtjLu5.s:10696  .debug_loc:00000000000010aa .LLST39
C:\Users\kasie\AppData\Local\Temp\ccBtjLu5.s:10718  .debug_loc:00000000000010e1 .LLST40
C:\Users\kasie\AppData\Local\Temp\ccBtjLu5.s:11728  .debug_str:000000000000071b .LASF217
C:\Users\kasie\AppData\Local\Temp\ccBtjLu5.s:10755  .debug_loc:000000000000113c .LLST41
C:\Users\kasie\AppData\Local\Temp\ccBtjLu5.s:10762  .debug_loc:000000000000114f .LLST42
C:\Users\kasie\AppData\Local\Temp\ccBtjLu5.s:794    .text.xQueueGenericSend:0000000000000014 .LBB49
C:\Users\kasie\AppData\Local\Temp\ccBtjLu5.s:806    .text.xQueueGenericSend:0000000000000018 .LBE49
C:\Users\kasie\AppData\Local\Temp\ccBtjLu5.s:818    .text.xQueueGenericSend:0000000000000020 .LBB50
C:\Users\kasie\AppData\Local\Temp\ccBtjLu5.s:830    .text.xQueueGenericSend:0000000000000024 .LBE50
C:\Users\kasie\AppData\Local\Temp\ccBtjLu5.s:845    .text.xQueueGenericSend:0000000000000034 .LBB51
C:\Users\kasie\AppData\Local\Temp\ccBtjLu5.s:857    .text.xQueueGenericSend:0000000000000038 .LBE51
C:\Users\kasie\AppData\Local\Temp\ccBtjLu5.s:875    .text.xQueueGenericSend:000000000000004e .LBB52
C:\Users\kasie\AppData\Local\Temp\ccBtjLu5.s:887    .text.xQueueGenericSend:0000000000000052 .LBE52
C:\Users\kasie\AppData\Local\Temp\ccBtjLu5.s:1048   .text.xQueueGenericSend:000000000000013c .LBB56
C:\Users\kasie\AppData\Local\Temp\ccBtjLu5.s:1058   .text.xQueueGenericSend:0000000000000144 .LBE56
C:\Users\kasie\AppData\Local\Temp\ccBtjLu5.s:1118   .text.xQueueGenericSend:000000000000017c .LBB58
GAS LISTING C:\Users\kasie\AppData\Local\Temp\ccBtjLu5.s 			page 150


C:\Users\kasie\AppData\Local\Temp\ccBtjLu5.s:1130   .text.xQueueGenericSend:0000000000000186 .LBE58
C:\Users\kasie\AppData\Local\Temp\ccBtjLu5.s:969    .text.xQueueGenericSend:00000000000000ca .LBB53
C:\Users\kasie\AppData\Local\Temp\ccBtjLu5.s:10790  .debug_loc:0000000000001193 .LLST43
C:\Users\kasie\AppData\Local\Temp\ccBtjLu5.s:10801  .debug_loc:00000000000011b1 .LLST44
C:\Users\kasie\AppData\Local\Temp\ccBtjLu5.s:974    .text.xQueueGenericSend:00000000000000d2 .LVL91
C:\Users\kasie\AppData\Local\Temp\ccBtjLu5.s:984    .text.xQueueGenericSend:00000000000000e2 .LVL93
C:\Users\kasie\AppData\Local\Temp\ccBtjLu5.s:1103   .text.xQueueGenericSend:0000000000000168 .LVL110
C:\Users\kasie\AppData\Local\Temp\ccBtjLu5.s:869    .text.xQueueGenericSend:0000000000000048 .LVL79
C:\Users\kasie\AppData\Local\Temp\ccBtjLu5.s:910    .text.xQueueGenericSend:000000000000006c .LVL82
C:\Users\kasie\AppData\Local\Temp\ccBtjLu5.s:927    .text.xQueueGenericSend:000000000000007c .LVL84
C:\Users\kasie\AppData\Local\Temp\ccBtjLu5.s:933    .text.xQueueGenericSend:0000000000000084 .LVL85
C:\Users\kasie\AppData\Local\Temp\ccBtjLu5.s:936    .text.xQueueGenericSend:000000000000008c .LVL86
C:\Users\kasie\AppData\Local\Temp\ccBtjLu5.s:939    .text.xQueueGenericSend:0000000000000094 .LVL87
C:\Users\kasie\AppData\Local\Temp\ccBtjLu5.s:958    .text.xQueueGenericSend:00000000000000bc .LVL88
C:\Users\kasie\AppData\Local\Temp\ccBtjLu5.s:964    .text.xQueueGenericSend:00000000000000c8 .LVL89
C:\Users\kasie\AppData\Local\Temp\ccBtjLu5.s:993    .text.xQueueGenericSend:00000000000000ee .LVL94
C:\Users\kasie\AppData\Local\Temp\ccBtjLu5.s:997    .text.xQueueGenericSend:00000000000000f8 .LVL95
C:\Users\kasie\AppData\Local\Temp\ccBtjLu5.s:1001   .text.xQueueGenericSend:0000000000000100 .LVL96
C:\Users\kasie\AppData\Local\Temp\ccBtjLu5.s:1014   .text.xQueueGenericSend:000000000000010e .LVL99
C:\Users\kasie\AppData\Local\Temp\ccBtjLu5.s:1032   .text.xQueueGenericSend:000000000000012a .LVL100
C:\Users\kasie\AppData\Local\Temp\ccBtjLu5.s:1042   .text.xQueueGenericSend:000000000000013a .LVL102
C:\Users\kasie\AppData\Local\Temp\ccBtjLu5.s:1064   .text.xQueueGenericSend:000000000000014c .LVL103
C:\Users\kasie\AppData\Local\Temp\ccBtjLu5.s:1110   .text.xQueueGenericSend:0000000000000172 .LVL111
C:\Users\kasie\AppData\Local\Temp\ccBtjLu5.s:1114   .text.xQueueGenericSend:000000000000017a .LVL112
C:\Users\kasie\AppData\Local\Temp\ccBtjLu5.s:1134   .text.xQueueGenericSend:0000000000000190 .LVL113
C:\Users\kasie\AppData\Local\Temp\ccBtjLu5.s:1138   .text.xQueueGenericSend:0000000000000198 .LVL114
C:\Users\kasie\AppData\Local\Temp\ccBtjLu5.s:11470  .debug_str:000000000000000e .LASF218
C:\Users\kasie\AppData\Local\Temp\ccBtjLu5.s:667    .text.xQueueCreateCountingSemaphore:0000000000000000 .LFB8
C:\Users\kasie\AppData\Local\Temp\ccBtjLu5.s:756    .text.xQueueCreateCountingSemaphore:0000000000000032 .LFE8
C:\Users\kasie\AppData\Local\Temp\ccBtjLu5.s:10814  .debug_loc:00000000000011d1 .LLST32
C:\Users\kasie\AppData\Local\Temp\ccBtjLu5.s:11970  .debug_str:0000000000000d18 .LASF219
C:\Users\kasie\AppData\Local\Temp\ccBtjLu5.s:10832  .debug_loc:00000000000011fd .LLST33
C:\Users\kasie\AppData\Local\Temp\ccBtjLu5.s:11656  .debug_str:0000000000000537 .LASF220
C:\Users\kasie\AppData\Local\Temp\ccBtjLu5.s:10846  .debug_loc:000000000000121e .LLST34
C:\Users\kasie\AppData\Local\Temp\ccBtjLu5.s:675    .text.xQueueCreateCountingSemaphore:0000000000000002 .LBB38
C:\Users\kasie\AppData\Local\Temp\ccBtjLu5.s:687    .text.xQueueCreateCountingSemaphore:0000000000000006 .LBE38
C:\Users\kasie\AppData\Local\Temp\ccBtjLu5.s:697    .text.xQueueCreateCountingSemaphore:000000000000000c .LBB39
C:\Users\kasie\AppData\Local\Temp\ccBtjLu5.s:709    .text.xQueueCreateCountingSemaphore:0000000000000010 .LBE39
C:\Users\kasie\AppData\Local\Temp\ccBtjLu5.s:734    .text.xQueueCreateCountingSemaphore:0000000000000026 .LVL73
C:\Users\kasie\AppData\Local\Temp\ccBtjLu5.s:11616  .debug_str:000000000000041c .LASF221
C:\Users\kasie\AppData\Local\Temp\ccBtjLu5.s:1148   .text.xQueueCreateMutex:0000000000000000 .LFB7
C:\Users\kasie\AppData\Local\Temp\ccBtjLu5.s:1292   .text.xQueueCreateMutex:000000000000005a .LFE7
C:\Users\kasie\AppData\Local\Temp\ccBtjLu5.s:10864  .debug_loc:000000000000124a .LLST45
C:\Users\kasie\AppData\Local\Temp\ccBtjLu5.s:10882  .debug_loc:0000000000001276 .LLST46
C:\Users\kasie\AppData\Local\Temp\ccBtjLu5.s:11966  .debug_str:0000000000000d06 .LASF222
C:\Users\kasie\AppData\Local\Temp\ccBtjLu5.s:10896  .debug_loc:0000000000001297 .LLST47
C:\Users\kasie\AppData\Local\Temp\ccBtjLu5.s:11756  .debug_str:00000000000007b6 .LASF223
C:\Users\kasie\AppData\Local\Temp\ccBtjLu5.s:11708  .debug_str:000000000000069a .LASF224
C:\Users\kasie\AppData\Local\Temp\ccBtjLu5.s:1163   .text.xQueueCreateMutex:0000000000000006 .LBB68
C:\Users\kasie\AppData\Local\Temp\ccBtjLu5.s:10903  .debug_loc:00000000000012aa .LLST48
C:\Users\kasie\AppData\Local\Temp\ccBtjLu5.s:10910  .debug_loc:00000000000012bd .LLST49
C:\Users\kasie\AppData\Local\Temp\ccBtjLu5.s:10918  .debug_loc:00000000000012d1 .LLST50
C:\Users\kasie\AppData\Local\Temp\ccBtjLu5.s:1169   .text.xQueueCreateMutex:0000000000000006 .LBB70
C:\Users\kasie\AppData\Local\Temp\ccBtjLu5.s:10926  .debug_loc:00000000000012e5 .LLST52
C:\Users\kasie\AppData\Local\Temp\ccBtjLu5.s:10934  .debug_loc:00000000000012f9 .LLST53
C:\Users\kasie\AppData\Local\Temp\ccBtjLu5.s:10942  .debug_loc:000000000000130d .LLST54
C:\Users\kasie\AppData\Local\Temp\ccBtjLu5.s:10949  .debug_loc:0000000000001320 .LLST56
GAS LISTING C:\Users\kasie\AppData\Local\Temp\ccBtjLu5.s 			page 151


C:\Users\kasie\AppData\Local\Temp\ccBtjLu5.s:1201   .text.xQueueCreateMutex:000000000000001a .LBB72
C:\Users\kasie\AppData\Local\Temp\ccBtjLu5.s:10958  .debug_loc:0000000000001336 .LLST57
C:\Users\kasie\AppData\Local\Temp\ccBtjLu5.s:10965  .debug_loc:0000000000001349 .LLST58
C:\Users\kasie\AppData\Local\Temp\ccBtjLu5.s:10972  .debug_loc:000000000000135c .LLST59
C:\Users\kasie\AppData\Local\Temp\ccBtjLu5.s:10981  .debug_loc:0000000000001372 .LLST60
C:\Users\kasie\AppData\Local\Temp\ccBtjLu5.s:10989  .debug_loc:0000000000001386 .LLST61
C:\Users\kasie\AppData\Local\Temp\ccBtjLu5.s:1221   .text.xQueueCreateMutex:000000000000002e .LVL121
C:\Users\kasie\AppData\Local\Temp\ccBtjLu5.s:1192   .text.xQueueCreateMutex:0000000000000016 .LVL118
C:\Users\kasie\AppData\Local\Temp\ccBtjLu5.s:1229   .text.xQueueCreateMutex:000000000000002e .LBB83
C:\Users\kasie\AppData\Local\Temp\ccBtjLu5.s:1273   .text.xQueueCreateMutex:000000000000004e .LVL123
C:\Users\kasie\AppData\Local\Temp\ccBtjLu5.s:11702  .debug_str:0000000000000675 .LASF225
C:\Users\kasie\AppData\Local\Temp\ccBtjLu5.s:11654  .debug_str:0000000000000521 .LASF226
C:\Users\kasie\AppData\Local\Temp\ccBtjLu5.s:11536  .debug_str:00000000000001f1 .LASF227
C:\Users\kasie\AppData\Local\Temp\ccBtjLu5.s:11566  .debug_str:00000000000002b4 .LASF228
C:\Users\kasie\AppData\Local\Temp\ccBtjLu5.s:11608  .debug_str:00000000000003dd .LASF230
C:\Users\kasie\AppData\Local\Temp\ccBtjLu5.s:11902  .debug_str:0000000000000b88 .LASF229
C:\Users\kasie\AppData\Local\Temp\ccBtjLu5.s:11624  .debug_str:000000000000045a .LASF231
C:\Users\kasie\AppData\Local\Temp\ccBtjLu5.s:11894  .debug_str:0000000000000b3a .LASF232
C:\Users\kasie\AppData\Local\Temp\ccBtjLu5.s:376    .text.xQueueGenericReset:0000000000000000 .LFB3
C:\Users\kasie\AppData\Local\Temp\ccBtjLu5.s:521    .text.xQueueGenericReset:000000000000008c .LFE3
C:\Users\kasie\AppData\Local\Temp\ccBtjLu5.s:10997  .debug_loc:000000000000139a .LLST12
C:\Users\kasie\AppData\Local\Temp\ccBtjLu5.s:11020  .debug_loc:00000000000013d2 .LLST13
C:\Users\kasie\AppData\Local\Temp\ccBtjLu5.s:11042  .debug_loc:0000000000001409 .LLST14
C:\Users\kasie\AppData\Local\Temp\ccBtjLu5.s:11064  .debug_loc:0000000000001440 .LLST15
C:\Users\kasie\AppData\Local\Temp\ccBtjLu5.s:384    .text.xQueueGenericReset:0000000000000002 .LBB17
C:\Users\kasie\AppData\Local\Temp\ccBtjLu5.s:396    .text.xQueueGenericReset:0000000000000006 .LBE17
C:\Users\kasie\AppData\Local\Temp\ccBtjLu5.s:416    .text.xQueueGenericReset:0000000000000014 .LBB18
C:\Users\kasie\AppData\Local\Temp\ccBtjLu5.s:11086  .debug_loc:0000000000001477 .LLST16
C:\Users\kasie\AppData\Local\Temp\ccBtjLu5.s:11097  .debug_loc:0000000000001495 .LLST17
C:\Users\kasie\AppData\Local\Temp\ccBtjLu5.s:469    .text.xQueueGenericReset:0000000000000056 .LBB20
C:\Users\kasie\AppData\Local\Temp\ccBtjLu5.s:479    .text.xQueueGenericReset:000000000000005e .LBE20
C:\Users\kasie\AppData\Local\Temp\ccBtjLu5.s:421    .text.xQueueGenericReset:000000000000001c .LVL48
C:\Users\kasie\AppData\Local\Temp\ccBtjLu5.s:465    .text.xQueueGenericReset:0000000000000054 .LVL49
C:\Users\kasie\AppData\Local\Temp\ccBtjLu5.s:484    .text.xQueueGenericReset:0000000000000066 .LVL50
C:\Users\kasie\AppData\Local\Temp\ccBtjLu5.s:512    .text.xQueueGenericReset:000000000000007e .LVL54
C:\Users\kasie\AppData\Local\Temp\ccBtjLu5.s:516    .text.xQueueGenericReset:000000000000008a .LVL55
C:\Users\kasie\AppData\Local\Temp\ccBtjLu5.s:528    .text.xQueueGenericCreate:0000000000000000 .LFB4
C:\Users\kasie\AppData\Local\Temp\ccBtjLu5.s:660    .text.xQueueGenericCreate:000000000000005e .LFE4
C:\Users\kasie\AppData\Local\Temp\ccBtjLu5.s:11108  .debug_loc:00000000000014b3 .LLST18
C:\Users\kasie\AppData\Local\Temp\ccBtjLu5.s:11126  .debug_loc:00000000000014df .LLST19
C:\Users\kasie\AppData\Local\Temp\ccBtjLu5.s:11144  .debug_loc:000000000000150b .LLST20
C:\Users\kasie\AppData\Local\Temp\ccBtjLu5.s:11162  .debug_loc:0000000000001537 .LLST21
C:\Users\kasie\AppData\Local\Temp\ccBtjLu5.s:538    .text.xQueueGenericCreate:0000000000000002 .LBB29
C:\Users\kasie\AppData\Local\Temp\ccBtjLu5.s:550    .text.xQueueGenericCreate:0000000000000006 .LBE29
C:\Users\kasie\AppData\Local\Temp\ccBtjLu5.s:564    .text.xQueueGenericCreate:000000000000000e .LBB30
C:\Users\kasie\AppData\Local\Temp\ccBtjLu5.s:11176  .debug_loc:0000000000001558 .LLST22
C:\Users\kasie\AppData\Local\Temp\ccBtjLu5.s:11183  .debug_loc:000000000000156b .LLST23
C:\Users\kasie\AppData\Local\Temp\ccBtjLu5.s:11194  .debug_loc:0000000000001589 .LLST24
C:\Users\kasie\AppData\Local\Temp\ccBtjLu5.s:11201  .debug_loc:000000000000159c .LLST25
C:\Users\kasie\AppData\Local\Temp\ccBtjLu5.s:11208  .debug_loc:00000000000015af .LLST26
C:\Users\kasie\AppData\Local\Temp\ccBtjLu5.s:600    .text.xQueueGenericCreate:000000000000002e .LBB32
C:\Users\kasie\AppData\Local\Temp\ccBtjLu5.s:11217  .debug_loc:00000000000015c5 .LLST27
C:\Users\kasie\AppData\Local\Temp\ccBtjLu5.s:11224  .debug_loc:00000000000015d8 .LLST28
C:\Users\kasie\AppData\Local\Temp\ccBtjLu5.s:11231  .debug_loc:00000000000015eb .LLST30
C:\Users\kasie\AppData\Local\Temp\ccBtjLu5.s:11238  .debug_loc:00000000000015fe .LLST31
C:\Users\kasie\AppData\Local\Temp\ccBtjLu5.s:628    .text.xQueueGenericCreate:000000000000004a .LVL65
C:\Users\kasie\AppData\Local\Temp\ccBtjLu5.s:591    .text.xQueueGenericCreate:000000000000002a .LVL61
GAS LISTING C:\Users\kasie\AppData\Local\Temp\ccBtjLu5.s 			page 152


C:\Users\kasie\AppData\Local\Temp\ccBtjLu5.s:11844  .debug_str:00000000000009bf .LASF233
C:\Users\kasie\AppData\Local\Temp\ccBtjLu5.s:11768  .debug_str:00000000000007fe .LASF234
C:\Users\kasie\AppData\Local\Temp\ccBtjLu5.s:11564  .debug_str:0000000000000294 .LASF235
C:\Users\kasie\AppData\Local\Temp\ccBtjLu5.s:11802  .debug_str:00000000000008b9 .LASF236
C:\Users\kasie\AppData\Local\Temp\ccBtjLu5.s:11696  .debug_str:000000000000064e .LASF237
C:\Users\kasie\AppData\Local\Temp\ccBtjLu5.s:11930  .debug_str:0000000000000c27 .LASF257
C:\Users\kasie\AppData\Local\Temp\ccBtjLu5.s:11534  .debug_str:00000000000001e0 .LASF258
C:\Users\kasie\AppData\Local\Temp\ccBtjLu5.s:11518  .debug_str:0000000000000101 .LASF238
C:\Users\kasie\AppData\Local\Temp\ccBtjLu5.s:11962  .debug_str:0000000000000ce7 .LASF239
C:\Users\kasie\AppData\Local\Temp\ccBtjLu5.s:11856  .debug_str:0000000000000a49 .LASF240
C:\Users\kasie\AppData\Local\Temp\ccBtjLu5.s:11836  .debug_str:0000000000000979 .LASF241
C:\Users\kasie\AppData\Local\Temp\ccBtjLu5.s:11684  .debug_str:00000000000005ed .LASF242
C:\Users\kasie\AppData\Local\Temp\ccBtjLu5.s:11650  .debug_str:00000000000004f9 .LASF243
C:\Users\kasie\AppData\Local\Temp\ccBtjLu5.s:11846  .debug_str:00000000000009d2 .LASF244
C:\Users\kasie\AppData\Local\Temp\ccBtjLu5.s:11662  .debug_str:0000000000000556 .LASF245
C:\Users\kasie\AppData\Local\Temp\ccBtjLu5.s:11694  .debug_str:0000000000000639 .LASF246
C:\Users\kasie\AppData\Local\Temp\ccBtjLu5.s:11826  .debug_str:0000000000000949 .LASF247
C:\Users\kasie\AppData\Local\Temp\ccBtjLu5.s:11714  .debug_str:00000000000006b8 .LASF248
C:\Users\kasie\AppData\Local\Temp\ccBtjLu5.s:11798  .debug_str:00000000000008a2 .LASF249
C:\Users\kasie\AppData\Local\Temp\ccBtjLu5.s:11582  .debug_str:0000000000000320 .LASF250
C:\Users\kasie\AppData\Local\Temp\ccBtjLu5.s:11814  .debug_str:000000000000090a .LASF251
C:\Users\kasie\AppData\Local\Temp\ccBtjLu5.s:3094   .text.vQueueWaitForMessageRestricted:0000000000000002 .LCFI38
C:\Users\kasie\AppData\Local\Temp\ccBtjLu5.s:3158   .text.vQueueWaitForMessageRestricted:0000000000000064 .LCFI39
C:\Users\kasie\AppData\Local\Temp\ccBtjLu5.s:3090   .text.vQueueWaitForMessageRestricted:0000000000000000 .LVL310
C:\Users\kasie\AppData\Local\Temp\ccBtjLu5.s:3154   .text.vQueueWaitForMessageRestricted:0000000000000060 .LVL317
C:\Users\kasie\AppData\Local\Temp\ccBtjLu5.s:3130   .text.vQueueWaitForMessageRestricted:000000000000003e .LVL313
C:\Users\kasie\AppData\Local\Temp\ccBtjLu5.s:3132   .text.vQueueWaitForMessageRestricted:0000000000000040 .LVL314
C:\Users\kasie\AppData\Local\Temp\ccBtjLu5.s:3100   .text.vQueueWaitForMessageRestricted:0000000000000008 .LVL311
C:\Users\kasie\AppData\Local\Temp\ccBtjLu5.s:2979   .text.vQueueUnregisterQueue:0000000000000000 .LVL300
C:\Users\kasie\AppData\Local\Temp\ccBtjLu5.s:2989   .text.vQueueUnregisterQueue:0000000000000010 .LVL301
C:\Users\kasie\AppData\Local\Temp\ccBtjLu5.s:2998   .text.vQueueUnregisterQueue:0000000000000018 .LVL302
C:\Users\kasie\AppData\Local\Temp\ccBtjLu5.s:3006   .text.vQueueUnregisterQueue:0000000000000024 .LVL303
C:\Users\kasie\AppData\Local\Temp\ccBtjLu5.s:2927   .text.pcQueueGetName:0000000000000000 .LVL293
C:\Users\kasie\AppData\Local\Temp\ccBtjLu5.s:2950   .text.pcQueueGetName:000000000000001c .LVL296
C:\Users\kasie\AppData\Local\Temp\ccBtjLu5.s:2953   .text.pcQueueGetName:000000000000001e .LVL297
C:\Users\kasie\AppData\Local\Temp\ccBtjLu5.s:2964   .text.pcQueueGetName:0000000000000028 .LVL299
C:\Users\kasie\AppData\Local\Temp\ccBtjLu5.s:2938   .text.pcQueueGetName:0000000000000010 .LVL294
C:\Users\kasie\AppData\Local\Temp\ccBtjLu5.s:2947   .text.pcQueueGetName:0000000000000018 .LVL295
C:\Users\kasie\AppData\Local\Temp\ccBtjLu5.s:2877   .text.vQueueAddToRegistry:0000000000000000 .LVL288
C:\Users\kasie\AppData\Local\Temp\ccBtjLu5.s:2887   .text.vQueueAddToRegistry:0000000000000010 .LVL289
C:\Users\kasie\AppData\Local\Temp\ccBtjLu5.s:2896   .text.vQueueAddToRegistry:000000000000001a .LVL290
C:\Users\kasie\AppData\Local\Temp\ccBtjLu5.s:2905   .text.vQueueAddToRegistry:0000000000000022 .LVL291
C:\Users\kasie\AppData\Local\Temp\ccBtjLu5.s:2829   .text.xQueueIsQueueFullFromISR:0000000000000000 .LVL283
C:\Users\kasie\AppData\Local\Temp\ccBtjLu5.s:2860   .text.xQueueIsQueueFullFromISR:000000000000000c .LVL286
C:\Users\kasie\AppData\Local\Temp\ccBtjLu5.s:2856   .text.xQueueIsQueueFullFromISR:000000000000000a .LVL285
C:\Users\kasie\AppData\Local\Temp\ccBtjLu5.s:2862   .text.xQueueIsQueueFullFromISR:000000000000000e .LVL287
C:\Users\kasie\AppData\Local\Temp\ccBtjLu5.s:2785   .text.xQueueIsQueueEmptyFromISR:0000000000000000 .LVL279
C:\Users\kasie\AppData\Local\Temp\ccBtjLu5.s:2812   .text.xQueueIsQueueEmptyFromISR:000000000000000a .LVL281
C:\Users\kasie\AppData\Local\Temp\ccBtjLu5.s:2816   .text.xQueueIsQueueEmptyFromISR:000000000000000e .LVL282
C:\Users\kasie\AppData\Local\Temp\ccBtjLu5.s:232    .text.prvUnlockQueue:0000000000000002 .LCFI3
C:\Users\kasie\AppData\Local\Temp\ccBtjLu5.s:308    .text.prvUnlockQueue:000000000000005a .LCFI4
C:\Users\kasie\AppData\Local\Temp\ccBtjLu5.s:314    .text.prvUnlockQueue:0000000000000062 .LCFI5
C:\Users\kasie\AppData\Local\Temp\ccBtjLu5.s:228    .text.prvUnlockQueue:0000000000000000 .LVL24
C:\Users\kasie\AppData\Local\Temp\ccBtjLu5.s:298    .text.prvUnlockQueue:0000000000000052 .LVL31
C:\Users\kasie\AppData\Local\Temp\ccBtjLu5.s:306    .text.prvUnlockQueue:0000000000000058 .LVL33
C:\Users\kasie\AppData\Local\Temp\ccBtjLu5.s:255    .text.prvUnlockQueue:0000000000000020 .LVL26
C:\Users\kasie\AppData\Local\Temp\ccBtjLu5.s:276    .text.prvUnlockQueue:000000000000003e .LVL29
GAS LISTING C:\Users\kasie\AppData\Local\Temp\ccBtjLu5.s 			page 153


C:\Users\kasie\AppData\Local\Temp\ccBtjLu5.s:335    .text.prvUnlockQueue:000000000000007c .LVL37
C:\Users\kasie\AppData\Local\Temp\ccBtjLu5.s:338    .text.prvUnlockQueue:0000000000000080 .LVL38
C:\Users\kasie\AppData\Local\Temp\ccBtjLu5.s:340    .text.prvUnlockQueue:0000000000000082 .LVL39
C:\Users\kasie\AppData\Local\Temp\ccBtjLu5.s:282    .text.prvUnlockQueue:0000000000000046 .LVL30
C:\Users\kasie\AppData\Local\Temp\ccBtjLu5.s:303    .text.prvUnlockQueue:0000000000000056 .LVL32
C:\Users\kasie\AppData\Local\Temp\ccBtjLu5.s:362    .text.prvUnlockQueue:000000000000009c .LVL42
C:\Users\kasie\AppData\Local\Temp\ccBtjLu5.s:365    .text.prvUnlockQueue:00000000000000a0 .LVL43
C:\Users\kasie\AppData\Local\Temp\ccBtjLu5.s:181    .text.prvCopyDataFromQueue:0000000000000000 .LVL20
C:\Users\kasie\AppData\Local\Temp\ccBtjLu5.s:189    .text.prvCopyDataFromQueue:0000000000000006 .LVL21
C:\Users\kasie\AppData\Local\Temp\ccBtjLu5.s:212    .text.prvCopyDataFromQueue:000000000000001a .LVL22
C:\Users\kasie\AppData\Local\Temp\ccBtjLu5.s:23     .text.prvCopyDataToQueue:0000000000000002 .LCFI0
C:\Users\kasie\AppData\Local\Temp\ccBtjLu5.s:91     .text.prvCopyDataToQueue:000000000000003e .LCFI1
C:\Users\kasie\AppData\Local\Temp\ccBtjLu5.s:96     .text.prvCopyDataToQueue:0000000000000040 .LCFI2
C:\Users\kasie\AppData\Local\Temp\ccBtjLu5.s:17     .text.prvCopyDataToQueue:0000000000000000 .LVL0
C:\Users\kasie\AppData\Local\Temp\ccBtjLu5.s:58     .text.prvCopyDataToQueue:000000000000001e .LVL4
C:\Users\kasie\AppData\Local\Temp\ccBtjLu5.s:82     .text.prvCopyDataToQueue:0000000000000036 .LVL9
C:\Users\kasie\AppData\Local\Temp\ccBtjLu5.s:94     .text.prvCopyDataToQueue:0000000000000040 .LVL12
C:\Users\kasie\AppData\Local\Temp\ccBtjLu5.s:123    .text.prvCopyDataToQueue:0000000000000060 .LVL14
C:\Users\kasie\AppData\Local\Temp\ccBtjLu5.s:30     .text.prvCopyDataToQueue:0000000000000008 .LVL1
C:\Users\kasie\AppData\Local\Temp\ccBtjLu5.s:52     .text.prvCopyDataToQueue:000000000000001a .LVL3
C:\Users\kasie\AppData\Local\Temp\ccBtjLu5.s:158    .text.prvCopyDataToQueue:000000000000008a .LVL16
C:\Users\kasie\AppData\Local\Temp\ccBtjLu5.s:165    .text.prvCopyDataToQueue:0000000000000092 .LVL18
C:\Users\kasie\AppData\Local\Temp\ccBtjLu5.s:169    .text.prvCopyDataToQueue:0000000000000094 .LVL19
C:\Users\kasie\AppData\Local\Temp\ccBtjLu5.s:62     .text.prvCopyDataToQueue:0000000000000028 .LVL6
C:\Users\kasie\AppData\Local\Temp\ccBtjLu5.s:89     .text.prvCopyDataToQueue:000000000000003c .LVL11
C:\Users\kasie\AppData\Local\Temp\ccBtjLu5.s:36     .text.prvCopyDataToQueue:000000000000000e .LVL2
C:\Users\kasie\AppData\Local\Temp\ccBtjLu5.s:72     .text.prvCopyDataToQueue:000000000000002e .LVL8
C:\Users\kasie\AppData\Local\Temp\ccBtjLu5.s:86     .text.prvCopyDataToQueue:000000000000003a .LVL10
C:\Users\kasie\AppData\Local\Temp\ccBtjLu5.s:2768   .text.ucQueueGetQueueType:0000000000000000 .LVL277
C:\Users\kasie\AppData\Local\Temp\ccBtjLu5.s:2772   .text.ucQueueGetQueueType:0000000000000004 .LVL278
C:\Users\kasie\AppData\Local\Temp\ccBtjLu5.s:2734   .text.uxQueueGetQueueNumber:0000000000000000 .LVL274
C:\Users\kasie\AppData\Local\Temp\ccBtjLu5.s:2738   .text.uxQueueGetQueueNumber:0000000000000002 .LVL275
C:\Users\kasie\AppData\Local\Temp\ccBtjLu5.s:3053   .text.vQueueDelete:000000000000000a .LCFI36
C:\Users\kasie\AppData\Local\Temp\ccBtjLu5.s:3074   .text.vQueueDelete:0000000000000020 .LCFI37
C:\Users\kasie\AppData\Local\Temp\ccBtjLu5.s:3028   .text.vQueueDelete:0000000000000000 .LVL305
C:\Users\kasie\AppData\Local\Temp\ccBtjLu5.s:3070   .text.vQueueDelete:000000000000001c .LVL308
C:\Users\kasie\AppData\Local\Temp\ccBtjLu5.s:2692   .text.uxQueueMessagesWaitingFromISR:0000000000000000 .LVL271
C:\Users\kasie\AppData\Local\Temp\ccBtjLu5.s:2719   .text.uxQueueMessagesWaitingFromISR:000000000000000a .LVL273
C:\Users\kasie\AppData\Local\Temp\ccBtjLu5.s:2646   .text.uxQueueSpacesAvailable:000000000000000a .LCFI34
C:\Users\kasie\AppData\Local\Temp\ccBtjLu5.s:2677   .text.uxQueueSpacesAvailable:0000000000000030 .LCFI35
C:\Users\kasie\AppData\Local\Temp\ccBtjLu5.s:2619   .text.uxQueueSpacesAvailable:0000000000000000 .LVL264
C:\Users\kasie\AppData\Local\Temp\ccBtjLu5.s:2674   .text.uxQueueSpacesAvailable:000000000000002c .LVL269
C:\Users\kasie\AppData\Local\Temp\ccBtjLu5.s:2664   .text.uxQueueSpacesAvailable:0000000000000020 .LVL267
C:\Users\kasie\AppData\Local\Temp\ccBtjLu5.s:2679   .text.uxQueueSpacesAvailable:0000000000000030 .LVL270
C:\Users\kasie\AppData\Local\Temp\ccBtjLu5.s:2576   .text.uxQueueMessagesWaiting:000000000000000a .LCFI32
C:\Users\kasie\AppData\Local\Temp\ccBtjLu5.s:2604   .text.uxQueueMessagesWaiting:000000000000002c .LCFI33
C:\Users\kasie\AppData\Local\Temp\ccBtjLu5.s:2551   .text.uxQueueMessagesWaiting:0000000000000000 .LVL257
C:\Users\kasie\AppData\Local\Temp\ccBtjLu5.s:2601   .text.uxQueueMessagesWaiting:0000000000000028 .LVL262
C:\Users\kasie\AppData\Local\Temp\ccBtjLu5.s:2591   .text.uxQueueMessagesWaiting:000000000000001c .LVL260
C:\Users\kasie\AppData\Local\Temp\ccBtjLu5.s:2606   .text.uxQueueMessagesWaiting:000000000000002c .LVL263
C:\Users\kasie\AppData\Local\Temp\ccBtjLu5.s:2467   .text.xQueuePeekFromISR:000000000000001e .LCFI30
C:\Users\kasie\AppData\Local\Temp\ccBtjLu5.s:2536   .text.xQueuePeekFromISR:0000000000000062 .LCFI31
C:\Users\kasie\AppData\Local\Temp\ccBtjLu5.s:2392   .text.xQueuePeekFromISR:0000000000000000 .LVL241
C:\Users\kasie\AppData\Local\Temp\ccBtjLu5.s:2527   .text.xQueuePeekFromISR:000000000000005a .LVL253
C:\Users\kasie\AppData\Local\Temp\ccBtjLu5.s:2538   .text.xQueuePeekFromISR:0000000000000062 .LVL256
C:\Users\kasie\AppData\Local\Temp\ccBtjLu5.s:2511   .text.xQueuePeekFromISR:000000000000004a .LVL250
C:\Users\kasie\AppData\Local\Temp\ccBtjLu5.s:2514   .text.xQueuePeekFromISR:000000000000004c .LVL251
GAS LISTING C:\Users\kasie\AppData\Local\Temp\ccBtjLu5.s 			page 154


C:\Users\kasie\AppData\Local\Temp\ccBtjLu5.s:2534   .text.xQueuePeekFromISR:0000000000000060 .LVL255
C:\Users\kasie\AppData\Local\Temp\ccBtjLu5.s:2490   .text.xQueuePeekFromISR:0000000000000036 .LVL246
C:\Users\kasie\AppData\Local\Temp\ccBtjLu5.s:2504   .text.xQueuePeekFromISR:0000000000000040 .LVL248
C:\Users\kasie\AppData\Local\Temp\ccBtjLu5.s:2531   .text.xQueuePeekFromISR:000000000000005e .LVL254
C:\Users\kasie\AppData\Local\Temp\ccBtjLu5.s:2501   .text.xQueuePeekFromISR:000000000000003e .LVL247
C:\Users\kasie\AppData\Local\Temp\ccBtjLu5.s:2236   .text.xQueueReceiveFromISR:0000000000000016 .LCFI27
C:\Users\kasie\AppData\Local\Temp\ccBtjLu5.s:2343   .text.xQueueReceiveFromISR:0000000000000084 .LCFI28
C:\Users\kasie\AppData\Local\Temp\ccBtjLu5.s:2349   .text.xQueueReceiveFromISR:0000000000000086 .LCFI29
C:\Users\kasie\AppData\Local\Temp\ccBtjLu5.s:2185   .text.xQueueReceiveFromISR:0000000000000000 .LVL221
C:\Users\kasie\AppData\Local\Temp\ccBtjLu5.s:2327   .text.xQueueReceiveFromISR:0000000000000076 .LVL233
C:\Users\kasie\AppData\Local\Temp\ccBtjLu5.s:2347   .text.xQueueReceiveFromISR:0000000000000086 .LVL238
C:\Users\kasie\AppData\Local\Temp\ccBtjLu5.s:2345   .text.xQueueReceiveFromISR:0000000000000084 .LVL237
C:\Users\kasie\AppData\Local\Temp\ccBtjLu5.s:2331   .text.xQueueReceiveFromISR:000000000000007a .LVL234
C:\Users\kasie\AppData\Local\Temp\ccBtjLu5.s:2311   .text.xQueueReceiveFromISR:0000000000000068 .LVL231
C:\Users\kasie\AppData\Local\Temp\ccBtjLu5.s:2334   .text.xQueueReceiveFromISR:000000000000007c .LVL235
C:\Users\kasie\AppData\Local\Temp\ccBtjLu5.s:2268   .text.xQueueReceiveFromISR:0000000000000038 .LVL225
C:\Users\kasie\AppData\Local\Temp\ccBtjLu5.s:2283   .text.xQueueReceiveFromISR:0000000000000046 .LVL226
C:\Users\kasie\AppData\Local\Temp\ccBtjLu5.s:2339   .text.xQueueReceiveFromISR:0000000000000080 .LVL236
C:\Users\kasie\AppData\Local\Temp\ccBtjLu5.s:2290   .text.xQueueReceiveFromISR:0000000000000054 .LVL228
C:\Users\kasie\AppData\Local\Temp\ccBtjLu5.s:2293   .text.xQueueReceiveFromISR:0000000000000058 .LVL229
C:\Users\kasie\AppData\Local\Temp\ccBtjLu5.s:2307   .text.xQueueReceiveFromISR:0000000000000066 .LVL230
C:\Users\kasie\AppData\Local\Temp\ccBtjLu5.s:2372   .text.xQueueReceiveFromISR:00000000000000a2 .LVL240
C:\Users\kasie\AppData\Local\Temp\ccBtjLu5.s:1760   .text.xQueueGenericReceive:0000000000000002 .LCFI24
C:\Users\kasie\AppData\Local\Temp\ccBtjLu5.s:2138   .text.xQueueGenericReceive:00000000000001aa .LCFI25
C:\Users\kasie\AppData\Local\Temp\ccBtjLu5.s:2143   .text.xQueueGenericReceive:00000000000001ac .LCFI26
C:\Users\kasie\AppData\Local\Temp\ccBtjLu5.s:1752   .text.xQueueGenericReceive:0000000000000000 .LVL168
C:\Users\kasie\AppData\Local\Temp\ccBtjLu5.s:2123   .text.xQueueGenericReceive:000000000000019e .LVL211
C:\Users\kasie\AppData\Local\Temp\ccBtjLu5.s:2136   .text.xQueueGenericReceive:00000000000001a8 .LVL214
C:\Users\kasie\AppData\Local\Temp\ccBtjLu5.s:2141   .text.xQueueGenericReceive:00000000000001ac .LVL215
C:\Users\kasie\AppData\Local\Temp\ccBtjLu5.s:2130   .text.xQueueGenericReceive:00000000000001a4 .LVL212
C:\Users\kasie\AppData\Local\Temp\ccBtjLu5.s:2133   .text.xQueueGenericReceive:00000000000001a6 .LVL213
C:\Users\kasie\AppData\Local\Temp\ccBtjLu5.s:1860   .text.xQueueGenericReceive:000000000000004a .LVL173
C:\Users\kasie\AppData\Local\Temp\ccBtjLu5.s:1901   .text.xQueueGenericReceive:0000000000000072 .LVL177
C:\Users\kasie\AppData\Local\Temp\ccBtjLu5.s:1911   .text.xQueueGenericReceive:000000000000007e .LVL179
C:\Users\kasie\AppData\Local\Temp\ccBtjLu5.s:2047   .text.xQueueGenericReceive:0000000000000150 .LVL200
C:\Users\kasie\AppData\Local\Temp\ccBtjLu5.s:2050   .text.xQueueGenericReceive:0000000000000152 .LVL201
C:\Users\kasie\AppData\Local\Temp\ccBtjLu5.s:2114   .text.xQueueGenericReceive:000000000000019a .LVL210
C:\Users\kasie\AppData\Local\Temp\ccBtjLu5.s:1895   .text.xQueueGenericReceive:000000000000006e .LVL176
C:\Users\kasie\AppData\Local\Temp\ccBtjLu5.s:2071   .text.xQueueGenericReceive:0000000000000168 .LVL204
C:\Users\kasie\AppData\Local\Temp\ccBtjLu5.s:1875   .text.xQueueGenericReceive:0000000000000058 .LVL174
C:\Users\kasie\AppData\Local\Temp\ccBtjLu5.s:2060   .text.xQueueGenericReceive:000000000000015c .LVL203
C:\Users\kasie\AppData\Local\Temp\ccBtjLu5.s:2084   .text.xQueueGenericReceive:0000000000000178 .LVL206
C:\Users\kasie\AppData\Local\Temp\ccBtjLu5.s:2105   .text.xQueueGenericReceive:0000000000000190 .LVL208
C:\Users\kasie\AppData\Local\Temp\ccBtjLu5.s:1961   .text.xQueueGenericReceive:00000000000000d8 .LVL186
C:\Users\kasie\AppData\Local\Temp\ccBtjLu5.s:2026   .text.xQueueGenericReceive:0000000000000134 .LVL196
C:\Users\kasie\AppData\Local\Temp\ccBtjLu5.s:1973   .text.xQueueGenericReceive:00000000000000e4 .LVL188
C:\Users\kasie\AppData\Local\Temp\ccBtjLu5.s:2166   .text.xQueueGenericReceive:00000000000001cc .LVL219
C:\Users\kasie\AppData\Local\Temp\ccBtjLu5.s:1608   .text.xQueueGiveFromISR:0000000000000022 .LCFI21
C:\Users\kasie\AppData\Local\Temp\ccBtjLu5.s:1701   .text.xQueueGiveFromISR:0000000000000076 .LCFI22
C:\Users\kasie\AppData\Local\Temp\ccBtjLu5.s:1706   .text.xQueueGiveFromISR:0000000000000078 .LCFI23
C:\Users\kasie\AppData\Local\Temp\ccBtjLu5.s:1533   .text.xQueueGiveFromISR:0000000000000000 .LVL145
C:\Users\kasie\AppData\Local\Temp\ccBtjLu5.s:1689   .text.xQueueGiveFromISR:000000000000006c .LVL158
C:\Users\kasie\AppData\Local\Temp\ccBtjLu5.s:1704   .text.xQueueGiveFromISR:0000000000000078 .LVL162
C:\Users\kasie\AppData\Local\Temp\ccBtjLu5.s:1693   .text.xQueueGiveFromISR:0000000000000070 .LVL159
C:\Users\kasie\AppData\Local\Temp\ccBtjLu5.s:1675   .text.xQueueGiveFromISR:000000000000005e .LVL156
C:\Users\kasie\AppData\Local\Temp\ccBtjLu5.s:1696   .text.xQueueGiveFromISR:0000000000000072 .LVL160
C:\Users\kasie\AppData\Local\Temp\ccBtjLu5.s:1637   .text.xQueueGiveFromISR:000000000000003e .LVL150
GAS LISTING C:\Users\kasie\AppData\Local\Temp\ccBtjLu5.s 			page 155


C:\Users\kasie\AppData\Local\Temp\ccBtjLu5.s:1670   .text.xQueueGiveFromISR:000000000000005c .LVL155
C:\Users\kasie\AppData\Local\Temp\ccBtjLu5.s:1699   .text.xQueueGiveFromISR:0000000000000074 .LVL161
C:\Users\kasie\AppData\Local\Temp\ccBtjLu5.s:1713   .text.xQueueGiveFromISR:000000000000007c .LVL163
C:\Users\kasie\AppData\Local\Temp\ccBtjLu5.s:1726   .text.xQueueGiveFromISR:0000000000000092 .LVL165
C:\Users\kasie\AppData\Local\Temp\ccBtjLu5.s:1651   .text.xQueueGiveFromISR:000000000000004a .LVL151
C:\Users\kasie\AppData\Local\Temp\ccBtjLu5.s:1663   .text.xQueueGiveFromISR:0000000000000054 .LVL153
C:\Users\kasie\AppData\Local\Temp\ccBtjLu5.s:1737   .text.xQueueGiveFromISR:000000000000009c .LVL167
C:\Users\kasie\AppData\Local\Temp\ccBtjLu5.s:1657   .text.xQueueGiveFromISR:0000000000000052 .LVL152
C:\Users\kasie\AppData\Local\Temp\ccBtjLu5.s:1668   .text.xQueueGiveFromISR:000000000000005a .LVL154
C:\Users\kasie\AppData\Local\Temp\ccBtjLu5.s:1731   .text.xQueueGiveFromISR:0000000000000094 .LVL166
C:\Users\kasie\AppData\Local\Temp\ccBtjLu5.s:1380   .text.xQueueGenericSendFromISR:000000000000002a .LCFI18
C:\Users\kasie\AppData\Local\Temp\ccBtjLu5.s:1486   .text.xQueueGenericSendFromISR:000000000000009c .LCFI19
C:\Users\kasie\AppData\Local\Temp\ccBtjLu5.s:1492   .text.xQueueGenericSendFromISR:000000000000009e .LCFI20
C:\Users\kasie\AppData\Local\Temp\ccBtjLu5.s:1302   .text.xQueueGenericSendFromISR:0000000000000000 .LVL124
C:\Users\kasie\AppData\Local\Temp\ccBtjLu5.s:1469   .text.xQueueGenericSendFromISR:000000000000008e .LVL136
C:\Users\kasie\AppData\Local\Temp\ccBtjLu5.s:1490   .text.xQueueGenericSendFromISR:000000000000009e .LVL142
C:\Users\kasie\AppData\Local\Temp\ccBtjLu5.s:1488   .text.xQueueGenericSendFromISR:000000000000009c .LVL141
C:\Users\kasie\AppData\Local\Temp\ccBtjLu5.s:1479   .text.xQueueGenericSendFromISR:0000000000000096 .LVL139
C:\Users\kasie\AppData\Local\Temp\ccBtjLu5.s:1473   .text.xQueueGenericSendFromISR:0000000000000092 .LVL137
C:\Users\kasie\AppData\Local\Temp\ccBtjLu5.s:1456   .text.xQueueGenericSendFromISR:0000000000000080 .LVL134
C:\Users\kasie\AppData\Local\Temp\ccBtjLu5.s:1476   .text.xQueueGenericSendFromISR:0000000000000094 .LVL138
C:\Users\kasie\AppData\Local\Temp\ccBtjLu5.s:1413   .text.xQueueGenericSendFromISR:000000000000004e .LVL129
C:\Users\kasie\AppData\Local\Temp\ccBtjLu5.s:1432   .text.xQueueGenericSendFromISR:0000000000000064 .LVL130
C:\Users\kasie\AppData\Local\Temp\ccBtjLu5.s:1482   .text.xQueueGenericSendFromISR:0000000000000098 .LVL140
C:\Users\kasie\AppData\Local\Temp\ccBtjLu5.s:1440   .text.xQueueGenericSendFromISR:0000000000000074 .LVL132
C:\Users\kasie\AppData\Local\Temp\ccBtjLu5.s:1451   .text.xQueueGenericSendFromISR:000000000000007e .LVL133
C:\Users\kasie\AppData\Local\Temp\ccBtjLu5.s:1514   .text.xQueueGenericSendFromISR:00000000000000ba .LVL144
C:\Users\kasie\AppData\Local\Temp\ccBtjLu5.s:773    .text.xQueueGenericSend:0000000000000002 .LCFI13
C:\Users\kasie\AppData\Local\Temp\ccBtjLu5.s:1091   .text.xQueueGenericSend:000000000000015e .LCFI14
C:\Users\kasie\AppData\Local\Temp\ccBtjLu5.s:1096   .text.xQueueGenericSend:0000000000000160 .LCFI15
C:\Users\kasie\AppData\Local\Temp\ccBtjLu5.s:766    .text.xQueueGenericSend:0000000000000000 .LVL75
C:\Users\kasie\AppData\Local\Temp\ccBtjLu5.s:1076   .text.xQueueGenericSend:0000000000000152 .LVL105
C:\Users\kasie\AppData\Local\Temp\ccBtjLu5.s:1089   .text.xQueueGenericSend:000000000000015c .LVL108
C:\Users\kasie\AppData\Local\Temp\ccBtjLu5.s:1094   .text.xQueueGenericSend:0000000000000160 .LVL109
C:\Users\kasie\AppData\Local\Temp\ccBtjLu5.s:1084   .text.xQueueGenericSend:0000000000000158 .LVL107
C:\Users\kasie\AppData\Local\Temp\ccBtjLu5.s:1079   .text.xQueueGenericSend:0000000000000154 .LVL106
C:\Users\kasie\AppData\Local\Temp\ccBtjLu5.s:902    .text.xQueueGenericSend:0000000000000060 .LVL81
C:\Users\kasie\AppData\Local\Temp\ccBtjLu5.s:919    .text.xQueueGenericSend:0000000000000070 .LVL83
C:\Users\kasie\AppData\Local\Temp\ccBtjLu5.s:1006   .text.xQueueGenericSend:0000000000000104 .LVL97
C:\Users\kasie\AppData\Local\Temp\ccBtjLu5.s:1009   .text.xQueueGenericSend:0000000000000106 .LVL98
C:\Users\kasie\AppData\Local\Temp\ccBtjLu5.s:1068   .text.xQueueGenericSend:000000000000014e .LVL104
C:\Users\kasie\AppData\Local\Temp\ccBtjLu5.s:1040   .text.xQueueGenericSend:0000000000000132 .LVL101
C:\Users\kasie\AppData\Local\Temp\ccBtjLu5.s:968    .text.xQueueGenericSend:00000000000000ca .LVL90
C:\Users\kasie\AppData\Local\Temp\ccBtjLu5.s:981    .text.xQueueGenericSend:00000000000000da .LVL92
C:\Users\kasie\AppData\Local\Temp\ccBtjLu5.s:717    .text.xQueueCreateCountingSemaphore:0000000000000014 .LCFI11
C:\Users\kasie\AppData\Local\Temp\ccBtjLu5.s:752    .text.xQueueCreateCountingSemaphore:0000000000000030 .LCFI12
C:\Users\kasie\AppData\Local\Temp\ccBtjLu5.s:670    .text.xQueueCreateCountingSemaphore:0000000000000000 .LVL69
C:\Users\kasie\AppData\Local\Temp\ccBtjLu5.s:728    .text.xQueueCreateCountingSemaphore:000000000000001c .LVL72
C:\Users\kasie\AppData\Local\Temp\ccBtjLu5.s:750    .text.xQueueCreateCountingSemaphore:000000000000002e .LVL74
C:\Users\kasie\AppData\Local\Temp\ccBtjLu5.s:1157   .text.xQueueCreateMutex:0000000000000002 .LCFI16
C:\Users\kasie\AppData\Local\Temp\ccBtjLu5.s:1288   .text.xQueueCreateMutex:0000000000000058 .LCFI17
C:\Users\kasie\AppData\Local\Temp\ccBtjLu5.s:1151   .text.xQueueCreateMutex:0000000000000000 .LVL115
C:\Users\kasie\AppData\Local\Temp\ccBtjLu5.s:1176   .text.xQueueCreateMutex:000000000000000a .LVL117
C:\Users\kasie\AppData\Local\Temp\ccBtjLu5.s:1247   .text.xQueueCreateMutex:0000000000000034 .LVL122
C:\Users\kasie\AppData\Local\Temp\ccBtjLu5.s:1162   .text.xQueueCreateMutex:0000000000000006 .LVL116
C:\Users\kasie\AppData\Local\Temp\ccBtjLu5.s:1194   .text.xQueueCreateMutex:0000000000000018 .LVL119
C:\Users\kasie\AppData\Local\Temp\ccBtjLu5.s:1199   .text.xQueueCreateMutex:000000000000001a .LVL120
GAS LISTING C:\Users\kasie\AppData\Local\Temp\ccBtjLu5.s 			page 156


C:\Users\kasie\AppData\Local\Temp\ccBtjLu5.s:404    .text.xQueueGenericReset:000000000000000a .LCFI6
C:\Users\kasie\AppData\Local\Temp\ccBtjLu5.s:500    .text.xQueueGenericReset:0000000000000070 .LCFI7
C:\Users\kasie\AppData\Local\Temp\ccBtjLu5.s:505    .text.xQueueGenericReset:0000000000000072 .LCFI8
C:\Users\kasie\AppData\Local\Temp\ccBtjLu5.s:379    .text.xQueueGenericReset:0000000000000000 .LVL44
C:\Users\kasie\AppData\Local\Temp\ccBtjLu5.s:494    .text.xQueueGenericReset:000000000000006a .LVL51
C:\Users\kasie\AppData\Local\Temp\ccBtjLu5.s:503    .text.xQueueGenericReset:0000000000000072 .LVL53
C:\Users\kasie\AppData\Local\Temp\ccBtjLu5.s:497    .text.xQueueGenericReset:000000000000006c .LVL52
C:\Users\kasie\AppData\Local\Temp\ccBtjLu5.s:415    .text.xQueueGenericReset:0000000000000014 .LVL47
C:\Users\kasie\AppData\Local\Temp\ccBtjLu5.s:411    .text.xQueueGenericReset:0000000000000010 .LVL46
C:\Users\kasie\AppData\Local\Temp\ccBtjLu5.s:558    .text.xQueueGenericCreate:000000000000000a .LCFI9
C:\Users\kasie\AppData\Local\Temp\ccBtjLu5.s:656    .text.xQueueGenericCreate:000000000000005c .LCFI10
C:\Users\kasie\AppData\Local\Temp\ccBtjLu5.s:531    .text.xQueueGenericCreate:0000000000000000 .LVL56
C:\Users\kasie\AppData\Local\Temp\ccBtjLu5.s:568    .text.xQueueGenericCreate:0000000000000012 .LVL59
C:\Users\kasie\AppData\Local\Temp\ccBtjLu5.s:652    .text.xQueueGenericCreate:0000000000000058 .LVL68
C:\Users\kasie\AppData\Local\Temp\ccBtjLu5.s:649    .text.xQueueGenericCreate:0000000000000056 .LVL67
C:\Users\kasie\AppData\Local\Temp\ccBtjLu5.s:581    .text.xQueueGenericCreate:000000000000001c .LVL60
C:\Users\kasie\AppData\Local\Temp\ccBtjLu5.s:636    .text.xQueueGenericCreate:000000000000004e .LVL66
C:\Users\kasie\AppData\Local\Temp\ccBtjLu5.s:563    .text.xQueueGenericCreate:000000000000000e .LVL58
C:\Users\kasie\AppData\Local\Temp\ccBtjLu5.s:593    .text.xQueueGenericCreate:000000000000002c .LVL62
C:\Users\kasie\AppData\Local\Temp\ccBtjLu5.s:598    .text.xQueueGenericCreate:000000000000002e .LVL63
C:\Users\kasie\AppData\Local\Temp\ccBtjLu5.s:3184   .debug_info:0000000000000000 .Ldebug_info0
C:\Users\kasie\AppData\Local\Temp\ccBtjLu5.s:246    .text.prvUnlockQueue:0000000000000014 .LBB8
C:\Users\kasie\AppData\Local\Temp\ccBtjLu5.s:265    .text.prvUnlockQueue:000000000000002a .LBE8
C:\Users\kasie\AppData\Local\Temp\ccBtjLu5.s:316    .text.prvUnlockQueue:0000000000000062 .LBB10
C:\Users\kasie\AppData\Local\Temp\ccBtjLu5.s:342    .text.prvUnlockQueue:0000000000000082 .LBE10
C:\Users\kasie\AppData\Local\Temp\ccBtjLu5.s:272    .text.prvUnlockQueue:000000000000003a .LBB9
C:\Users\kasie\AppData\Local\Temp\ccBtjLu5.s:292    .text.prvUnlockQueue:0000000000000050 .LBE9
C:\Users\kasie\AppData\Local\Temp\ccBtjLu5.s:343    .text.prvUnlockQueue:0000000000000082 .LBB11
C:\Users\kasie\AppData\Local\Temp\ccBtjLu5.s:367    .text.prvUnlockQueue:00000000000000a2 .LBE11
C:\Users\kasie\AppData\Local\Temp\ccBtjLu5.s:487    .text.xQueueGenericReset:0000000000000066 .LBE18
C:\Users\kasie\AppData\Local\Temp\ccBtjLu5.s:507    .text.xQueueGenericReset:0000000000000072 .LBB22
C:\Users\kasie\AppData\Local\Temp\ccBtjLu5.s:519    .text.xQueueGenericReset:000000000000008c .LBE22
C:\Users\kasie\AppData\Local\Temp\ccBtjLu5.s:570    .text.xQueueGenericCreate:0000000000000012 .LBE30
C:\Users\kasie\AppData\Local\Temp\ccBtjLu5.s:582    .text.xQueueGenericCreate:000000000000001c .LBB37
C:\Users\kasie\AppData\Local\Temp\ccBtjLu5.s:638    .text.xQueueGenericCreate:000000000000004e .LBE37
C:\Users\kasie\AppData\Local\Temp\ccBtjLu5.s:608    .text.xQueueGenericCreate:0000000000000032 .LBE32
C:\Users\kasie\AppData\Local\Temp\ccBtjLu5.s:612    .text.xQueueGenericCreate:0000000000000036 .LBB35
C:\Users\kasie\AppData\Local\Temp\ccBtjLu5.s:634    .text.xQueueGenericCreate:000000000000004e .LBE35
C:\Users\kasie\AppData\Local\Temp\ccBtjLu5.s:987    .text.xQueueGenericSend:00000000000000e2 .LBE53
C:\Users\kasie\AppData\Local\Temp\ccBtjLu5.s:1098   .text.xQueueGenericSend:0000000000000160 .LBB57
C:\Users\kasie\AppData\Local\Temp\ccBtjLu5.s:1106   .text.xQueueGenericSend:0000000000000168 .LBE57
C:\Users\kasie\AppData\Local\Temp\ccBtjLu5.s:1180   .text.xQueueCreateMutex:000000000000000a .LBE68
C:\Users\kasie\AppData\Local\Temp\ccBtjLu5.s:1186   .text.xQueueCreateMutex:000000000000000e .LBB82
C:\Users\kasie\AppData\Local\Temp\ccBtjLu5.s:1228   .text.xQueueCreateMutex:000000000000002e .LBE82
C:\Users\kasie\AppData\Local\Temp\ccBtjLu5.s:1235   .text.xQueueCreateMutex:0000000000000030 .LBB86
C:\Users\kasie\AppData\Local\Temp\ccBtjLu5.s:1252   .text.xQueueCreateMutex:0000000000000034 .LBE86
C:\Users\kasie\AppData\Local\Temp\ccBtjLu5.s:1224   .text.xQueueCreateMutex:000000000000002e .LBE72
C:\Users\kasie\AppData\Local\Temp\ccBtjLu5.s:1239   .text.xQueueCreateMutex:0000000000000030 .LBB75
C:\Users\kasie\AppData\Local\Temp\ccBtjLu5.s:1245   .text.xQueueCreateMutex:0000000000000034 .LBE75
C:\Users\kasie\AppData\Local\Temp\ccBtjLu5.s:1234   .text.xQueueCreateMutex:0000000000000030 .LBE83
C:\Users\kasie\AppData\Local\Temp\ccBtjLu5.s:1254   .text.xQueueCreateMutex:0000000000000034 .LBB87
C:\Users\kasie\AppData\Local\Temp\ccBtjLu5.s:1276   .text.xQueueCreateMutex:000000000000004e .LBE87
C:\Users\kasie\AppData\Local\Temp\ccBtjLu5.s:1425   .text.xQueueGenericSendFromISR:000000000000005c .LBB91
C:\Users\kasie\AppData\Local\Temp\ccBtjLu5.s:1457   .text.xQueueGenericSendFromISR:0000000000000080 .LBE91
C:\Users\kasie\AppData\Local\Temp\ccBtjLu5.s:1494   .text.xQueueGenericSendFromISR:000000000000009e .LBB92
C:\Users\kasie\AppData\Local\Temp\ccBtjLu5.s:1521   .text.xQueueGenericSendFromISR:00000000000000c4 .LBE92
C:\Users\kasie\AppData\Local\Temp\ccBtjLu5.s:1629   .text.xQueueGiveFromISR:0000000000000038 .LBB96
GAS LISTING C:\Users\kasie\AppData\Local\Temp\ccBtjLu5.s 			page 157


C:\Users\kasie\AppData\Local\Temp\ccBtjLu5.s:1634   .text.xQueueGiveFromISR:000000000000003c .LBE96
C:\Users\kasie\AppData\Local\Temp\ccBtjLu5.s:1638   .text.xQueueGiveFromISR:000000000000003e .LBB99
C:\Users\kasie\AppData\Local\Temp\ccBtjLu5.s:1677   .text.xQueueGiveFromISR:000000000000005e .LBE99
C:\Users\kasie\AppData\Local\Temp\ccBtjLu5.s:1708   .text.xQueueGiveFromISR:0000000000000078 .LBB100
C:\Users\kasie\AppData\Local\Temp\ccBtjLu5.s:1740   .text.xQueueGiveFromISR:000000000000009e .LBE100
C:\Users\kasie\AppData\Local\Temp\ccBtjLu5.s:1645   .text.xQueueGiveFromISR:0000000000000044 .LBB97
C:\Users\kasie\AppData\Local\Temp\ccBtjLu5.s:1676   .text.xQueueGiveFromISR:000000000000005e .LBE97
C:\Users\kasie\AppData\Local\Temp\ccBtjLu5.s:1709   .text.xQueueGiveFromISR:0000000000000078 .LBB98
C:\Users\kasie\AppData\Local\Temp\ccBtjLu5.s:1739   .text.xQueueGiveFromISR:000000000000009e .LBE98
C:\Users\kasie\AppData\Local\Temp\ccBtjLu5.s:1862   .text.xQueueGenericReceive:000000000000004a .LBB115
C:\Users\kasie\AppData\Local\Temp\ccBtjLu5.s:1923   .text.xQueueGenericReceive:000000000000008a .LBE115
C:\Users\kasie\AppData\Local\Temp\ccBtjLu5.s:2056   .text.xQueueGenericReceive:000000000000015a .LBB122
C:\Users\kasie\AppData\Local\Temp\ccBtjLu5.s:2116   .text.xQueueGenericReceive:000000000000019a .LBE122
C:\Users\kasie\AppData\Local\Temp\ccBtjLu5.s:1979   .text.xQueueGenericReceive:00000000000000ec .LBE117
C:\Users\kasie\AppData\Local\Temp\ccBtjLu5.s:2028   .text.xQueueGenericReceive:0000000000000134 .LBB121
C:\Users\kasie\AppData\Local\Temp\ccBtjLu5.s:2036   .text.xQueueGenericReceive:000000000000013c .LBE121
C:\Users\kasie\AppData\Local\Temp\ccBtjLu5.s:2262   .text.xQueueReceiveFromISR:0000000000000032 .LBB127
C:\Users\kasie\AppData\Local\Temp\ccBtjLu5.s:2265   .text.xQueueReceiveFromISR:0000000000000036 .LBE127
C:\Users\kasie\AppData\Local\Temp\ccBtjLu5.s:2269   .text.xQueueReceiveFromISR:0000000000000038 .LBB130
C:\Users\kasie\AppData\Local\Temp\ccBtjLu5.s:2315   .text.xQueueReceiveFromISR:0000000000000068 .LBE130
C:\Users\kasie\AppData\Local\Temp\ccBtjLu5.s:2351   .text.xQueueReceiveFromISR:0000000000000086 .LBB131
C:\Users\kasie\AppData\Local\Temp\ccBtjLu5.s:2380   .text.xQueueReceiveFromISR:00000000000000ac .LBE131
C:\Users\kasie\AppData\Local\Temp\ccBtjLu5.s:2277   .text.xQueueReceiveFromISR:0000000000000040 .LBB128
C:\Users\kasie\AppData\Local\Temp\ccBtjLu5.s:2313   .text.xQueueReceiveFromISR:0000000000000068 .LBE128
C:\Users\kasie\AppData\Local\Temp\ccBtjLu5.s:2352   .text.xQueueReceiveFromISR:0000000000000086 .LBB129
C:\Users\kasie\AppData\Local\Temp\ccBtjLu5.s:2379   .text.xQueueReceiveFromISR:00000000000000ac .LBE129

UNDEFINED SYMBOLS
xTaskPriorityDisinherit
memcpy
vPortEnterCritical
vPortExitCritical
xTaskRemoveFromEventList
vTaskMissedYield
vListInitialise
pvPortMalloc
xTaskGetSchedulerState
vTaskSetTimeOutState
vTaskSuspendAll
xTaskCheckForTimeOut
vTaskPlaceOnEventList
xTaskResumeAll
xPortSetInterruptMask
vPortClearInterruptMask
vTaskPriorityInherit
pvTaskIncrementMutexHeldCount
vPortFree
vTaskPlaceOnEventListRestricted
