GAS LISTING C:\Users\kasie\AppData\Local\Temp\cc3J3bHu.s 			page 1


   1              		.file	"timers.c"
   2              		.option nopic
   3              		.attribute arch, "rv32i2p0_m2p0_a2p0_c2p0"
   4              		.attribute unaligned_access, 0
   5              		.attribute stack_align, 16
   6              		.text
   7              	.Ltext0:
   8              		.cfi_sections	.debug_frame
   9              		.section	.text.prvCheckForValidListAndQueue,"ax",@progbits
  10              		.align	1
  12              	prvCheckForValidListAndQueue:
  13              	.LFB18:
  14              		.file 1 "lib/freertos/src/timers.c"
   1:lib/freertos/src/timers.c **** /*
   2:lib/freertos/src/timers.c ****     FreeRTOS V9.0.0 - Copyright (C) 2016 Real Time Engineers Ltd.
   3:lib/freertos/src/timers.c ****     All rights reserved
   4:lib/freertos/src/timers.c **** 
   5:lib/freertos/src/timers.c ****     VISIT http://www.FreeRTOS.org TO ENSURE YOU ARE USING THE LATEST VERSION.
   6:lib/freertos/src/timers.c **** 
   7:lib/freertos/src/timers.c ****     This file is part of the FreeRTOS distribution.
   8:lib/freertos/src/timers.c **** 
   9:lib/freertos/src/timers.c ****     FreeRTOS is free software; you can redistribute it and/or modify it under
  10:lib/freertos/src/timers.c ****     the terms of the GNU General Public License (version 2) as published by the
  11:lib/freertos/src/timers.c ****     Free Software Foundation >>>> AND MODIFIED BY <<<< the FreeRTOS exception.
  12:lib/freertos/src/timers.c **** 
  13:lib/freertos/src/timers.c ****     ***************************************************************************
  14:lib/freertos/src/timers.c ****     >>!   NOTE: The modification to the GPL is included to allow you to     !<<
  15:lib/freertos/src/timers.c ****     >>!   distribute a combined work that includes FreeRTOS without being   !<<
  16:lib/freertos/src/timers.c ****     >>!   obliged to provide the source code for proprietary components     !<<
  17:lib/freertos/src/timers.c ****     >>!   outside of the FreeRTOS kernel.                                   !<<
  18:lib/freertos/src/timers.c ****     ***************************************************************************
  19:lib/freertos/src/timers.c **** 
  20:lib/freertos/src/timers.c ****     FreeRTOS is distributed in the hope that it will be useful, but WITHOUT ANY
  21:lib/freertos/src/timers.c ****     WARRANTY; without even the implied warranty of MERCHANTABILITY or FITNESS
  22:lib/freertos/src/timers.c ****     FOR A PARTICULAR PURPOSE.  Full license text is available on the following
  23:lib/freertos/src/timers.c ****     link: http://www.freertos.org/a00114.html
  24:lib/freertos/src/timers.c **** 
  25:lib/freertos/src/timers.c ****     ***************************************************************************
  26:lib/freertos/src/timers.c ****      *                                                                       *
  27:lib/freertos/src/timers.c ****      *    FreeRTOS provides completely free yet professionally developed,    *
  28:lib/freertos/src/timers.c ****      *    robust, strictly quality controlled, supported, and cross          *
  29:lib/freertos/src/timers.c ****      *    platform software that is more than just the market leader, it     *
  30:lib/freertos/src/timers.c ****      *    is the industry's de facto standard.                               *
  31:lib/freertos/src/timers.c ****      *                                                                       *
  32:lib/freertos/src/timers.c ****      *    Help yourself get started quickly while simultaneously helping     *
  33:lib/freertos/src/timers.c ****      *    to support the FreeRTOS project by purchasing a FreeRTOS           *
  34:lib/freertos/src/timers.c ****      *    tutorial book, reference manual, or both:                          *
  35:lib/freertos/src/timers.c ****      *    http://www.FreeRTOS.org/Documentation                              *
  36:lib/freertos/src/timers.c ****      *                                                                       *
  37:lib/freertos/src/timers.c ****     ***************************************************************************
  38:lib/freertos/src/timers.c **** 
  39:lib/freertos/src/timers.c ****     http://www.FreeRTOS.org/FAQHelp.html - Having a problem?  Start by reading
  40:lib/freertos/src/timers.c ****     the FAQ page "My application does not run, what could be wrong?".  Have you
  41:lib/freertos/src/timers.c ****     defined configASSERT()?
  42:lib/freertos/src/timers.c **** 
  43:lib/freertos/src/timers.c ****     http://www.FreeRTOS.org/support - In return for receiving this top quality
  44:lib/freertos/src/timers.c ****     embedded software for free we request you assist our global community by
GAS LISTING C:\Users\kasie\AppData\Local\Temp\cc3J3bHu.s 			page 2


  45:lib/freertos/src/timers.c ****     participating in the support forum.
  46:lib/freertos/src/timers.c **** 
  47:lib/freertos/src/timers.c ****     http://www.FreeRTOS.org/training - Investing in training allows your team to
  48:lib/freertos/src/timers.c ****     be as productive as possible as early as possible.  Now you can receive
  49:lib/freertos/src/timers.c ****     FreeRTOS training directly from Richard Barry, CEO of Real Time Engineers
  50:lib/freertos/src/timers.c ****     Ltd, and the world's leading authority on the world's leading RTOS.
  51:lib/freertos/src/timers.c **** 
  52:lib/freertos/src/timers.c ****     http://www.FreeRTOS.org/plus - A selection of FreeRTOS ecosystem products,
  53:lib/freertos/src/timers.c ****     including FreeRTOS+Trace - an indispensable productivity tool, a DOS
  54:lib/freertos/src/timers.c ****     compatible FAT file system, and our tiny thread aware UDP/IP stack.
  55:lib/freertos/src/timers.c **** 
  56:lib/freertos/src/timers.c ****     http://www.FreeRTOS.org/labs - Where new FreeRTOS products go to incubate.
  57:lib/freertos/src/timers.c ****     Come and try FreeRTOS+TCP, our new open source TCP/IP stack for FreeRTOS.
  58:lib/freertos/src/timers.c **** 
  59:lib/freertos/src/timers.c ****     http://www.OpenRTOS.com - Real Time Engineers ltd. license FreeRTOS to High
  60:lib/freertos/src/timers.c ****     Integrity Systems ltd. to sell under the OpenRTOS brand.  Low cost OpenRTOS
  61:lib/freertos/src/timers.c ****     licenses offer ticketed support, indemnification and commercial middleware.
  62:lib/freertos/src/timers.c **** 
  63:lib/freertos/src/timers.c ****     http://www.SafeRTOS.com - High Integrity Systems also provide a safety
  64:lib/freertos/src/timers.c ****     engineered and independently SIL3 certified version for use in safety and
  65:lib/freertos/src/timers.c ****     mission critical applications that require provable dependability.
  66:lib/freertos/src/timers.c **** 
  67:lib/freertos/src/timers.c ****     1 tab == 4 spaces!
  68:lib/freertos/src/timers.c **** */
  69:lib/freertos/src/timers.c **** 
  70:lib/freertos/src/timers.c **** /* Standard includes. */
  71:lib/freertos/src/timers.c **** #include <stdlib.h>
  72:lib/freertos/src/timers.c **** 
  73:lib/freertos/src/timers.c **** /* Defining MPU_WRAPPERS_INCLUDED_FROM_API_FILE prevents task.h from redefining
  74:lib/freertos/src/timers.c **** all the API functions to use the MPU wrappers.  That should only be done when
  75:lib/freertos/src/timers.c **** task.h is included from an application file. */
  76:lib/freertos/src/timers.c **** #define MPU_WRAPPERS_INCLUDED_FROM_API_FILE
  77:lib/freertos/src/timers.c **** 
  78:lib/freertos/src/timers.c **** #include "FreeRTOS.h"
  79:lib/freertos/src/timers.c **** #include "task.h"
  80:lib/freertos/src/timers.c **** #include "queue.h"
  81:lib/freertos/src/timers.c **** #include "timers.h"
  82:lib/freertos/src/timers.c **** 
  83:lib/freertos/src/timers.c **** #if ( INCLUDE_xTimerPendFunctionCall == 1 ) && ( configUSE_TIMERS == 0 )
  84:lib/freertos/src/timers.c **** 	#error configUSE_TIMERS must be set to 1 to make the xTimerPendFunctionCall() function available.
  85:lib/freertos/src/timers.c **** #endif
  86:lib/freertos/src/timers.c **** 
  87:lib/freertos/src/timers.c **** /* Lint e961 and e750 are suppressed as a MISRA exception justified because the
  88:lib/freertos/src/timers.c **** MPU ports require MPU_WRAPPERS_INCLUDED_FROM_API_FILE to be defined for the
  89:lib/freertos/src/timers.c **** header files above, but not in this file, in order to generate the correct
  90:lib/freertos/src/timers.c **** privileged Vs unprivileged linkage and placement. */
  91:lib/freertos/src/timers.c **** #undef MPU_WRAPPERS_INCLUDED_FROM_API_FILE /*lint !e961 !e750. */
  92:lib/freertos/src/timers.c **** 
  93:lib/freertos/src/timers.c **** 
  94:lib/freertos/src/timers.c **** /* This entire source file will be skipped if the application is not configured
  95:lib/freertos/src/timers.c **** to include software timer functionality.  This #if is closed at the very bottom
  96:lib/freertos/src/timers.c **** of this file.  If you want to include software timer functionality then ensure
  97:lib/freertos/src/timers.c **** configUSE_TIMERS is set to 1 in FreeRTOSConfig.h. */
  98:lib/freertos/src/timers.c **** #if ( configUSE_TIMERS == 1 )
  99:lib/freertos/src/timers.c **** 
 100:lib/freertos/src/timers.c **** /* Misc definitions. */
 101:lib/freertos/src/timers.c **** #define tmrNO_DELAY		( TickType_t ) 0U
GAS LISTING C:\Users\kasie\AppData\Local\Temp\cc3J3bHu.s 			page 3


 102:lib/freertos/src/timers.c **** 
 103:lib/freertos/src/timers.c **** /* The definition of the timers themselves. */
 104:lib/freertos/src/timers.c **** typedef struct tmrTimerControl
 105:lib/freertos/src/timers.c **** {
 106:lib/freertos/src/timers.c **** 	const char				*pcTimerName;		/*<< Text name.  This is not used by the kernel, it is included simpl
 107:lib/freertos/src/timers.c **** 	ListItem_t				xTimerListItem;		/*<< Standard linked list item as used by all kernel features for e
 108:lib/freertos/src/timers.c **** 	TickType_t				xTimerPeriodInTicks;/*<< How quickly and often the timer expires. */
 109:lib/freertos/src/timers.c **** 	UBaseType_t				uxAutoReload;		/*<< Set to pdTRUE if the timer should be automatically restarted on
 110:lib/freertos/src/timers.c **** 	void 					*pvTimerID;			/*<< An ID to identify the timer.  This allows the timer to be identified 
 111:lib/freertos/src/timers.c **** 	TimerCallbackFunction_t	pxCallbackFunction;	/*<< The function that will be called when the timer e
 112:lib/freertos/src/timers.c **** 	#if( configUSE_TRACE_FACILITY == 1 )
 113:lib/freertos/src/timers.c **** 		UBaseType_t			uxTimerNumber;		/*<< An ID assigned by trace tools such as FreeRTOS+Trace */
 114:lib/freertos/src/timers.c **** 	#endif
 115:lib/freertos/src/timers.c **** 
 116:lib/freertos/src/timers.c **** 	#if( ( configSUPPORT_STATIC_ALLOCATION == 1 ) && ( configSUPPORT_DYNAMIC_ALLOCATION == 1 ) )
 117:lib/freertos/src/timers.c **** 		uint8_t 			ucStaticallyAllocated; /*<< Set to pdTRUE if the timer was created statically so no at
 118:lib/freertos/src/timers.c **** 	#endif
 119:lib/freertos/src/timers.c **** } xTIMER;
 120:lib/freertos/src/timers.c **** 
 121:lib/freertos/src/timers.c **** /* The old xTIMER name is maintained above then typedefed to the new Timer_t
 122:lib/freertos/src/timers.c **** name below to enable the use of older kernel aware debuggers. */
 123:lib/freertos/src/timers.c **** typedef xTIMER Timer_t;
 124:lib/freertos/src/timers.c **** 
 125:lib/freertos/src/timers.c **** /* The definition of messages that can be sent and received on the timer queue.
 126:lib/freertos/src/timers.c **** Two types of message can be queued - messages that manipulate a software timer,
 127:lib/freertos/src/timers.c **** and messages that request the execution of a non-timer related callback.  The
 128:lib/freertos/src/timers.c **** two message types are defined in two separate structures, xTimerParametersType
 129:lib/freertos/src/timers.c **** and xCallbackParametersType respectively. */
 130:lib/freertos/src/timers.c **** typedef struct tmrTimerParameters
 131:lib/freertos/src/timers.c **** {
 132:lib/freertos/src/timers.c **** 	TickType_t			xMessageValue;		/*<< An optional value used by a subset of commands, for example, whe
 133:lib/freertos/src/timers.c **** 	Timer_t *			pxTimer;			/*<< The timer to which the command will be applied. */
 134:lib/freertos/src/timers.c **** } TimerParameter_t;
 135:lib/freertos/src/timers.c **** 
 136:lib/freertos/src/timers.c **** 
 137:lib/freertos/src/timers.c **** typedef struct tmrCallbackParameters
 138:lib/freertos/src/timers.c **** {
 139:lib/freertos/src/timers.c **** 	PendedFunction_t	pxCallbackFunction;	/* << The callback function to execute. */
 140:lib/freertos/src/timers.c **** 	void *pvParameter1;						/* << The value that will be used as the callback functions first paramet
 141:lib/freertos/src/timers.c **** 	uint32_t ulParameter2;					/* << The value that will be used as the callback functions second para
 142:lib/freertos/src/timers.c **** } CallbackParameters_t;
 143:lib/freertos/src/timers.c **** 
 144:lib/freertos/src/timers.c **** /* The structure that contains the two message types, along with an identifier
 145:lib/freertos/src/timers.c **** that is used to determine which message type is valid. */
 146:lib/freertos/src/timers.c **** typedef struct tmrTimerQueueMessage
 147:lib/freertos/src/timers.c **** {
 148:lib/freertos/src/timers.c **** 	BaseType_t			xMessageID;			/*<< The command being sent to the timer service task. */
 149:lib/freertos/src/timers.c **** 	union
 150:lib/freertos/src/timers.c **** 	{
 151:lib/freertos/src/timers.c **** 		TimerParameter_t xTimerParameters;
 152:lib/freertos/src/timers.c **** 
 153:lib/freertos/src/timers.c **** 		/* Don't include xCallbackParameters if it is not going to be used as
 154:lib/freertos/src/timers.c **** 		it makes the structure (and therefore the timer queue) larger. */
 155:lib/freertos/src/timers.c **** 		#if ( INCLUDE_xTimerPendFunctionCall == 1 )
 156:lib/freertos/src/timers.c **** 			CallbackParameters_t xCallbackParameters;
 157:lib/freertos/src/timers.c **** 		#endif /* INCLUDE_xTimerPendFunctionCall */
 158:lib/freertos/src/timers.c **** 	} u;
GAS LISTING C:\Users\kasie\AppData\Local\Temp\cc3J3bHu.s 			page 4


 159:lib/freertos/src/timers.c **** } DaemonTaskMessage_t;
 160:lib/freertos/src/timers.c **** 
 161:lib/freertos/src/timers.c **** /*lint -e956 A manual analysis and inspection has been used to determine which
 162:lib/freertos/src/timers.c **** static variables must be declared volatile. */
 163:lib/freertos/src/timers.c **** 
 164:lib/freertos/src/timers.c **** /* The list in which active timers are stored.  Timers are referenced in expire
 165:lib/freertos/src/timers.c **** time order, with the nearest expiry time at the front of the list.  Only the
 166:lib/freertos/src/timers.c **** timer service task is allowed to access these lists. */
 167:lib/freertos/src/timers.c **** PRIVILEGED_DATA static List_t xActiveTimerList1;
 168:lib/freertos/src/timers.c **** PRIVILEGED_DATA static List_t xActiveTimerList2;
 169:lib/freertos/src/timers.c **** PRIVILEGED_DATA static List_t *pxCurrentTimerList;
 170:lib/freertos/src/timers.c **** PRIVILEGED_DATA static List_t *pxOverflowTimerList;
 171:lib/freertos/src/timers.c **** 
 172:lib/freertos/src/timers.c **** /* A queue that is used to send commands to the timer service task. */
 173:lib/freertos/src/timers.c **** PRIVILEGED_DATA static QueueHandle_t xTimerQueue = NULL;
 174:lib/freertos/src/timers.c **** PRIVILEGED_DATA static TaskHandle_t xTimerTaskHandle = NULL;
 175:lib/freertos/src/timers.c **** 
 176:lib/freertos/src/timers.c **** /*lint +e956 */
 177:lib/freertos/src/timers.c **** 
 178:lib/freertos/src/timers.c **** /*-----------------------------------------------------------*/
 179:lib/freertos/src/timers.c **** 
 180:lib/freertos/src/timers.c **** #if( configSUPPORT_STATIC_ALLOCATION == 1 )
 181:lib/freertos/src/timers.c **** 
 182:lib/freertos/src/timers.c **** 	/* If static allocation is supported then the application must provide the
 183:lib/freertos/src/timers.c **** 	following callback function - which enables the application to optionally
 184:lib/freertos/src/timers.c **** 	provide the memory that will be used by the timer task as the task's stack
 185:lib/freertos/src/timers.c **** 	and TCB. */
 186:lib/freertos/src/timers.c **** 	extern void vApplicationGetTimerTaskMemory( StaticTask_t **ppxTimerTaskTCBBuffer, StackType_t **pp
 187:lib/freertos/src/timers.c **** 
 188:lib/freertos/src/timers.c **** #endif
 189:lib/freertos/src/timers.c **** 
 190:lib/freertos/src/timers.c **** /*
 191:lib/freertos/src/timers.c ****  * Initialise the infrastructure used by the timer service task if it has not
 192:lib/freertos/src/timers.c ****  * been initialised already.
 193:lib/freertos/src/timers.c ****  */
 194:lib/freertos/src/timers.c **** static void prvCheckForValidListAndQueue( void ) PRIVILEGED_FUNCTION;
 195:lib/freertos/src/timers.c **** 
 196:lib/freertos/src/timers.c **** /*
 197:lib/freertos/src/timers.c ****  * The timer service task (daemon).  Timer functionality is controlled by this
 198:lib/freertos/src/timers.c ****  * task.  Other tasks communicate with the timer service task using the
 199:lib/freertos/src/timers.c ****  * xTimerQueue queue.
 200:lib/freertos/src/timers.c ****  */
 201:lib/freertos/src/timers.c **** static void prvTimerTask( void *pvParameters ) PRIVILEGED_FUNCTION;
 202:lib/freertos/src/timers.c **** 
 203:lib/freertos/src/timers.c **** /*
 204:lib/freertos/src/timers.c ****  * Called by the timer service task to interpret and process a command it
 205:lib/freertos/src/timers.c ****  * received on the timer queue.
 206:lib/freertos/src/timers.c ****  */
 207:lib/freertos/src/timers.c **** static void prvProcessReceivedCommands( void ) PRIVILEGED_FUNCTION;
 208:lib/freertos/src/timers.c **** 
 209:lib/freertos/src/timers.c **** /*
 210:lib/freertos/src/timers.c ****  * Insert the timer into either xActiveTimerList1, or xActiveTimerList2,
 211:lib/freertos/src/timers.c ****  * depending on if the expire time causes a timer counter overflow.
 212:lib/freertos/src/timers.c ****  */
 213:lib/freertos/src/timers.c **** static BaseType_t prvInsertTimerInActiveList( Timer_t * const pxTimer, const TickType_t xNextExpiry
 214:lib/freertos/src/timers.c **** 
 215:lib/freertos/src/timers.c **** /*
GAS LISTING C:\Users\kasie\AppData\Local\Temp\cc3J3bHu.s 			page 5


 216:lib/freertos/src/timers.c ****  * An active timer has reached its expire time.  Reload the timer if it is an
 217:lib/freertos/src/timers.c ****  * auto reload timer, then call its callback.
 218:lib/freertos/src/timers.c ****  */
 219:lib/freertos/src/timers.c **** static void prvProcessExpiredTimer( const TickType_t xNextExpireTime, const TickType_t xTimeNow ) P
 220:lib/freertos/src/timers.c **** 
 221:lib/freertos/src/timers.c **** /*
 222:lib/freertos/src/timers.c ****  * The tick count has overflowed.  Switch the timer lists after ensuring the
 223:lib/freertos/src/timers.c ****  * current timer list does not still reference some timers.
 224:lib/freertos/src/timers.c ****  */
 225:lib/freertos/src/timers.c **** static void prvSwitchTimerLists( void ) PRIVILEGED_FUNCTION;
 226:lib/freertos/src/timers.c **** 
 227:lib/freertos/src/timers.c **** /*
 228:lib/freertos/src/timers.c ****  * Obtain the current tick count, setting *pxTimerListsWereSwitched to pdTRUE
 229:lib/freertos/src/timers.c ****  * if a tick count overflow occurred since prvSampleTimeNow() was last called.
 230:lib/freertos/src/timers.c ****  */
 231:lib/freertos/src/timers.c **** static TickType_t prvSampleTimeNow( BaseType_t * const pxTimerListsWereSwitched ) PRIVILEGED_FUNCTI
 232:lib/freertos/src/timers.c **** 
 233:lib/freertos/src/timers.c **** /*
 234:lib/freertos/src/timers.c ****  * If the timer list contains any active timers then return the expire time of
 235:lib/freertos/src/timers.c ****  * the timer that will expire first and set *pxListWasEmpty to false.  If the
 236:lib/freertos/src/timers.c ****  * timer list does not contain any timers then return 0 and set *pxListWasEmpty
 237:lib/freertos/src/timers.c ****  * to pdTRUE.
 238:lib/freertos/src/timers.c ****  */
 239:lib/freertos/src/timers.c **** static TickType_t prvGetNextExpireTime( BaseType_t * const pxListWasEmpty ) PRIVILEGED_FUNCTION;
 240:lib/freertos/src/timers.c **** 
 241:lib/freertos/src/timers.c **** /*
 242:lib/freertos/src/timers.c ****  * If a timer has expired, process it.  Otherwise, block the timer service task
 243:lib/freertos/src/timers.c ****  * until either a timer does expire or a command is received.
 244:lib/freertos/src/timers.c ****  */
 245:lib/freertos/src/timers.c **** static void prvProcessTimerOrBlockTask( const TickType_t xNextExpireTime, BaseType_t xListWasEmpty 
 246:lib/freertos/src/timers.c **** 
 247:lib/freertos/src/timers.c **** /*
 248:lib/freertos/src/timers.c ****  * Called after a Timer_t structure has been allocated either statically or
 249:lib/freertos/src/timers.c ****  * dynamically to fill in the structure's members.
 250:lib/freertos/src/timers.c ****  */
 251:lib/freertos/src/timers.c **** static void prvInitialiseNewTimer(	const char * const pcTimerName,
 252:lib/freertos/src/timers.c **** 									const TickType_t xTimerPeriodInTicks,
 253:lib/freertos/src/timers.c **** 									const UBaseType_t uxAutoReload,
 254:lib/freertos/src/timers.c **** 									void * const pvTimerID,
 255:lib/freertos/src/timers.c **** 									TimerCallbackFunction_t pxCallbackFunction,
 256:lib/freertos/src/timers.c **** 									Timer_t *pxNewTimer ) PRIVILEGED_FUNCTION; /*lint !e971 Unqualified char types are allowed
 257:lib/freertos/src/timers.c **** /*-----------------------------------------------------------*/
 258:lib/freertos/src/timers.c **** 
 259:lib/freertos/src/timers.c **** BaseType_t xTimerCreateTimerTask( void )
 260:lib/freertos/src/timers.c **** {
 261:lib/freertos/src/timers.c **** BaseType_t xReturn = pdFAIL;
 262:lib/freertos/src/timers.c **** 
 263:lib/freertos/src/timers.c **** 	/* This function is called when the scheduler is started if
 264:lib/freertos/src/timers.c **** 	configUSE_TIMERS is set to 1.  Check that the infrastructure used by the
 265:lib/freertos/src/timers.c **** 	timer service task has been created/initialised.  If timers have already
 266:lib/freertos/src/timers.c **** 	been created then the initialisation will already have been performed. */
 267:lib/freertos/src/timers.c **** 	prvCheckForValidListAndQueue();
 268:lib/freertos/src/timers.c **** 
 269:lib/freertos/src/timers.c **** 	if( xTimerQueue != NULL )
 270:lib/freertos/src/timers.c **** 	{
 271:lib/freertos/src/timers.c **** 		#if( configSUPPORT_STATIC_ALLOCATION == 1 )
 272:lib/freertos/src/timers.c **** 		{
GAS LISTING C:\Users\kasie\AppData\Local\Temp\cc3J3bHu.s 			page 6


 273:lib/freertos/src/timers.c **** 			StaticTask_t *pxTimerTaskTCBBuffer = NULL;
 274:lib/freertos/src/timers.c **** 			StackType_t *pxTimerTaskStackBuffer = NULL;
 275:lib/freertos/src/timers.c **** 			uint32_t ulTimerTaskStackSize;
 276:lib/freertos/src/timers.c **** 
 277:lib/freertos/src/timers.c **** 			vApplicationGetTimerTaskMemory( &pxTimerTaskTCBBuffer, &pxTimerTaskStackBuffer, &ulTimerTaskStac
 278:lib/freertos/src/timers.c **** 			xTimerTaskHandle = xTaskCreateStatic(	prvTimerTask,
 279:lib/freertos/src/timers.c **** 													"Tmr Svc",
 280:lib/freertos/src/timers.c **** 													ulTimerTaskStackSize,
 281:lib/freertos/src/timers.c **** 													NULL,
 282:lib/freertos/src/timers.c **** 													( ( UBaseType_t ) configTIMER_TASK_PRIORITY ) | portPRIVILEGE_BIT,
 283:lib/freertos/src/timers.c **** 													pxTimerTaskStackBuffer,
 284:lib/freertos/src/timers.c **** 													pxTimerTaskTCBBuffer );
 285:lib/freertos/src/timers.c **** 
 286:lib/freertos/src/timers.c **** 			if( xTimerTaskHandle != NULL )
 287:lib/freertos/src/timers.c **** 			{
 288:lib/freertos/src/timers.c **** 				xReturn = pdPASS;
 289:lib/freertos/src/timers.c **** 			}
 290:lib/freertos/src/timers.c **** 		}
 291:lib/freertos/src/timers.c **** 		#else
 292:lib/freertos/src/timers.c **** 		{
 293:lib/freertos/src/timers.c **** 			xReturn = xTaskCreate(	prvTimerTask,
 294:lib/freertos/src/timers.c **** 									"Tmr Svc",
 295:lib/freertos/src/timers.c **** 									configTIMER_TASK_STACK_DEPTH,
 296:lib/freertos/src/timers.c **** 									NULL,
 297:lib/freertos/src/timers.c **** 									( ( UBaseType_t ) configTIMER_TASK_PRIORITY ) | portPRIVILEGE_BIT,
 298:lib/freertos/src/timers.c **** 									&xTimerTaskHandle );
 299:lib/freertos/src/timers.c **** 		}
 300:lib/freertos/src/timers.c **** 		#endif /* configSUPPORT_STATIC_ALLOCATION */
 301:lib/freertos/src/timers.c **** 	}
 302:lib/freertos/src/timers.c **** 	else
 303:lib/freertos/src/timers.c **** 	{
 304:lib/freertos/src/timers.c **** 		mtCOVERAGE_TEST_MARKER();
 305:lib/freertos/src/timers.c **** 	}
 306:lib/freertos/src/timers.c **** 
 307:lib/freertos/src/timers.c **** 	configASSERT( xReturn );
 308:lib/freertos/src/timers.c **** 	return xReturn;
 309:lib/freertos/src/timers.c **** }
 310:lib/freertos/src/timers.c **** /*-----------------------------------------------------------*/
 311:lib/freertos/src/timers.c **** 
 312:lib/freertos/src/timers.c **** #if( configSUPPORT_DYNAMIC_ALLOCATION == 1 )
 313:lib/freertos/src/timers.c **** 
 314:lib/freertos/src/timers.c **** 	TimerHandle_t xTimerCreate(	const char * const pcTimerName,
 315:lib/freertos/src/timers.c **** 								const TickType_t xTimerPeriodInTicks,
 316:lib/freertos/src/timers.c **** 								const UBaseType_t uxAutoReload,
 317:lib/freertos/src/timers.c **** 								void * const pvTimerID,
 318:lib/freertos/src/timers.c **** 								TimerCallbackFunction_t pxCallbackFunction ) /*lint !e971 Unqualified char types are allowe
 319:lib/freertos/src/timers.c **** 	{
 320:lib/freertos/src/timers.c **** 	Timer_t *pxNewTimer;
 321:lib/freertos/src/timers.c **** 
 322:lib/freertos/src/timers.c **** 		pxNewTimer = ( Timer_t * ) pvPortMalloc( sizeof( Timer_t ) );
 323:lib/freertos/src/timers.c **** 
 324:lib/freertos/src/timers.c **** 		if( pxNewTimer != NULL )
 325:lib/freertos/src/timers.c **** 		{
 326:lib/freertos/src/timers.c **** 			prvInitialiseNewTimer( pcTimerName, xTimerPeriodInTicks, uxAutoReload, pvTimerID, pxCallbackFunc
 327:lib/freertos/src/timers.c **** 
 328:lib/freertos/src/timers.c **** 			#if( configSUPPORT_STATIC_ALLOCATION == 1 )
 329:lib/freertos/src/timers.c **** 			{
GAS LISTING C:\Users\kasie\AppData\Local\Temp\cc3J3bHu.s 			page 7


 330:lib/freertos/src/timers.c **** 				/* Timers can be created statically or dynamically, so note this
 331:lib/freertos/src/timers.c **** 				timer was created dynamically in case the timer is later
 332:lib/freertos/src/timers.c **** 				deleted. */
 333:lib/freertos/src/timers.c **** 				pxNewTimer->ucStaticallyAllocated = pdFALSE;
 334:lib/freertos/src/timers.c **** 			}
 335:lib/freertos/src/timers.c **** 			#endif /* configSUPPORT_STATIC_ALLOCATION */
 336:lib/freertos/src/timers.c **** 		}
 337:lib/freertos/src/timers.c **** 
 338:lib/freertos/src/timers.c **** 		return pxNewTimer;
 339:lib/freertos/src/timers.c **** 	}
 340:lib/freertos/src/timers.c **** 
 341:lib/freertos/src/timers.c **** #endif /* configSUPPORT_STATIC_ALLOCATION */
 342:lib/freertos/src/timers.c **** /*-----------------------------------------------------------*/
 343:lib/freertos/src/timers.c **** 
 344:lib/freertos/src/timers.c **** #if( configSUPPORT_STATIC_ALLOCATION == 1 )
 345:lib/freertos/src/timers.c **** 
 346:lib/freertos/src/timers.c **** 	TimerHandle_t xTimerCreateStatic(	const char * const pcTimerName,
 347:lib/freertos/src/timers.c **** 										const TickType_t xTimerPeriodInTicks,
 348:lib/freertos/src/timers.c **** 										const UBaseType_t uxAutoReload,
 349:lib/freertos/src/timers.c **** 										void * const pvTimerID,
 350:lib/freertos/src/timers.c **** 										TimerCallbackFunction_t pxCallbackFunction,
 351:lib/freertos/src/timers.c **** 										StaticTimer_t *pxTimerBuffer ) /*lint !e971 Unqualified char types are allowed for string
 352:lib/freertos/src/timers.c **** 	{
 353:lib/freertos/src/timers.c **** 	Timer_t *pxNewTimer;
 354:lib/freertos/src/timers.c **** 
 355:lib/freertos/src/timers.c **** 		#if( configASSERT_DEFINED == 1 )
 356:lib/freertos/src/timers.c **** 		{
 357:lib/freertos/src/timers.c **** 			/* Sanity check that the size of the structure used to declare a
 358:lib/freertos/src/timers.c **** 			variable of type StaticTimer_t equals the size of the real timer
 359:lib/freertos/src/timers.c **** 			structures. */
 360:lib/freertos/src/timers.c **** 			volatile size_t xSize = sizeof( StaticTimer_t );
 361:lib/freertos/src/timers.c **** 			configASSERT( xSize == sizeof( Timer_t ) );
 362:lib/freertos/src/timers.c **** 		}
 363:lib/freertos/src/timers.c **** 		#endif /* configASSERT_DEFINED */
 364:lib/freertos/src/timers.c **** 
 365:lib/freertos/src/timers.c **** 		/* A pointer to a StaticTimer_t structure MUST be provided, use it. */
 366:lib/freertos/src/timers.c **** 		configASSERT( pxTimerBuffer );
 367:lib/freertos/src/timers.c **** 		pxNewTimer = ( Timer_t * ) pxTimerBuffer; /*lint !e740 Unusual cast is ok as the structures are d
 368:lib/freertos/src/timers.c **** 
 369:lib/freertos/src/timers.c **** 		if( pxNewTimer != NULL )
 370:lib/freertos/src/timers.c **** 		{
 371:lib/freertos/src/timers.c **** 			prvInitialiseNewTimer( pcTimerName, xTimerPeriodInTicks, uxAutoReload, pvTimerID, pxCallbackFunc
 372:lib/freertos/src/timers.c **** 
 373:lib/freertos/src/timers.c **** 			#if( configSUPPORT_DYNAMIC_ALLOCATION == 1 )
 374:lib/freertos/src/timers.c **** 			{
 375:lib/freertos/src/timers.c **** 				/* Timers can be created statically or dynamically so note this
 376:lib/freertos/src/timers.c **** 				timer was created statically in case it is later deleted. */
 377:lib/freertos/src/timers.c **** 				pxNewTimer->ucStaticallyAllocated = pdTRUE;
 378:lib/freertos/src/timers.c **** 			}
 379:lib/freertos/src/timers.c **** 			#endif /* configSUPPORT_DYNAMIC_ALLOCATION */
 380:lib/freertos/src/timers.c **** 		}
 381:lib/freertos/src/timers.c **** 
 382:lib/freertos/src/timers.c **** 		return pxNewTimer;
 383:lib/freertos/src/timers.c **** 	}
 384:lib/freertos/src/timers.c **** 
 385:lib/freertos/src/timers.c **** #endif /* configSUPPORT_STATIC_ALLOCATION */
 386:lib/freertos/src/timers.c **** /*-----------------------------------------------------------*/
GAS LISTING C:\Users\kasie\AppData\Local\Temp\cc3J3bHu.s 			page 8


 387:lib/freertos/src/timers.c **** 
 388:lib/freertos/src/timers.c **** static void prvInitialiseNewTimer(	const char * const pcTimerName,
 389:lib/freertos/src/timers.c **** 									const TickType_t xTimerPeriodInTicks,
 390:lib/freertos/src/timers.c **** 									const UBaseType_t uxAutoReload,
 391:lib/freertos/src/timers.c **** 									void * const pvTimerID,
 392:lib/freertos/src/timers.c **** 									TimerCallbackFunction_t pxCallbackFunction,
 393:lib/freertos/src/timers.c **** 									Timer_t *pxNewTimer ) /*lint !e971 Unqualified char types are allowed for strings and sing
 394:lib/freertos/src/timers.c **** {
 395:lib/freertos/src/timers.c **** 	/* 0 is not a valid value for xTimerPeriodInTicks. */
 396:lib/freertos/src/timers.c **** 	configASSERT( ( xTimerPeriodInTicks > 0 ) );
 397:lib/freertos/src/timers.c **** 
 398:lib/freertos/src/timers.c **** 	if( pxNewTimer != NULL )
 399:lib/freertos/src/timers.c **** 	{
 400:lib/freertos/src/timers.c **** 		/* Ensure the infrastructure used by the timer service task has been
 401:lib/freertos/src/timers.c **** 		created/initialised. */
 402:lib/freertos/src/timers.c **** 		prvCheckForValidListAndQueue();
 403:lib/freertos/src/timers.c **** 
 404:lib/freertos/src/timers.c **** 		/* Initialise the timer structure members using the function
 405:lib/freertos/src/timers.c **** 		parameters. */
 406:lib/freertos/src/timers.c **** 		pxNewTimer->pcTimerName = pcTimerName;
 407:lib/freertos/src/timers.c **** 		pxNewTimer->xTimerPeriodInTicks = xTimerPeriodInTicks;
 408:lib/freertos/src/timers.c **** 		pxNewTimer->uxAutoReload = uxAutoReload;
 409:lib/freertos/src/timers.c **** 		pxNewTimer->pvTimerID = pvTimerID;
 410:lib/freertos/src/timers.c **** 		pxNewTimer->pxCallbackFunction = pxCallbackFunction;
 411:lib/freertos/src/timers.c **** 		vListInitialiseItem( &( pxNewTimer->xTimerListItem ) );
 412:lib/freertos/src/timers.c **** 		traceTIMER_CREATE( pxNewTimer );
 413:lib/freertos/src/timers.c **** 	}
 414:lib/freertos/src/timers.c **** }
 415:lib/freertos/src/timers.c **** /*-----------------------------------------------------------*/
 416:lib/freertos/src/timers.c **** 
 417:lib/freertos/src/timers.c **** BaseType_t xTimerGenericCommand( TimerHandle_t xTimer, const BaseType_t xCommandID, const TickType_
 418:lib/freertos/src/timers.c **** {
 419:lib/freertos/src/timers.c **** BaseType_t xReturn = pdFAIL;
 420:lib/freertos/src/timers.c **** DaemonTaskMessage_t xMessage;
 421:lib/freertos/src/timers.c **** 
 422:lib/freertos/src/timers.c **** 	configASSERT( xTimer );
 423:lib/freertos/src/timers.c **** 
 424:lib/freertos/src/timers.c **** 	/* Send a message to the timer service task to perform a particular action
 425:lib/freertos/src/timers.c **** 	on a particular timer definition. */
 426:lib/freertos/src/timers.c **** 	if( xTimerQueue != NULL )
 427:lib/freertos/src/timers.c **** 	{
 428:lib/freertos/src/timers.c **** 		/* Send a command to the timer service task to start the xTimer timer. */
 429:lib/freertos/src/timers.c **** 		xMessage.xMessageID = xCommandID;
 430:lib/freertos/src/timers.c **** 		xMessage.u.xTimerParameters.xMessageValue = xOptionalValue;
 431:lib/freertos/src/timers.c **** 		xMessage.u.xTimerParameters.pxTimer = ( Timer_t * ) xTimer;
 432:lib/freertos/src/timers.c **** 
 433:lib/freertos/src/timers.c **** 		if( xCommandID < tmrFIRST_FROM_ISR_COMMAND )
 434:lib/freertos/src/timers.c **** 		{
 435:lib/freertos/src/timers.c **** 			if( xTaskGetSchedulerState() == taskSCHEDULER_RUNNING )
 436:lib/freertos/src/timers.c **** 			{
 437:lib/freertos/src/timers.c **** 				xReturn = xQueueSendToBack( xTimerQueue, &xMessage, xTicksToWait );
 438:lib/freertos/src/timers.c **** 			}
 439:lib/freertos/src/timers.c **** 			else
 440:lib/freertos/src/timers.c **** 			{
 441:lib/freertos/src/timers.c **** 				xReturn = xQueueSendToBack( xTimerQueue, &xMessage, tmrNO_DELAY );
 442:lib/freertos/src/timers.c **** 			}
 443:lib/freertos/src/timers.c **** 		}
GAS LISTING C:\Users\kasie\AppData\Local\Temp\cc3J3bHu.s 			page 9


 444:lib/freertos/src/timers.c **** 		else
 445:lib/freertos/src/timers.c **** 		{
 446:lib/freertos/src/timers.c **** 			xReturn = xQueueSendToBackFromISR( xTimerQueue, &xMessage, pxHigherPriorityTaskWoken );
 447:lib/freertos/src/timers.c **** 		}
 448:lib/freertos/src/timers.c **** 
 449:lib/freertos/src/timers.c **** 		traceTIMER_COMMAND_SEND( xTimer, xCommandID, xOptionalValue, xReturn );
 450:lib/freertos/src/timers.c **** 	}
 451:lib/freertos/src/timers.c **** 	else
 452:lib/freertos/src/timers.c **** 	{
 453:lib/freertos/src/timers.c **** 		mtCOVERAGE_TEST_MARKER();
 454:lib/freertos/src/timers.c **** 	}
 455:lib/freertos/src/timers.c **** 
 456:lib/freertos/src/timers.c **** 	return xReturn;
 457:lib/freertos/src/timers.c **** }
 458:lib/freertos/src/timers.c **** /*-----------------------------------------------------------*/
 459:lib/freertos/src/timers.c **** 
 460:lib/freertos/src/timers.c **** TaskHandle_t xTimerGetTimerDaemonTaskHandle( void )
 461:lib/freertos/src/timers.c **** {
 462:lib/freertos/src/timers.c **** 	/* If xTimerGetTimerDaemonTaskHandle() is called before the scheduler has been
 463:lib/freertos/src/timers.c **** 	started, then xTimerTaskHandle will be NULL. */
 464:lib/freertos/src/timers.c **** 	configASSERT( ( xTimerTaskHandle != NULL ) );
 465:lib/freertos/src/timers.c **** 	return xTimerTaskHandle;
 466:lib/freertos/src/timers.c **** }
 467:lib/freertos/src/timers.c **** /*-----------------------------------------------------------*/
 468:lib/freertos/src/timers.c **** 
 469:lib/freertos/src/timers.c **** TickType_t xTimerGetPeriod( TimerHandle_t xTimer )
 470:lib/freertos/src/timers.c **** {
 471:lib/freertos/src/timers.c **** Timer_t *pxTimer = ( Timer_t * ) xTimer;
 472:lib/freertos/src/timers.c **** 
 473:lib/freertos/src/timers.c **** 	configASSERT( xTimer );
 474:lib/freertos/src/timers.c **** 	return pxTimer->xTimerPeriodInTicks;
 475:lib/freertos/src/timers.c **** }
 476:lib/freertos/src/timers.c **** /*-----------------------------------------------------------*/
 477:lib/freertos/src/timers.c **** 
 478:lib/freertos/src/timers.c **** TickType_t xTimerGetExpiryTime( TimerHandle_t xTimer )
 479:lib/freertos/src/timers.c **** {
 480:lib/freertos/src/timers.c **** Timer_t * pxTimer = ( Timer_t * ) xTimer;
 481:lib/freertos/src/timers.c **** TickType_t xReturn;
 482:lib/freertos/src/timers.c **** 
 483:lib/freertos/src/timers.c **** 	configASSERT( xTimer );
 484:lib/freertos/src/timers.c **** 	xReturn = listGET_LIST_ITEM_VALUE( &( pxTimer->xTimerListItem ) );
 485:lib/freertos/src/timers.c **** 	return xReturn;
 486:lib/freertos/src/timers.c **** }
 487:lib/freertos/src/timers.c **** /*-----------------------------------------------------------*/
 488:lib/freertos/src/timers.c **** 
 489:lib/freertos/src/timers.c **** const char * pcTimerGetName( TimerHandle_t xTimer ) /*lint !e971 Unqualified char types are allowed
 490:lib/freertos/src/timers.c **** {
 491:lib/freertos/src/timers.c **** Timer_t *pxTimer = ( Timer_t * ) xTimer;
 492:lib/freertos/src/timers.c **** 
 493:lib/freertos/src/timers.c **** 	configASSERT( xTimer );
 494:lib/freertos/src/timers.c **** 	return pxTimer->pcTimerName;
 495:lib/freertos/src/timers.c **** }
 496:lib/freertos/src/timers.c **** /*-----------------------------------------------------------*/
 497:lib/freertos/src/timers.c **** 
 498:lib/freertos/src/timers.c **** static void prvProcessExpiredTimer( const TickType_t xNextExpireTime, const TickType_t xTimeNow )
 499:lib/freertos/src/timers.c **** {
 500:lib/freertos/src/timers.c **** BaseType_t xResult;
GAS LISTING C:\Users\kasie\AppData\Local\Temp\cc3J3bHu.s 			page 10


 501:lib/freertos/src/timers.c **** Timer_t * const pxTimer = ( Timer_t * ) listGET_OWNER_OF_HEAD_ENTRY( pxCurrentTimerList );
 502:lib/freertos/src/timers.c **** 
 503:lib/freertos/src/timers.c **** 	/* Remove the timer from the list of active timers.  A check has already
 504:lib/freertos/src/timers.c **** 	been performed to ensure the list is not empty. */
 505:lib/freertos/src/timers.c **** 	( void ) uxListRemove( &( pxTimer->xTimerListItem ) );
 506:lib/freertos/src/timers.c **** 	traceTIMER_EXPIRED( pxTimer );
 507:lib/freertos/src/timers.c **** 
 508:lib/freertos/src/timers.c **** 	/* If the timer is an auto reload timer then calculate the next
 509:lib/freertos/src/timers.c **** 	expiry time and re-insert the timer in the list of active timers. */
 510:lib/freertos/src/timers.c **** 	if( pxTimer->uxAutoReload == ( UBaseType_t ) pdTRUE )
 511:lib/freertos/src/timers.c **** 	{
 512:lib/freertos/src/timers.c **** 		/* The timer is inserted into a list using a time relative to anything
 513:lib/freertos/src/timers.c **** 		other than the current time.  It will therefore be inserted into the
 514:lib/freertos/src/timers.c **** 		correct list relative to the time this task thinks it is now. */
 515:lib/freertos/src/timers.c **** 		if( prvInsertTimerInActiveList( pxTimer, ( xNextExpireTime + pxTimer->xTimerPeriodInTicks ), xTim
 516:lib/freertos/src/timers.c **** 		{
 517:lib/freertos/src/timers.c **** 			/* The timer expired before it was added to the active timer
 518:lib/freertos/src/timers.c **** 			list.  Reload it now.  */
 519:lib/freertos/src/timers.c **** 			xResult = xTimerGenericCommand( pxTimer, tmrCOMMAND_START_DONT_TRACE, xNextExpireTime, NULL, tmr
 520:lib/freertos/src/timers.c **** 			configASSERT( xResult );
 521:lib/freertos/src/timers.c **** 			( void ) xResult;
 522:lib/freertos/src/timers.c **** 		}
 523:lib/freertos/src/timers.c **** 		else
 524:lib/freertos/src/timers.c **** 		{
 525:lib/freertos/src/timers.c **** 			mtCOVERAGE_TEST_MARKER();
 526:lib/freertos/src/timers.c **** 		}
 527:lib/freertos/src/timers.c **** 	}
 528:lib/freertos/src/timers.c **** 	else
 529:lib/freertos/src/timers.c **** 	{
 530:lib/freertos/src/timers.c **** 		mtCOVERAGE_TEST_MARKER();
 531:lib/freertos/src/timers.c **** 	}
 532:lib/freertos/src/timers.c **** 
 533:lib/freertos/src/timers.c **** 	/* Call the timer callback. */
 534:lib/freertos/src/timers.c **** 	pxTimer->pxCallbackFunction( ( TimerHandle_t ) pxTimer );
 535:lib/freertos/src/timers.c **** }
 536:lib/freertos/src/timers.c **** /*-----------------------------------------------------------*/
 537:lib/freertos/src/timers.c **** 
 538:lib/freertos/src/timers.c **** static void prvTimerTask( void *pvParameters )
 539:lib/freertos/src/timers.c **** {
 540:lib/freertos/src/timers.c **** TickType_t xNextExpireTime;
 541:lib/freertos/src/timers.c **** BaseType_t xListWasEmpty;
 542:lib/freertos/src/timers.c **** 
 543:lib/freertos/src/timers.c **** 	/* Just to avoid compiler warnings. */
 544:lib/freertos/src/timers.c **** 	( void ) pvParameters;
 545:lib/freertos/src/timers.c **** 
 546:lib/freertos/src/timers.c **** 	#if( configUSE_DAEMON_TASK_STARTUP_HOOK == 1 )
 547:lib/freertos/src/timers.c **** 	{
 548:lib/freertos/src/timers.c **** 		extern void vApplicationDaemonTaskStartupHook( void );
 549:lib/freertos/src/timers.c **** 
 550:lib/freertos/src/timers.c **** 		/* Allow the application writer to execute some code in the context of
 551:lib/freertos/src/timers.c **** 		this task at the point the task starts executing.  This is useful if the
 552:lib/freertos/src/timers.c **** 		application includes initialisation code that would benefit from
 553:lib/freertos/src/timers.c **** 		executing after the scheduler has been started. */
 554:lib/freertos/src/timers.c **** 		vApplicationDaemonTaskStartupHook();
 555:lib/freertos/src/timers.c **** 	}
 556:lib/freertos/src/timers.c **** 	#endif /* configUSE_DAEMON_TASK_STARTUP_HOOK */
 557:lib/freertos/src/timers.c **** 
GAS LISTING C:\Users\kasie\AppData\Local\Temp\cc3J3bHu.s 			page 11


 558:lib/freertos/src/timers.c **** 	for( ;; )
 559:lib/freertos/src/timers.c **** 	{
 560:lib/freertos/src/timers.c **** 		/* Query the timers list to see if it contains any timers, and if so,
 561:lib/freertos/src/timers.c **** 		obtain the time at which the next timer will expire. */
 562:lib/freertos/src/timers.c **** 		xNextExpireTime = prvGetNextExpireTime( &xListWasEmpty );
 563:lib/freertos/src/timers.c **** 
 564:lib/freertos/src/timers.c **** 		/* If a timer has expired, process it.  Otherwise, block this task
 565:lib/freertos/src/timers.c **** 		until either a timer does expire, or a command is received. */
 566:lib/freertos/src/timers.c **** 		prvProcessTimerOrBlockTask( xNextExpireTime, xListWasEmpty );
 567:lib/freertos/src/timers.c **** 
 568:lib/freertos/src/timers.c **** 		/* Empty the command queue. */
 569:lib/freertos/src/timers.c **** 		prvProcessReceivedCommands();
 570:lib/freertos/src/timers.c **** 	}
 571:lib/freertos/src/timers.c **** }
 572:lib/freertos/src/timers.c **** /*-----------------------------------------------------------*/
 573:lib/freertos/src/timers.c **** 
 574:lib/freertos/src/timers.c **** static void prvProcessTimerOrBlockTask( const TickType_t xNextExpireTime, BaseType_t xListWasEmpty 
 575:lib/freertos/src/timers.c **** {
 576:lib/freertos/src/timers.c **** TickType_t xTimeNow;
 577:lib/freertos/src/timers.c **** BaseType_t xTimerListsWereSwitched;
 578:lib/freertos/src/timers.c **** 
 579:lib/freertos/src/timers.c **** 	vTaskSuspendAll();
 580:lib/freertos/src/timers.c **** 	{
 581:lib/freertos/src/timers.c **** 		/* Obtain the time now to make an assessment as to whether the timer
 582:lib/freertos/src/timers.c **** 		has expired or not.  If obtaining the time causes the lists to switch
 583:lib/freertos/src/timers.c **** 		then don't process this timer as any timers that remained in the list
 584:lib/freertos/src/timers.c **** 		when the lists were switched will have been processed within the
 585:lib/freertos/src/timers.c **** 		prvSampleTimeNow() function. */
 586:lib/freertos/src/timers.c **** 		xTimeNow = prvSampleTimeNow( &xTimerListsWereSwitched );
 587:lib/freertos/src/timers.c **** 		if( xTimerListsWereSwitched == pdFALSE )
 588:lib/freertos/src/timers.c **** 		{
 589:lib/freertos/src/timers.c **** 			/* The tick count has not overflowed, has the timer expired? */
 590:lib/freertos/src/timers.c **** 			if( ( xListWasEmpty == pdFALSE ) && ( xNextExpireTime <= xTimeNow ) )
 591:lib/freertos/src/timers.c **** 			{
 592:lib/freertos/src/timers.c **** 				( void ) xTaskResumeAll();
 593:lib/freertos/src/timers.c **** 				prvProcessExpiredTimer( xNextExpireTime, xTimeNow );
 594:lib/freertos/src/timers.c **** 			}
 595:lib/freertos/src/timers.c **** 			else
 596:lib/freertos/src/timers.c **** 			{
 597:lib/freertos/src/timers.c **** 				/* The tick count has not overflowed, and the next expire
 598:lib/freertos/src/timers.c **** 				time has not been reached yet.  This task should therefore
 599:lib/freertos/src/timers.c **** 				block to wait for the next expire time or a command to be
 600:lib/freertos/src/timers.c **** 				received - whichever comes first.  The following line cannot
 601:lib/freertos/src/timers.c **** 				be reached unless xNextExpireTime > xTimeNow, except in the
 602:lib/freertos/src/timers.c **** 				case when the current timer list is empty. */
 603:lib/freertos/src/timers.c **** 				if( xListWasEmpty != pdFALSE )
 604:lib/freertos/src/timers.c **** 				{
 605:lib/freertos/src/timers.c **** 					/* The current timer list is empty - is the overflow list
 606:lib/freertos/src/timers.c **** 					also empty? */
 607:lib/freertos/src/timers.c **** 					xListWasEmpty = listLIST_IS_EMPTY( pxOverflowTimerList );
 608:lib/freertos/src/timers.c **** 				}
 609:lib/freertos/src/timers.c **** 
 610:lib/freertos/src/timers.c **** 				vQueueWaitForMessageRestricted( xTimerQueue, ( xNextExpireTime - xTimeNow ), xListWasEmpty );
 611:lib/freertos/src/timers.c **** 
 612:lib/freertos/src/timers.c **** 				if( xTaskResumeAll() == pdFALSE )
 613:lib/freertos/src/timers.c **** 				{
 614:lib/freertos/src/timers.c **** 					/* Yield to wait for either a command to arrive, or the
GAS LISTING C:\Users\kasie\AppData\Local\Temp\cc3J3bHu.s 			page 12


 615:lib/freertos/src/timers.c **** 					block time to expire.  If a command arrived between the
 616:lib/freertos/src/timers.c **** 					critical section being exited and this yield then the yield
 617:lib/freertos/src/timers.c **** 					will not cause the task to block. */
 618:lib/freertos/src/timers.c **** 					portYIELD_WITHIN_API();
 619:lib/freertos/src/timers.c **** 				}
 620:lib/freertos/src/timers.c **** 				else
 621:lib/freertos/src/timers.c **** 				{
 622:lib/freertos/src/timers.c **** 					mtCOVERAGE_TEST_MARKER();
 623:lib/freertos/src/timers.c **** 				}
 624:lib/freertos/src/timers.c **** 			}
 625:lib/freertos/src/timers.c **** 		}
 626:lib/freertos/src/timers.c **** 		else
 627:lib/freertos/src/timers.c **** 		{
 628:lib/freertos/src/timers.c **** 			( void ) xTaskResumeAll();
 629:lib/freertos/src/timers.c **** 		}
 630:lib/freertos/src/timers.c **** 	}
 631:lib/freertos/src/timers.c **** }
 632:lib/freertos/src/timers.c **** /*-----------------------------------------------------------*/
 633:lib/freertos/src/timers.c **** 
 634:lib/freertos/src/timers.c **** static TickType_t prvGetNextExpireTime( BaseType_t * const pxListWasEmpty )
 635:lib/freertos/src/timers.c **** {
 636:lib/freertos/src/timers.c **** TickType_t xNextExpireTime;
 637:lib/freertos/src/timers.c **** 
 638:lib/freertos/src/timers.c **** 	/* Timers are listed in expiry time order, with the head of the list
 639:lib/freertos/src/timers.c **** 	referencing the task that will expire first.  Obtain the time at which
 640:lib/freertos/src/timers.c **** 	the timer with the nearest expiry time will expire.  If there are no
 641:lib/freertos/src/timers.c **** 	active timers then just set the next expire time to 0.  That will cause
 642:lib/freertos/src/timers.c **** 	this task to unblock when the tick count overflows, at which point the
 643:lib/freertos/src/timers.c **** 	timer lists will be switched and the next expiry time can be
 644:lib/freertos/src/timers.c **** 	re-assessed.  */
 645:lib/freertos/src/timers.c **** 	*pxListWasEmpty = listLIST_IS_EMPTY( pxCurrentTimerList );
 646:lib/freertos/src/timers.c **** 	if( *pxListWasEmpty == pdFALSE )
 647:lib/freertos/src/timers.c **** 	{
 648:lib/freertos/src/timers.c **** 		xNextExpireTime = listGET_ITEM_VALUE_OF_HEAD_ENTRY( pxCurrentTimerList );
 649:lib/freertos/src/timers.c **** 	}
 650:lib/freertos/src/timers.c **** 	else
 651:lib/freertos/src/timers.c **** 	{
 652:lib/freertos/src/timers.c **** 		/* Ensure the task unblocks when the tick count rolls over. */
 653:lib/freertos/src/timers.c **** 		xNextExpireTime = ( TickType_t ) 0U;
 654:lib/freertos/src/timers.c **** 	}
 655:lib/freertos/src/timers.c **** 
 656:lib/freertos/src/timers.c **** 	return xNextExpireTime;
 657:lib/freertos/src/timers.c **** }
 658:lib/freertos/src/timers.c **** /*-----------------------------------------------------------*/
 659:lib/freertos/src/timers.c **** 
 660:lib/freertos/src/timers.c **** static TickType_t prvSampleTimeNow( BaseType_t * const pxTimerListsWereSwitched )
 661:lib/freertos/src/timers.c **** {
 662:lib/freertos/src/timers.c **** TickType_t xTimeNow;
 663:lib/freertos/src/timers.c **** PRIVILEGED_DATA static TickType_t xLastTime = ( TickType_t ) 0U; /*lint !e956 Variable is only acce
 664:lib/freertos/src/timers.c **** 
 665:lib/freertos/src/timers.c **** 	xTimeNow = xTaskGetTickCount();
 666:lib/freertos/src/timers.c **** 
 667:lib/freertos/src/timers.c **** 	if( xTimeNow < xLastTime )
 668:lib/freertos/src/timers.c **** 	{
 669:lib/freertos/src/timers.c **** 		prvSwitchTimerLists();
 670:lib/freertos/src/timers.c **** 		*pxTimerListsWereSwitched = pdTRUE;
 671:lib/freertos/src/timers.c **** 	}
GAS LISTING C:\Users\kasie\AppData\Local\Temp\cc3J3bHu.s 			page 13


 672:lib/freertos/src/timers.c **** 	else
 673:lib/freertos/src/timers.c **** 	{
 674:lib/freertos/src/timers.c **** 		*pxTimerListsWereSwitched = pdFALSE;
 675:lib/freertos/src/timers.c **** 	}
 676:lib/freertos/src/timers.c **** 
 677:lib/freertos/src/timers.c **** 	xLastTime = xTimeNow;
 678:lib/freertos/src/timers.c **** 
 679:lib/freertos/src/timers.c **** 	return xTimeNow;
 680:lib/freertos/src/timers.c **** }
 681:lib/freertos/src/timers.c **** /*-----------------------------------------------------------*/
 682:lib/freertos/src/timers.c **** 
 683:lib/freertos/src/timers.c **** static BaseType_t prvInsertTimerInActiveList( Timer_t * const pxTimer, const TickType_t xNextExpiry
 684:lib/freertos/src/timers.c **** {
 685:lib/freertos/src/timers.c **** BaseType_t xProcessTimerNow = pdFALSE;
 686:lib/freertos/src/timers.c **** 
 687:lib/freertos/src/timers.c **** 	listSET_LIST_ITEM_VALUE( &( pxTimer->xTimerListItem ), xNextExpiryTime );
 688:lib/freertos/src/timers.c **** 	listSET_LIST_ITEM_OWNER( &( pxTimer->xTimerListItem ), pxTimer );
 689:lib/freertos/src/timers.c **** 
 690:lib/freertos/src/timers.c **** 	if( xNextExpiryTime <= xTimeNow )
 691:lib/freertos/src/timers.c **** 	{
 692:lib/freertos/src/timers.c **** 		/* Has the expiry time elapsed between the command to start/reset a
 693:lib/freertos/src/timers.c **** 		timer was issued, and the time the command was processed? */
 694:lib/freertos/src/timers.c **** 		if( ( ( TickType_t ) ( xTimeNow - xCommandTime ) ) >= pxTimer->xTimerPeriodInTicks ) /*lint !e961
 695:lib/freertos/src/timers.c **** 		{
 696:lib/freertos/src/timers.c **** 			/* The time between a command being issued and the command being
 697:lib/freertos/src/timers.c **** 			processed actually exceeds the timers period.  */
 698:lib/freertos/src/timers.c **** 			xProcessTimerNow = pdTRUE;
 699:lib/freertos/src/timers.c **** 		}
 700:lib/freertos/src/timers.c **** 		else
 701:lib/freertos/src/timers.c **** 		{
 702:lib/freertos/src/timers.c **** 			vListInsert( pxOverflowTimerList, &( pxTimer->xTimerListItem ) );
 703:lib/freertos/src/timers.c **** 		}
 704:lib/freertos/src/timers.c **** 	}
 705:lib/freertos/src/timers.c **** 	else
 706:lib/freertos/src/timers.c **** 	{
 707:lib/freertos/src/timers.c **** 		if( ( xTimeNow < xCommandTime ) && ( xNextExpiryTime >= xCommandTime ) )
 708:lib/freertos/src/timers.c **** 		{
 709:lib/freertos/src/timers.c **** 			/* If, since the command was issued, the tick count has overflowed
 710:lib/freertos/src/timers.c **** 			but the expiry time has not, then the timer must have already passed
 711:lib/freertos/src/timers.c **** 			its expiry time and should be processed immediately. */
 712:lib/freertos/src/timers.c **** 			xProcessTimerNow = pdTRUE;
 713:lib/freertos/src/timers.c **** 		}
 714:lib/freertos/src/timers.c **** 		else
 715:lib/freertos/src/timers.c **** 		{
 716:lib/freertos/src/timers.c **** 			vListInsert( pxCurrentTimerList, &( pxTimer->xTimerListItem ) );
 717:lib/freertos/src/timers.c **** 		}
 718:lib/freertos/src/timers.c **** 	}
 719:lib/freertos/src/timers.c **** 
 720:lib/freertos/src/timers.c **** 	return xProcessTimerNow;
 721:lib/freertos/src/timers.c **** }
 722:lib/freertos/src/timers.c **** /*-----------------------------------------------------------*/
 723:lib/freertos/src/timers.c **** 
 724:lib/freertos/src/timers.c **** static void	prvProcessReceivedCommands( void )
 725:lib/freertos/src/timers.c **** {
 726:lib/freertos/src/timers.c **** DaemonTaskMessage_t xMessage;
 727:lib/freertos/src/timers.c **** Timer_t *pxTimer;
 728:lib/freertos/src/timers.c **** BaseType_t xTimerListsWereSwitched, xResult;
GAS LISTING C:\Users\kasie\AppData\Local\Temp\cc3J3bHu.s 			page 14


 729:lib/freertos/src/timers.c **** TickType_t xTimeNow;
 730:lib/freertos/src/timers.c **** 
 731:lib/freertos/src/timers.c **** 	while( xQueueReceive( xTimerQueue, &xMessage, tmrNO_DELAY ) != pdFAIL ) /*lint !e603 xMessage does
 732:lib/freertos/src/timers.c **** 	{
 733:lib/freertos/src/timers.c **** 		#if ( INCLUDE_xTimerPendFunctionCall == 1 )
 734:lib/freertos/src/timers.c **** 		{
 735:lib/freertos/src/timers.c **** 			/* Negative commands are pended function calls rather than timer
 736:lib/freertos/src/timers.c **** 			commands. */
 737:lib/freertos/src/timers.c **** 			if( xMessage.xMessageID < ( BaseType_t ) 0 )
 738:lib/freertos/src/timers.c **** 			{
 739:lib/freertos/src/timers.c **** 				const CallbackParameters_t * const pxCallback = &( xMessage.u.xCallbackParameters );
 740:lib/freertos/src/timers.c **** 
 741:lib/freertos/src/timers.c **** 				/* The timer uses the xCallbackParameters member to request a
 742:lib/freertos/src/timers.c **** 				callback be executed.  Check the callback is not NULL. */
 743:lib/freertos/src/timers.c **** 				configASSERT( pxCallback );
 744:lib/freertos/src/timers.c **** 
 745:lib/freertos/src/timers.c **** 				/* Call the function. */
 746:lib/freertos/src/timers.c **** 				pxCallback->pxCallbackFunction( pxCallback->pvParameter1, pxCallback->ulParameter2 );
 747:lib/freertos/src/timers.c **** 			}
 748:lib/freertos/src/timers.c **** 			else
 749:lib/freertos/src/timers.c **** 			{
 750:lib/freertos/src/timers.c **** 				mtCOVERAGE_TEST_MARKER();
 751:lib/freertos/src/timers.c **** 			}
 752:lib/freertos/src/timers.c **** 		}
 753:lib/freertos/src/timers.c **** 		#endif /* INCLUDE_xTimerPendFunctionCall */
 754:lib/freertos/src/timers.c **** 
 755:lib/freertos/src/timers.c **** 		/* Commands that are positive are timer commands rather than pended
 756:lib/freertos/src/timers.c **** 		function calls. */
 757:lib/freertos/src/timers.c **** 		if( xMessage.xMessageID >= ( BaseType_t ) 0 )
 758:lib/freertos/src/timers.c **** 		{
 759:lib/freertos/src/timers.c **** 			/* The messages uses the xTimerParameters member to work on a
 760:lib/freertos/src/timers.c **** 			software timer. */
 761:lib/freertos/src/timers.c **** 			pxTimer = xMessage.u.xTimerParameters.pxTimer;
 762:lib/freertos/src/timers.c **** 
 763:lib/freertos/src/timers.c **** 			if( listIS_CONTAINED_WITHIN( NULL, &( pxTimer->xTimerListItem ) ) == pdFALSE )
 764:lib/freertos/src/timers.c **** 			{
 765:lib/freertos/src/timers.c **** 				/* The timer is in a list, remove it. */
 766:lib/freertos/src/timers.c **** 				( void ) uxListRemove( &( pxTimer->xTimerListItem ) );
 767:lib/freertos/src/timers.c **** 			}
 768:lib/freertos/src/timers.c **** 			else
 769:lib/freertos/src/timers.c **** 			{
 770:lib/freertos/src/timers.c **** 				mtCOVERAGE_TEST_MARKER();
 771:lib/freertos/src/timers.c **** 			}
 772:lib/freertos/src/timers.c **** 
 773:lib/freertos/src/timers.c **** 			traceTIMER_COMMAND_RECEIVED( pxTimer, xMessage.xMessageID, xMessage.u.xTimerParameters.xMessageV
 774:lib/freertos/src/timers.c **** 
 775:lib/freertos/src/timers.c **** 			/* In this case the xTimerListsWereSwitched parameter is not used, but
 776:lib/freertos/src/timers.c **** 			it must be present in the function call.  prvSampleTimeNow() must be
 777:lib/freertos/src/timers.c **** 			called after the message is received from xTimerQueue so there is no
 778:lib/freertos/src/timers.c **** 			possibility of a higher priority task adding a message to the message
 779:lib/freertos/src/timers.c **** 			queue with a time that is ahead of the timer daemon task (because it
 780:lib/freertos/src/timers.c **** 			pre-empted the timer daemon task after the xTimeNow value was set). */
 781:lib/freertos/src/timers.c **** 			xTimeNow = prvSampleTimeNow( &xTimerListsWereSwitched );
 782:lib/freertos/src/timers.c **** 
 783:lib/freertos/src/timers.c **** 			switch( xMessage.xMessageID )
 784:lib/freertos/src/timers.c **** 			{
 785:lib/freertos/src/timers.c **** 				case tmrCOMMAND_START :
GAS LISTING C:\Users\kasie\AppData\Local\Temp\cc3J3bHu.s 			page 15


 786:lib/freertos/src/timers.c **** 			    case tmrCOMMAND_START_FROM_ISR :
 787:lib/freertos/src/timers.c **** 			    case tmrCOMMAND_RESET :
 788:lib/freertos/src/timers.c **** 			    case tmrCOMMAND_RESET_FROM_ISR :
 789:lib/freertos/src/timers.c **** 				case tmrCOMMAND_START_DONT_TRACE :
 790:lib/freertos/src/timers.c **** 					/* Start or restart a timer. */
 791:lib/freertos/src/timers.c **** 					if( prvInsertTimerInActiveList( pxTimer,  xMessage.u.xTimerParameters.xMessageValue + pxTimer-
 792:lib/freertos/src/timers.c **** 					{
 793:lib/freertos/src/timers.c **** 						/* The timer expired before it was added to the active
 794:lib/freertos/src/timers.c **** 						timer list.  Process it now. */
 795:lib/freertos/src/timers.c **** 						pxTimer->pxCallbackFunction( ( TimerHandle_t ) pxTimer );
 796:lib/freertos/src/timers.c **** 						traceTIMER_EXPIRED( pxTimer );
 797:lib/freertos/src/timers.c **** 
 798:lib/freertos/src/timers.c **** 						if( pxTimer->uxAutoReload == ( UBaseType_t ) pdTRUE )
 799:lib/freertos/src/timers.c **** 						{
 800:lib/freertos/src/timers.c **** 							xResult = xTimerGenericCommand( pxTimer, tmrCOMMAND_START_DONT_TRACE, xMessage.u.xTimerParam
 801:lib/freertos/src/timers.c **** 							configASSERT( xResult );
 802:lib/freertos/src/timers.c **** 							( void ) xResult;
 803:lib/freertos/src/timers.c **** 						}
 804:lib/freertos/src/timers.c **** 						else
 805:lib/freertos/src/timers.c **** 						{
 806:lib/freertos/src/timers.c **** 							mtCOVERAGE_TEST_MARKER();
 807:lib/freertos/src/timers.c **** 						}
 808:lib/freertos/src/timers.c **** 					}
 809:lib/freertos/src/timers.c **** 					else
 810:lib/freertos/src/timers.c **** 					{
 811:lib/freertos/src/timers.c **** 						mtCOVERAGE_TEST_MARKER();
 812:lib/freertos/src/timers.c **** 					}
 813:lib/freertos/src/timers.c **** 					break;
 814:lib/freertos/src/timers.c **** 
 815:lib/freertos/src/timers.c **** 				case tmrCOMMAND_STOP :
 816:lib/freertos/src/timers.c **** 				case tmrCOMMAND_STOP_FROM_ISR :
 817:lib/freertos/src/timers.c **** 					/* The timer has already been removed from the active list.
 818:lib/freertos/src/timers.c **** 					There is nothing to do here. */
 819:lib/freertos/src/timers.c **** 					break;
 820:lib/freertos/src/timers.c **** 
 821:lib/freertos/src/timers.c **** 				case tmrCOMMAND_CHANGE_PERIOD :
 822:lib/freertos/src/timers.c **** 				case tmrCOMMAND_CHANGE_PERIOD_FROM_ISR :
 823:lib/freertos/src/timers.c **** 					pxTimer->xTimerPeriodInTicks = xMessage.u.xTimerParameters.xMessageValue;
 824:lib/freertos/src/timers.c **** 					configASSERT( ( pxTimer->xTimerPeriodInTicks > 0 ) );
 825:lib/freertos/src/timers.c **** 
 826:lib/freertos/src/timers.c **** 					/* The new period does not really have a reference, and can
 827:lib/freertos/src/timers.c **** 					be longer or shorter than the old one.  The command time is
 828:lib/freertos/src/timers.c **** 					therefore set to the current time, and as the period cannot
 829:lib/freertos/src/timers.c **** 					be zero the next expiry time can only be in the future,
 830:lib/freertos/src/timers.c **** 					meaning (unlike for the xTimerStart() case above) there is
 831:lib/freertos/src/timers.c **** 					no fail case that needs to be handled here. */
 832:lib/freertos/src/timers.c **** 					( void ) prvInsertTimerInActiveList( pxTimer, ( xTimeNow + pxTimer->xTimerPeriodInTicks ), xTi
 833:lib/freertos/src/timers.c **** 					break;
 834:lib/freertos/src/timers.c **** 
 835:lib/freertos/src/timers.c **** 				case tmrCOMMAND_DELETE :
 836:lib/freertos/src/timers.c **** 					/* The timer has already been removed from the active list,
 837:lib/freertos/src/timers.c **** 					just free up the memory if the memory was dynamically
 838:lib/freertos/src/timers.c **** 					allocated. */
 839:lib/freertos/src/timers.c **** 					#if( ( configSUPPORT_DYNAMIC_ALLOCATION == 1 ) && ( configSUPPORT_STATIC_ALLOCATION == 0 ) )
 840:lib/freertos/src/timers.c **** 					{
 841:lib/freertos/src/timers.c **** 						/* The timer can only have been allocated dynamically -
 842:lib/freertos/src/timers.c **** 						free it again. */
GAS LISTING C:\Users\kasie\AppData\Local\Temp\cc3J3bHu.s 			page 16


 843:lib/freertos/src/timers.c **** 						vPortFree( pxTimer );
 844:lib/freertos/src/timers.c **** 					}
 845:lib/freertos/src/timers.c **** 					#elif( ( configSUPPORT_DYNAMIC_ALLOCATION == 1 ) && ( configSUPPORT_STATIC_ALLOCATION == 1 ) )
 846:lib/freertos/src/timers.c **** 					{
 847:lib/freertos/src/timers.c **** 						/* The timer could have been allocated statically or
 848:lib/freertos/src/timers.c **** 						dynamically, so check before attempting to free the
 849:lib/freertos/src/timers.c **** 						memory. */
 850:lib/freertos/src/timers.c **** 						if( pxTimer->ucStaticallyAllocated == ( uint8_t ) pdFALSE )
 851:lib/freertos/src/timers.c **** 						{
 852:lib/freertos/src/timers.c **** 							vPortFree( pxTimer );
 853:lib/freertos/src/timers.c **** 						}
 854:lib/freertos/src/timers.c **** 						else
 855:lib/freertos/src/timers.c **** 						{
 856:lib/freertos/src/timers.c **** 							mtCOVERAGE_TEST_MARKER();
 857:lib/freertos/src/timers.c **** 						}
 858:lib/freertos/src/timers.c **** 					}
 859:lib/freertos/src/timers.c **** 					#endif /* configSUPPORT_DYNAMIC_ALLOCATION */
 860:lib/freertos/src/timers.c **** 					break;
 861:lib/freertos/src/timers.c **** 
 862:lib/freertos/src/timers.c **** 				default	:
 863:lib/freertos/src/timers.c **** 					/* Don't expect to get here. */
 864:lib/freertos/src/timers.c **** 					break;
 865:lib/freertos/src/timers.c **** 			}
 866:lib/freertos/src/timers.c **** 		}
 867:lib/freertos/src/timers.c **** 	}
 868:lib/freertos/src/timers.c **** }
 869:lib/freertos/src/timers.c **** /*-----------------------------------------------------------*/
 870:lib/freertos/src/timers.c **** 
 871:lib/freertos/src/timers.c **** static void prvSwitchTimerLists( void )
 872:lib/freertos/src/timers.c **** {
 873:lib/freertos/src/timers.c **** TickType_t xNextExpireTime, xReloadTime;
 874:lib/freertos/src/timers.c **** List_t *pxTemp;
 875:lib/freertos/src/timers.c **** Timer_t *pxTimer;
 876:lib/freertos/src/timers.c **** BaseType_t xResult;
 877:lib/freertos/src/timers.c **** 
 878:lib/freertos/src/timers.c **** 	/* The tick count has overflowed.  The timer lists must be switched.
 879:lib/freertos/src/timers.c **** 	If there are any timers still referenced from the current timer list
 880:lib/freertos/src/timers.c **** 	then they must have expired and should be processed before the lists
 881:lib/freertos/src/timers.c **** 	are switched. */
 882:lib/freertos/src/timers.c **** 	while( listLIST_IS_EMPTY( pxCurrentTimerList ) == pdFALSE )
 883:lib/freertos/src/timers.c **** 	{
 884:lib/freertos/src/timers.c **** 		xNextExpireTime = listGET_ITEM_VALUE_OF_HEAD_ENTRY( pxCurrentTimerList );
 885:lib/freertos/src/timers.c **** 
 886:lib/freertos/src/timers.c **** 		/* Remove the timer from the list. */
 887:lib/freertos/src/timers.c **** 		pxTimer = ( Timer_t * ) listGET_OWNER_OF_HEAD_ENTRY( pxCurrentTimerList );
 888:lib/freertos/src/timers.c **** 		( void ) uxListRemove( &( pxTimer->xTimerListItem ) );
 889:lib/freertos/src/timers.c **** 		traceTIMER_EXPIRED( pxTimer );
 890:lib/freertos/src/timers.c **** 
 891:lib/freertos/src/timers.c **** 		/* Execute its callback, then send a command to restart the timer if
 892:lib/freertos/src/timers.c **** 		it is an auto-reload timer.  It cannot be restarted here as the lists
 893:lib/freertos/src/timers.c **** 		have not yet been switched. */
 894:lib/freertos/src/timers.c **** 		pxTimer->pxCallbackFunction( ( TimerHandle_t ) pxTimer );
 895:lib/freertos/src/timers.c **** 
 896:lib/freertos/src/timers.c **** 		if( pxTimer->uxAutoReload == ( UBaseType_t ) pdTRUE )
 897:lib/freertos/src/timers.c **** 		{
 898:lib/freertos/src/timers.c **** 			/* Calculate the reload value, and if the reload value results in
 899:lib/freertos/src/timers.c **** 			the timer going into the same timer list then it has already expired
GAS LISTING C:\Users\kasie\AppData\Local\Temp\cc3J3bHu.s 			page 17


 900:lib/freertos/src/timers.c **** 			and the timer should be re-inserted into the current list so it is
 901:lib/freertos/src/timers.c **** 			processed again within this loop.  Otherwise a command should be sent
 902:lib/freertos/src/timers.c **** 			to restart the timer to ensure it is only inserted into a list after
 903:lib/freertos/src/timers.c **** 			the lists have been swapped. */
 904:lib/freertos/src/timers.c **** 			xReloadTime = ( xNextExpireTime + pxTimer->xTimerPeriodInTicks );
 905:lib/freertos/src/timers.c **** 			if( xReloadTime > xNextExpireTime )
 906:lib/freertos/src/timers.c **** 			{
 907:lib/freertos/src/timers.c **** 				listSET_LIST_ITEM_VALUE( &( pxTimer->xTimerListItem ), xReloadTime );
 908:lib/freertos/src/timers.c **** 				listSET_LIST_ITEM_OWNER( &( pxTimer->xTimerListItem ), pxTimer );
 909:lib/freertos/src/timers.c **** 				vListInsert( pxCurrentTimerList, &( pxTimer->xTimerListItem ) );
 910:lib/freertos/src/timers.c **** 			}
 911:lib/freertos/src/timers.c **** 			else
 912:lib/freertos/src/timers.c **** 			{
 913:lib/freertos/src/timers.c **** 				xResult = xTimerGenericCommand( pxTimer, tmrCOMMAND_START_DONT_TRACE, xNextExpireTime, NULL, tm
 914:lib/freertos/src/timers.c **** 				configASSERT( xResult );
 915:lib/freertos/src/timers.c **** 				( void ) xResult;
 916:lib/freertos/src/timers.c **** 			}
 917:lib/freertos/src/timers.c **** 		}
 918:lib/freertos/src/timers.c **** 		else
 919:lib/freertos/src/timers.c **** 		{
 920:lib/freertos/src/timers.c **** 			mtCOVERAGE_TEST_MARKER();
 921:lib/freertos/src/timers.c **** 		}
 922:lib/freertos/src/timers.c **** 	}
 923:lib/freertos/src/timers.c **** 
 924:lib/freertos/src/timers.c **** 	pxTemp = pxCurrentTimerList;
 925:lib/freertos/src/timers.c **** 	pxCurrentTimerList = pxOverflowTimerList;
 926:lib/freertos/src/timers.c **** 	pxOverflowTimerList = pxTemp;
 927:lib/freertos/src/timers.c **** }
 928:lib/freertos/src/timers.c **** /*-----------------------------------------------------------*/
 929:lib/freertos/src/timers.c **** 
 930:lib/freertos/src/timers.c **** static void prvCheckForValidListAndQueue( void )
 931:lib/freertos/src/timers.c **** {
  15              		.loc 1 931 1
  16              		.cfi_startproc
 932:lib/freertos/src/timers.c **** 	/* Check that the list from which active timers are referenced, and the
 933:lib/freertos/src/timers.c **** 	queue used to communicate with the timer service, have been
 934:lib/freertos/src/timers.c **** 	initialised. */
 935:lib/freertos/src/timers.c **** 	taskENTER_CRITICAL();
  17              		.loc 1 935 2
 931:lib/freertos/src/timers.c **** 	/* Check that the list from which active timers are referenced, and the
  18              		.loc 1 931 1 is_stmt 0
  19 0000 4111     		addi	sp,sp,-16
  20              	.LCFI0:
  21              		.cfi_def_cfa_offset 16
  22 0002 22C4     		sw	s0,8(sp)
  23              		.cfi_offset 8, -8
 936:lib/freertos/src/timers.c **** 	{
 937:lib/freertos/src/timers.c **** 		if( xTimerQueue == NULL )
  24              		.loc 1 937 19
  25 0004 37040000 		lui	s0,%hi(.LANCHOR0)
 931:lib/freertos/src/timers.c **** 	/* Check that the list from which active timers are referenced, and the
  26              		.loc 1 931 1
  27 0008 06C6     		sw	ra,12(sp)
  28 000a 26C2     		sw	s1,4(sp)
  29 000c 4AC0     		sw	s2,0(sp)
  30              		.cfi_offset 1, -4
  31              		.cfi_offset 9, -12
GAS LISTING C:\Users\kasie\AppData\Local\Temp\cc3J3bHu.s 			page 18


  32              		.cfi_offset 18, -16
  33              		.loc 1 937 19
  34 000e 13040400 		addi	s0,s0,%lo(.LANCHOR0)
 935:lib/freertos/src/timers.c **** 	{
  35              		.loc 1 935 2
  36 0012 97000000 		call	vPortEnterCritical
  36      E7800000 
  37              	.LVL0:
  38              		.loc 1 937 3 is_stmt 1
  39              		.loc 1 937 5 is_stmt 0
  40 001a 1C40     		lw	a5,0(s0)
  41 001c B1EF     		bne	a5,zero,.L3
 938:lib/freertos/src/timers.c **** 		{
 939:lib/freertos/src/timers.c **** 			vListInitialise( &xActiveTimerList1 );
  42              		.loc 1 939 4 is_stmt 1
  43 001e 37050000 		lui	a0,%hi(.LANCHOR1)
  44 0022 13090500 		addi	s2,a0,%lo(.LANCHOR1)
  45 0026 13050500 		addi	a0,a0,%lo(.LANCHOR1)
  46 002a 97000000 		call	vListInitialise
  46      E7800000 
  47              	.LVL1:
 940:lib/freertos/src/timers.c **** 			vListInitialise( &xActiveTimerList2 );
  48              		.loc 1 940 4
  49 0032 37050000 		lui	a0,%hi(.LANCHOR2)
  50 0036 93040500 		addi	s1,a0,%lo(.LANCHOR2)
  51 003a 13050500 		addi	a0,a0,%lo(.LANCHOR2)
  52 003e 97000000 		call	vListInitialise
  52      E7800000 
  53              	.LVL2:
 941:lib/freertos/src/timers.c **** 			pxCurrentTimerList = &xActiveTimerList1;
  54              		.loc 1 941 4
  55              		.loc 1 941 23 is_stmt 0
  56 0046 B7070000 		lui	a5,%hi(.LANCHOR3)
  57 004a 23A02701 		sw	s2,%lo(.LANCHOR3)(a5)
 942:lib/freertos/src/timers.c **** 			pxOverflowTimerList = &xActiveTimerList2;
  58              		.loc 1 942 4 is_stmt 1
 943:lib/freertos/src/timers.c **** 
 944:lib/freertos/src/timers.c **** 			#if( configSUPPORT_STATIC_ALLOCATION == 1 )
 945:lib/freertos/src/timers.c **** 			{
 946:lib/freertos/src/timers.c **** 				/* The timer queue is allocated statically in case
 947:lib/freertos/src/timers.c **** 				configSUPPORT_DYNAMIC_ALLOCATION is 0. */
 948:lib/freertos/src/timers.c **** 				static StaticQueue_t xStaticTimerQueue;
 949:lib/freertos/src/timers.c **** 				static uint8_t ucStaticTimerQueueStorage[ configTIMER_QUEUE_LENGTH * sizeof( DaemonTaskMessage_
 950:lib/freertos/src/timers.c **** 
 951:lib/freertos/src/timers.c **** 				xTimerQueue = xQueueCreateStatic( ( UBaseType_t ) configTIMER_QUEUE_LENGTH, sizeof( DaemonTaskM
 952:lib/freertos/src/timers.c **** 			}
 953:lib/freertos/src/timers.c **** 			#else
 954:lib/freertos/src/timers.c **** 			{
 955:lib/freertos/src/timers.c **** 				xTimerQueue = xQueueCreate( ( UBaseType_t ) configTIMER_QUEUE_LENGTH, sizeof( DaemonTaskMessage
  59              		.loc 1 955 19 is_stmt 0
  60 004e 0146     		li	a2,0
 942:lib/freertos/src/timers.c **** 			pxOverflowTimerList = &xActiveTimerList2;
  61              		.loc 1 942 24
  62 0050 B7070000 		lui	a5,%hi(.LANCHOR4)
  63              		.loc 1 955 19
  64 0054 C145     		li	a1,16
  65 0056 1545     		li	a0,5
GAS LISTING C:\Users\kasie\AppData\Local\Temp\cc3J3bHu.s 			page 19


 942:lib/freertos/src/timers.c **** 			pxOverflowTimerList = &xActiveTimerList2;
  66              		.loc 1 942 24
  67 0058 23A09700 		sw	s1,%lo(.LANCHOR4)(a5)
  68              		.loc 1 955 5 is_stmt 1
  69              		.loc 1 955 19 is_stmt 0
  70 005c 97000000 		call	xQueueGenericCreate
  70      E7800000 
  71              	.LVL3:
  72              		.loc 1 955 17
  73 0064 08C0     		sw	a0,0(s0)
 956:lib/freertos/src/timers.c **** 			}
 957:lib/freertos/src/timers.c **** 			#endif
 958:lib/freertos/src/timers.c **** 
 959:lib/freertos/src/timers.c **** 			#if ( configQUEUE_REGISTRY_SIZE > 0 )
 960:lib/freertos/src/timers.c **** 			{
 961:lib/freertos/src/timers.c **** 				if( xTimerQueue != NULL )
  74              		.loc 1 961 5 is_stmt 1
  75              		.loc 1 961 7 is_stmt 0
  76 0066 09C9     		beq	a0,zero,.L3
 962:lib/freertos/src/timers.c **** 				{
 963:lib/freertos/src/timers.c **** 					vQueueAddToRegistry( xTimerQueue, "TmrQ" );
  77              		.loc 1 963 6 is_stmt 1
  78 0068 B7050000 		lui	a1,%hi(.LC0)
  79 006c 93850500 		addi	a1,a1,%lo(.LC0)
  80 0070 97000000 		call	vQueueAddToRegistry
  80      E7800000 
  81              	.LVL4:
  82              	.L3:
 964:lib/freertos/src/timers.c **** 				}
 965:lib/freertos/src/timers.c **** 				else
 966:lib/freertos/src/timers.c **** 				{
 967:lib/freertos/src/timers.c **** 					mtCOVERAGE_TEST_MARKER();
 968:lib/freertos/src/timers.c **** 				}
 969:lib/freertos/src/timers.c **** 			}
 970:lib/freertos/src/timers.c **** 			#endif /* configQUEUE_REGISTRY_SIZE */
 971:lib/freertos/src/timers.c **** 		}
 972:lib/freertos/src/timers.c **** 		else
 973:lib/freertos/src/timers.c **** 		{
 974:lib/freertos/src/timers.c **** 			mtCOVERAGE_TEST_MARKER();
  83              		.loc 1 974 28
 975:lib/freertos/src/timers.c **** 		}
 976:lib/freertos/src/timers.c **** 	}
 977:lib/freertos/src/timers.c **** 	taskEXIT_CRITICAL();
  84              		.loc 1 977 2
 978:lib/freertos/src/timers.c **** }
  85              		.loc 1 978 1 is_stmt 0
  86 0078 2244     		lw	s0,8(sp)
  87              		.cfi_restore 8
  88 007a B240     		lw	ra,12(sp)
  89              		.cfi_restore 1
  90 007c 9244     		lw	s1,4(sp)
  91              		.cfi_restore 9
  92 007e 0249     		lw	s2,0(sp)
  93              		.cfi_restore 18
  94 0080 4101     		addi	sp,sp,16
  95              	.LCFI1:
  96              		.cfi_def_cfa_offset 0
GAS LISTING C:\Users\kasie\AppData\Local\Temp\cc3J3bHu.s 			page 20


 977:lib/freertos/src/timers.c **** }
  97              		.loc 1 977 2
  98 0082 17030000 		tail	vPortExitCritical
  98      67000300 
  99              	.LVL5:
 100              		.cfi_endproc
 101              	.LFE18:
 103              		.section	.text.prvInsertTimerInActiveList,"ax",@progbits
 104              		.align	1
 106              	prvInsertTimerInActiveList:
 107              	.LFB15:
 684:lib/freertos/src/timers.c **** BaseType_t xProcessTimerNow = pdFALSE;
 108              		.loc 1 684 1 is_stmt 1
 109              		.cfi_startproc
 110              	.LVL6:
 111 0000 4111     		addi	sp,sp,-16
 112              	.LCFI2:
 113              		.cfi_def_cfa_offset 16
 114 0002 06C6     		sw	ra,12(sp)
 115              		.cfi_offset 1, -4
 687:lib/freertos/src/timers.c **** 	listSET_LIST_ITEM_OWNER( &( pxTimer->xTimerListItem ), pxTimer );
 116              		.loc 1 687 2 is_stmt 0
 117 0004 4CC1     		sw	a1,4(a0)
 688:lib/freertos/src/timers.c **** 
 118              		.loc 1 688 2
 119 0006 08C9     		sw	a0,16(a0)
 684:lib/freertos/src/timers.c **** BaseType_t xProcessTimerNow = pdFALSE;
 120              		.loc 1 684 1
 121 0008 AA87     		mv	a5,a0
 685:lib/freertos/src/timers.c **** 
 122              		.loc 1 685 1 is_stmt 1
 123              	.LVL7:
 687:lib/freertos/src/timers.c **** 	listSET_LIST_ITEM_OWNER( &( pxTimer->xTimerListItem ), pxTimer );
 124              		.loc 1 687 2
 688:lib/freertos/src/timers.c **** 
 125              		.loc 1 688 2
 690:lib/freertos/src/timers.c **** 	{
 126              		.loc 1 690 2
 690:lib/freertos/src/timers.c **** 	{
 127              		.loc 1 690 4 is_stmt 0
 128 000a 6365B602 		bgtu	a1,a2,.L10
 694:lib/freertos/src/timers.c **** 		{
 129              		.loc 1 694 3 is_stmt 1
 694:lib/freertos/src/timers.c **** 		{
 130              		.loc 1 694 5 is_stmt 0
 131 000e 184D     		lw	a4,24(a0)
 694:lib/freertos/src/timers.c **** 		{
 132              		.loc 1 694 9
 133 0010 158E     		sub	a2,a2,a3
 134              	.LVL8:
 698:lib/freertos/src/timers.c **** 		}
 135              		.loc 1 698 21
 136 0012 0545     		li	a0,1
 137              	.LVL9:
 694:lib/freertos/src/timers.c **** 		{
 138              		.loc 1 694 5
 139 0014 637DE600 		bgeu	a2,a4,.L9
GAS LISTING C:\Users\kasie\AppData\Local\Temp\cc3J3bHu.s 			page 21


 140              	.LVL10:
 141              	.LBB4:
 142              	.LBB5:
 702:lib/freertos/src/timers.c **** 		}
 143              		.loc 1 702 4 is_stmt 1
 144 0018 93854700 		addi	a1,a5,4
 145              	.LVL11:
 146 001c B7070000 		lui	a5,%hi(.LANCHOR4)
 147              	.LVL12:
 148 0020 03A50700 		lw	a0,%lo(.LANCHOR4)(a5)
 149              	.LVL13:
 150              	.L16:
 151              	.LBE5:
 152              	.LBE4:
 716:lib/freertos/src/timers.c **** 		}
 153              		.loc 1 716 4 is_stmt 0
 154 0024 97000000 		call	vListInsert
 154      E7800000 
 155              	.LVL14:
 685:lib/freertos/src/timers.c **** 
 156              		.loc 1 685 12
 157 002c 0145     		li	a0,0
 158              	.L9:
 721:lib/freertos/src/timers.c **** /*-----------------------------------------------------------*/
 159              		.loc 1 721 1
 160 002e B240     		lw	ra,12(sp)
 161              		.cfi_remember_state
 162              		.cfi_restore 1
 163 0030 4101     		addi	sp,sp,16
 164              	.LCFI3:
 165              		.cfi_def_cfa_offset 0
 166 0032 8280     		jr	ra
 167              	.LVL15:
 168              	.L10:
 169              	.LCFI4:
 170              		.cfi_restore_state
 707:lib/freertos/src/timers.c **** 		{
 171              		.loc 1 707 3 is_stmt 1
 707:lib/freertos/src/timers.c **** 		{
 172              		.loc 1 707 5 is_stmt 0
 173 0034 6375D600 		bgeu	a2,a3,.L12
 698:lib/freertos/src/timers.c **** 		}
 174              		.loc 1 698 21 discriminator 1
 175 0038 0545     		li	a0,1
 176              	.LVL16:
 707:lib/freertos/src/timers.c **** 		{
 177              		.loc 1 707 35 discriminator 1
 178 003a E3FAD5FE 		bgeu	a1,a3,.L9
 179              	.L12:
 716:lib/freertos/src/timers.c **** 		}
 180              		.loc 1 716 4 is_stmt 1
 181 003e 93854700 		addi	a1,a5,4
 182              	.LVL17:
 183 0042 B7070000 		lui	a5,%hi(.LANCHOR3)
 184              	.LVL18:
 185 0046 03A50700 		lw	a0,%lo(.LANCHOR3)(a5)
 186 004a E9BF     		j	.L16
GAS LISTING C:\Users\kasie\AppData\Local\Temp\cc3J3bHu.s 			page 22


 187              		.cfi_endproc
 188              	.LFE15:
 190              		.section	.text.xTimerCreateTimerTask,"ax",@progbits
 191              		.align	1
 192              		.globl	xTimerCreateTimerTask
 194              	xTimerCreateTimerTask:
 195              	.LFB2:
 260:lib/freertos/src/timers.c **** BaseType_t xReturn = pdFAIL;
 196              		.loc 1 260 1
 197              		.cfi_startproc
 261:lib/freertos/src/timers.c **** 
 198              		.loc 1 261 1
 199              	.LVL19:
 267:lib/freertos/src/timers.c **** 
 200              		.loc 1 267 2
 260:lib/freertos/src/timers.c **** BaseType_t xReturn = pdFAIL;
 201              		.loc 1 260 1 is_stmt 0
 202 0000 4111     		addi	sp,sp,-16
 203              	.LCFI5:
 204              		.cfi_def_cfa_offset 16
 205 0002 06C6     		sw	ra,12(sp)
 206              		.cfi_offset 1, -4
 267:lib/freertos/src/timers.c **** 
 207              		.loc 1 267 2
 208 0004 97000000 		call	prvCheckForValidListAndQueue
 208      E7800000 
 209              	.LVL20:
 269:lib/freertos/src/timers.c **** 	{
 210              		.loc 1 269 2 is_stmt 1
 269:lib/freertos/src/timers.c **** 	{
 211              		.loc 1 269 4 is_stmt 0
 212 000c B7070000 		lui	a5,%hi(.LANCHOR0)
 213 0010 83A70700 		lw	a5,%lo(.LANCHOR0)(a5)
 214 0014 95C7     		beq	a5,zero,.L18
 293:lib/freertos/src/timers.c **** 									"Tmr Svc",
 215              		.loc 1 293 4 is_stmt 1
 293:lib/freertos/src/timers.c **** 									"Tmr Svc",
 216              		.loc 1 293 14 is_stmt 0
 217 0016 B7070000 		lui	a5,%hi(.LANCHOR5)
 218 001a B7050000 		lui	a1,%hi(.LC1)
 219 001e 37050000 		lui	a0,%hi(prvTimerTask)
 220 0022 93870700 		addi	a5,a5,%lo(.LANCHOR5)
 221 0026 0D47     		li	a4,3
 222 0028 8146     		li	a3,0
 223 002a 13060008 		li	a2,128
 224 002e 93850500 		addi	a1,a1,%lo(.LC1)
 225 0032 13050500 		addi	a0,a0,%lo(prvTimerTask)
 226 0036 97000000 		call	xTaskCreate
 226      E7800000 
 227              	.LVL21:
 304:lib/freertos/src/timers.c **** 	}
 228              		.loc 1 304 27 is_stmt 1
 307:lib/freertos/src/timers.c **** 	return xReturn;
 229              		.loc 1 307 2
 230 003e 01E5     		bne	a0,zero,.L17
 231              	.LVL22:
 232              	.L18:
GAS LISTING C:\Users\kasie\AppData\Local\Temp\cc3J3bHu.s 			page 23


 307:lib/freertos/src/timers.c **** 	return xReturn;
 233              		.loc 1 307 2 discriminator 3
 234              	.LBB6:
 307:lib/freertos/src/timers.c **** 	return xReturn;
 235              		.loc 1 307 2 discriminator 3
 307:lib/freertos/src/timers.c **** 	return xReturn;
 236              		.loc 1 307 2 discriminator 3
 307:lib/freertos/src/timers.c **** 	return xReturn;
 237              		.loc 1 307 2 discriminator 3
 238              	 #APP
 239              	# 307 "lib/freertos/src/timers.c" 1
 240              		csrrc a5, mstatus, 8
 241              	# 0 "" 2
 242              	.LVL23:
 307:lib/freertos/src/timers.c **** 	return xReturn;
 243              		.loc 1 307 2 discriminator 3
 244              	 #NO_APP
 245              	.L20:
 246              	.LBE6:
 307:lib/freertos/src/timers.c **** 	return xReturn;
 247              		.loc 1 307 2 discriminator 1
 307:lib/freertos/src/timers.c **** 	return xReturn;
 248              		.loc 1 307 2 discriminator 1
 307:lib/freertos/src/timers.c **** 	return xReturn;
 249              		.loc 1 307 2 discriminator 1
 250 0044 01A0     		j	.L20
 251              	.LVL24:
 252              	.L17:
 309:lib/freertos/src/timers.c **** /*-----------------------------------------------------------*/
 253              		.loc 1 309 1 is_stmt 0
 254 0046 B240     		lw	ra,12(sp)
 255              		.cfi_restore 1
 256 0048 4101     		addi	sp,sp,16
 257              	.LCFI6:
 258              		.cfi_def_cfa_offset 0
 259 004a 8280     		jr	ra
 260              		.cfi_endproc
 261              	.LFE2:
 263              		.section	.text.xTimerCreate,"ax",@progbits
 264              		.align	1
 265              		.globl	xTimerCreate
 267              	xTimerCreate:
 268              	.LFB3:
 319:lib/freertos/src/timers.c **** 	Timer_t *pxNewTimer;
 269              		.loc 1 319 2 is_stmt 1
 270              		.cfi_startproc
 271              	.LVL25:
 320:lib/freertos/src/timers.c **** 
 272              		.loc 1 320 2
 322:lib/freertos/src/timers.c **** 
 273              		.loc 1 322 3
 319:lib/freertos/src/timers.c **** 	Timer_t *pxNewTimer;
 274              		.loc 1 319 2 is_stmt 0
 275 0000 0111     		addi	sp,sp,-32
 276              	.LCFI7:
 277              		.cfi_def_cfa_offset 32
 278 0002 56C2     		sw	s5,4(sp)
GAS LISTING C:\Users\kasie\AppData\Local\Temp\cc3J3bHu.s 			page 24


 279              		.cfi_offset 21, -28
 280 0004 AA8A     		mv	s5,a0
 322:lib/freertos/src/timers.c **** 
 281              		.loc 1 322 30
 282 0006 1305C002 		li	a0,44
 283              	.LVL26:
 319:lib/freertos/src/timers.c **** 	Timer_t *pxNewTimer;
 284              		.loc 1 319 2
 285 000a 22CC     		sw	s0,24(sp)
 286 000c 26CA     		sw	s1,20(sp)
 287 000e 4AC8     		sw	s2,16(sp)
 288 0010 4EC6     		sw	s3,12(sp)
 289 0012 52C4     		sw	s4,8(sp)
 290 0014 06CE     		sw	ra,28(sp)
 291              		.cfi_offset 8, -8
 292              		.cfi_offset 9, -12
 293              		.cfi_offset 18, -16
 294              		.cfi_offset 19, -20
 295              		.cfi_offset 20, -24
 296              		.cfi_offset 1, -4
 319:lib/freertos/src/timers.c **** 	Timer_t *pxNewTimer;
 297              		.loc 1 319 2
 298 0016 AE84     		mv	s1,a1
 299 0018 328A     		mv	s4,a2
 300 001a B689     		mv	s3,a3
 301 001c 3A89     		mv	s2,a4
 322:lib/freertos/src/timers.c **** 
 302              		.loc 1 322 30
 303 001e 97000000 		call	pvPortMalloc
 303      E7800000 
 304              	.LVL27:
 305 0026 2A84     		mv	s0,a0
 306              	.LVL28:
 324:lib/freertos/src/timers.c **** 		{
 307              		.loc 1 324 3 is_stmt 1
 324:lib/freertos/src/timers.c **** 		{
 308              		.loc 1 324 5 is_stmt 0
 309 0028 05C9     		beq	a0,zero,.L25
 326:lib/freertos/src/timers.c **** 
 310              		.loc 1 326 4 is_stmt 1
 311              	.LVL29:
 312              	.LBB10:
 313              	.LBB11:
 396:lib/freertos/src/timers.c **** 
 314              		.loc 1 396 2
 315 002a 81E4     		bne	s1,zero,.L27
 396:lib/freertos/src/timers.c **** 
 316              		.loc 1 396 2
 317              	.LBB12:
 396:lib/freertos/src/timers.c **** 
 318              		.loc 1 396 2
 396:lib/freertos/src/timers.c **** 
 319              		.loc 1 396 2
 396:lib/freertos/src/timers.c **** 
 320              		.loc 1 396 2
 321              	 #APP
 322              	# 396 "lib/freertos/src/timers.c" 1
GAS LISTING C:\Users\kasie\AppData\Local\Temp\cc3J3bHu.s 			page 25


 323              		csrrc a5, mstatus, 8
 324              	# 0 "" 2
 325              	.LVL30:
 396:lib/freertos/src/timers.c **** 
 326              		.loc 1 396 2
 327              	 #NO_APP
 328              	.L28:
 329              	.LBE12:
 396:lib/freertos/src/timers.c **** 
 330              		.loc 1 396 2
 396:lib/freertos/src/timers.c **** 
 331              		.loc 1 396 2
 396:lib/freertos/src/timers.c **** 
 332              		.loc 1 396 2
 333 0030 01A0     		j	.L28
 334              	.L27:
 396:lib/freertos/src/timers.c **** 
 335              		.loc 1 396 45
 398:lib/freertos/src/timers.c **** 	{
 336              		.loc 1 398 2
 402:lib/freertos/src/timers.c **** 
 337              		.loc 1 402 3
 338 0032 97000000 		call	prvCheckForValidListAndQueue
 338      E7800000 
 339              	.LVL31:
 406:lib/freertos/src/timers.c **** 		pxNewTimer->xTimerPeriodInTicks = xTimerPeriodInTicks;
 340              		.loc 1 406 3
 411:lib/freertos/src/timers.c **** 		traceTIMER_CREATE( pxNewTimer );
 341              		.loc 1 411 3 is_stmt 0
 342 003a 13054400 		addi	a0,s0,4
 406:lib/freertos/src/timers.c **** 		pxNewTimer->xTimerPeriodInTicks = xTimerPeriodInTicks;
 343              		.loc 1 406 27
 344 003e 23205401 		sw	s5,0(s0)
 407:lib/freertos/src/timers.c **** 		pxNewTimer->uxAutoReload = uxAutoReload;
 345              		.loc 1 407 3 is_stmt 1
 407:lib/freertos/src/timers.c **** 		pxNewTimer->uxAutoReload = uxAutoReload;
 346              		.loc 1 407 35 is_stmt 0
 347 0042 04CC     		sw	s1,24(s0)
 408:lib/freertos/src/timers.c **** 		pxNewTimer->pvTimerID = pvTimerID;
 348              		.loc 1 408 3 is_stmt 1
 408:lib/freertos/src/timers.c **** 		pxNewTimer->pvTimerID = pvTimerID;
 349              		.loc 1 408 28 is_stmt 0
 350 0044 232E4401 		sw	s4,28(s0)
 409:lib/freertos/src/timers.c **** 		pxNewTimer->pxCallbackFunction = pxCallbackFunction;
 351              		.loc 1 409 3 is_stmt 1
 409:lib/freertos/src/timers.c **** 		pxNewTimer->pxCallbackFunction = pxCallbackFunction;
 352              		.loc 1 409 25 is_stmt 0
 353 0048 23203403 		sw	s3,32(s0)
 410:lib/freertos/src/timers.c **** 		vListInitialiseItem( &( pxNewTimer->xTimerListItem ) );
 354              		.loc 1 410 3 is_stmt 1
 410:lib/freertos/src/timers.c **** 		vListInitialiseItem( &( pxNewTimer->xTimerListItem ) );
 355              		.loc 1 410 34 is_stmt 0
 356 004c 23222403 		sw	s2,36(s0)
 411:lib/freertos/src/timers.c **** 		traceTIMER_CREATE( pxNewTimer );
 357              		.loc 1 411 3 is_stmt 1
 358 0050 97000000 		call	vListInitialiseItem
 358      E7800000 
GAS LISTING C:\Users\kasie\AppData\Local\Temp\cc3J3bHu.s 			page 26


 359              	.LVL32:
 360              	.LBE11:
 361              	.LBE10:
 338:lib/freertos/src/timers.c **** 	}
 362              		.loc 1 338 3
 363              	.L25:
 339:lib/freertos/src/timers.c **** 
 364              		.loc 1 339 2 is_stmt 0
 365 0058 2285     		mv	a0,s0
 366 005a F240     		lw	ra,28(sp)
 367              		.cfi_restore 1
 368 005c 6244     		lw	s0,24(sp)
 369              		.cfi_restore 8
 370              	.LVL33:
 371 005e D244     		lw	s1,20(sp)
 372              		.cfi_restore 9
 373              	.LVL34:
 374 0060 4249     		lw	s2,16(sp)
 375              		.cfi_restore 18
 376              	.LVL35:
 377 0062 B249     		lw	s3,12(sp)
 378              		.cfi_restore 19
 379              	.LVL36:
 380 0064 224A     		lw	s4,8(sp)
 381              		.cfi_restore 20
 382              	.LVL37:
 383 0066 924A     		lw	s5,4(sp)
 384              		.cfi_restore 21
 385              	.LVL38:
 386 0068 0561     		addi	sp,sp,32
 387              	.LCFI8:
 388              		.cfi_def_cfa_offset 0
 389 006a 8280     		jr	ra
 390              		.cfi_endproc
 391              	.LFE3:
 393              		.section	.text.xTimerGenericCommand,"ax",@progbits
 394              		.align	1
 395              		.globl	xTimerGenericCommand
 397              	xTimerGenericCommand:
 398              	.LFB5:
 418:lib/freertos/src/timers.c **** BaseType_t xReturn = pdFAIL;
 399              		.loc 1 418 1 is_stmt 1
 400              		.cfi_startproc
 401              	.LVL39:
 419:lib/freertos/src/timers.c **** DaemonTaskMessage_t xMessage;
 402              		.loc 1 419 1
 420:lib/freertos/src/timers.c **** 
 403              		.loc 1 420 1
 422:lib/freertos/src/timers.c **** 
 404              		.loc 1 422 2
 405 0000 01E5     		bne	a0,zero,.L34
 422:lib/freertos/src/timers.c **** 
 406              		.loc 1 422 2 discriminator 3
 407              	.LBB13:
 422:lib/freertos/src/timers.c **** 
 408              		.loc 1 422 2 discriminator 3
 422:lib/freertos/src/timers.c **** 
GAS LISTING C:\Users\kasie\AppData\Local\Temp\cc3J3bHu.s 			page 27


 409              		.loc 1 422 2 discriminator 3
 422:lib/freertos/src/timers.c **** 
 410              		.loc 1 422 2 discriminator 3
 411              	 #APP
 412              	# 422 "lib/freertos/src/timers.c" 1
 413              		csrrc a5, mstatus, 8
 414              	# 0 "" 2
 415              	.LVL40:
 422:lib/freertos/src/timers.c **** 
 416              		.loc 1 422 2 discriminator 3
 417              	 #NO_APP
 418              	.L35:
 419              	.LBE13:
 422:lib/freertos/src/timers.c **** 
 420              		.loc 1 422 2 discriminator 1
 422:lib/freertos/src/timers.c **** 
 421              		.loc 1 422 2 discriminator 1
 422:lib/freertos/src/timers.c **** 
 422              		.loc 1 422 2 discriminator 1
 423 0006 01A0     		j	.L35
 424              	.L34:
 418:lib/freertos/src/timers.c **** BaseType_t xReturn = pdFAIL;
 425              		.loc 1 418 1 is_stmt 0 discriminator 2
 426 0008 0111     		addi	sp,sp,-32
 427              	.LCFI9:
 428              		.cfi_def_cfa_offset 32
 429 000a 22CC     		sw	s0,24(sp)
 430              		.cfi_offset 8, -8
 426:lib/freertos/src/timers.c **** 	{
 431              		.loc 1 426 18 discriminator 2
 432 000c 37040000 		lui	s0,%hi(.LANCHOR0)
 433 0010 13040400 		addi	s0,s0,%lo(.LANCHOR0)
 434 0014 83280400 		lw	a7,0(s0)
 418:lib/freertos/src/timers.c **** BaseType_t xReturn = pdFAIL;
 435              		.loc 1 418 1 discriminator 2
 436 0018 06CE     		sw	ra,28(sp)
 437 001a 26CA     		sw	s1,20(sp)
 438              		.cfi_offset 1, -4
 439              		.cfi_offset 9, -12
 440 001c AA87     		mv	a5,a0
 422:lib/freertos/src/timers.c **** 
 441              		.loc 1 422 24 is_stmt 1 discriminator 2
 426:lib/freertos/src/timers.c **** 	{
 442              		.loc 1 426 2 discriminator 2
 419:lib/freertos/src/timers.c **** DaemonTaskMessage_t xMessage;
 443              		.loc 1 419 12 is_stmt 0 discriminator 2
 444 001e 0145     		li	a0,0
 445              	.LVL41:
 426:lib/freertos/src/timers.c **** 	{
 446              		.loc 1 426 4 discriminator 2
 447 0020 638A0802 		beq	a7,zero,.L33
 431:lib/freertos/src/timers.c **** 
 448              		.loc 1 431 39
 449 0024 3EC4     		sw	a5,8(sp)
 429:lib/freertos/src/timers.c **** 		xMessage.u.xTimerParameters.xMessageValue = xOptionalValue;
 450              		.loc 1 429 23
 451 0026 2EC0     		sw	a1,0(sp)
GAS LISTING C:\Users\kasie\AppData\Local\Temp\cc3J3bHu.s 			page 28


 430:lib/freertos/src/timers.c **** 		xMessage.u.xTimerParameters.pxTimer = ( Timer_t * ) xTimer;
 452              		.loc 1 430 45
 453 0028 32C2     		sw	a2,4(sp)
 433:lib/freertos/src/timers.c **** 		{
 454              		.loc 1 433 5
 455 002a 9547     		li	a5,5
 456              	.LVL42:
 457 002c BA84     		mv	s1,a4
 458 002e 3688     		mv	a6,a3
 429:lib/freertos/src/timers.c **** 		xMessage.u.xTimerParameters.xMessageValue = xOptionalValue;
 459              		.loc 1 429 3 is_stmt 1
 430:lib/freertos/src/timers.c **** 		xMessage.u.xTimerParameters.pxTimer = ( Timer_t * ) xTimer;
 460              		.loc 1 430 3
 431:lib/freertos/src/timers.c **** 
 461              		.loc 1 431 3
 433:lib/freertos/src/timers.c **** 		{
 462              		.loc 1 433 3
 433:lib/freertos/src/timers.c **** 		{
 463              		.loc 1 433 5 is_stmt 0
 464 0030 63C7B702 		bgt	a1,a5,.L37
 465              	.LVL43:
 435:lib/freertos/src/timers.c **** 			{
 466              		.loc 1 435 4 is_stmt 1
 435:lib/freertos/src/timers.c **** 			{
 467              		.loc 1 435 8 is_stmt 0
 468 0034 97000000 		call	xTaskGetSchedulerState
 468      E7800000 
 469              	.LVL44:
 435:lib/freertos/src/timers.c **** 			{
 470              		.loc 1 435 6
 471 003c 8947     		li	a5,2
 437:lib/freertos/src/timers.c **** 			}
 472              		.loc 1 437 15
 473 003e 8146     		li	a3,0
 474 0040 2686     		mv	a2,s1
 435:lib/freertos/src/timers.c **** 			{
 475              		.loc 1 435 6
 476 0042 6303F500 		beq	a0,a5,.L42
 441:lib/freertos/src/timers.c **** 			}
 477              		.loc 1 441 5 is_stmt 1
 441:lib/freertos/src/timers.c **** 			}
 478              		.loc 1 441 15 is_stmt 0
 479 0046 0146     		li	a2,0
 480              	.L42:
 481 0048 0840     		lw	a0,0(s0)
 482 004a 8A85     		mv	a1,sp
 483 004c 97000000 		call	xQueueGenericSend
 483      E7800000 
 484              	.LVL45:
 485              	.L33:
 457:lib/freertos/src/timers.c **** /*-----------------------------------------------------------*/
 486              		.loc 1 457 1
 487 0054 F240     		lw	ra,28(sp)
 488              		.cfi_remember_state
 489              		.cfi_restore 1
 490 0056 6244     		lw	s0,24(sp)
 491              		.cfi_restore 8
GAS LISTING C:\Users\kasie\AppData\Local\Temp\cc3J3bHu.s 			page 29


 492 0058 D244     		lw	s1,20(sp)
 493              		.cfi_restore 9
 494 005a 0561     		addi	sp,sp,32
 495              	.LCFI10:
 496              		.cfi_def_cfa_offset 0
 497 005c 8280     		jr	ra
 498              	.LVL46:
 499              	.L37:
 500              	.LCFI11:
 501              		.cfi_restore_state
 446:lib/freertos/src/timers.c **** 		}
 502              		.loc 1 446 4 is_stmt 1
 446:lib/freertos/src/timers.c **** 		}
 503              		.loc 1 446 14 is_stmt 0
 504 005e 8146     		li	a3,0
 505              	.LVL47:
 506 0060 4286     		mv	a2,a6
 507              	.LVL48:
 508 0062 8A85     		mv	a1,sp
 509              	.LVL49:
 510 0064 4685     		mv	a0,a7
 511 0066 97000000 		call	xQueueGenericSendFromISR
 511      E7800000 
 512              	.LVL50:
 513 006e DDB7     		j	.L33
 514              		.cfi_endproc
 515              	.LFE5:
 517              		.section	.text.prvSwitchTimerLists,"ax",@progbits
 518              		.align	1
 520              	prvSwitchTimerLists:
 521              	.LFB17:
 872:lib/freertos/src/timers.c **** TickType_t xNextExpireTime, xReloadTime;
 522              		.loc 1 872 1 is_stmt 1
 523              		.cfi_startproc
 873:lib/freertos/src/timers.c **** List_t *pxTemp;
 524              		.loc 1 873 1
 874:lib/freertos/src/timers.c **** Timer_t *pxTimer;
 525              		.loc 1 874 1
 875:lib/freertos/src/timers.c **** BaseType_t xResult;
 526              		.loc 1 875 1
 876:lib/freertos/src/timers.c **** 
 527              		.loc 1 876 1
 882:lib/freertos/src/timers.c **** 	{
 528              		.loc 1 882 2
 872:lib/freertos/src/timers.c **** TickType_t xNextExpireTime, xReloadTime;
 529              		.loc 1 872 1 is_stmt 0
 530 0000 7971     		addi	sp,sp,-48
 531              	.LCFI12:
 532              		.cfi_def_cfa_offset 48
 533 0002 4AD0     		sw	s2,32(sp)
 534 0004 4ECE     		sw	s3,28(sp)
 535 0006 06D6     		sw	ra,44(sp)
 536 0008 22D4     		sw	s0,40(sp)
 537 000a 26D2     		sw	s1,36(sp)
 538              		.cfi_offset 18, -16
 539              		.cfi_offset 19, -20
 540              		.cfi_offset 1, -4
GAS LISTING C:\Users\kasie\AppData\Local\Temp\cc3J3bHu.s 			page 30


 541              		.cfi_offset 8, -8
 542              		.cfi_offset 9, -12
 882:lib/freertos/src/timers.c **** 	{
 543              		.loc 1 882 9
 544 000c 37090000 		lui	s2,%hi(.LANCHOR3)
 896:lib/freertos/src/timers.c **** 		{
 545              		.loc 1 896 5
 546 0010 8549     		li	s3,1
 547              	.L45:
 920:lib/freertos/src/timers.c **** 		}
 548              		.loc 1 920 28 is_stmt 1
 882:lib/freertos/src/timers.c **** 	{
 549              		.loc 1 882 9 is_stmt 0
 550 0012 93040900 		addi	s1,s2,%lo(.LANCHOR3)
 551 0016 9840     		lw	a4,0(s1)
 882:lib/freertos/src/timers.c **** 	{
 552              		.loc 1 882 7
 553 0018 1C43     		lw	a5,0(a4)
 554 001a 99EF     		bne	a5,zero,.L49
 924:lib/freertos/src/timers.c **** 	pxCurrentTimerList = pxOverflowTimerList;
 555              		.loc 1 924 2 is_stmt 1
 556              	.LVL51:
 925:lib/freertos/src/timers.c **** 	pxOverflowTimerList = pxTemp;
 557              		.loc 1 925 2
 925:lib/freertos/src/timers.c **** 	pxOverflowTimerList = pxTemp;
 558              		.loc 1 925 21 is_stmt 0
 559 001c B7070000 		lui	a5,%hi(.LANCHOR4)
 560 0020 93870700 		addi	a5,a5,%lo(.LANCHOR4)
 561 0024 9443     		lw	a3,0(a5)
 927:lib/freertos/src/timers.c **** /*-----------------------------------------------------------*/
 562              		.loc 1 927 1
 563 0026 B250     		lw	ra,44(sp)
 564              		.cfi_remember_state
 565              		.cfi_restore 1
 566 0028 2254     		lw	s0,40(sp)
 567              		.cfi_restore 8
 925:lib/freertos/src/timers.c **** 	pxOverflowTimerList = pxTemp;
 568              		.loc 1 925 21
 569 002a 94C0     		sw	a3,0(s1)
 926:lib/freertos/src/timers.c **** }
 570              		.loc 1 926 2 is_stmt 1
 926:lib/freertos/src/timers.c **** }
 571              		.loc 1 926 22 is_stmt 0
 572 002c 98C3     		sw	a4,0(a5)
 927:lib/freertos/src/timers.c **** /*-----------------------------------------------------------*/
 573              		.loc 1 927 1
 574 002e 9254     		lw	s1,36(sp)
 575              		.cfi_restore 9
 576 0030 0259     		lw	s2,32(sp)
 577              		.cfi_restore 18
 578 0032 F249     		lw	s3,28(sp)
 579              		.cfi_restore 19
 580 0034 4561     		addi	sp,sp,48
 581              	.LCFI13:
 582              		.cfi_def_cfa_offset 0
 583 0036 8280     		jr	ra
 584              	.LVL52:
GAS LISTING C:\Users\kasie\AppData\Local\Temp\cc3J3bHu.s 			page 31


 585              	.L49:
 586              	.LCFI14:
 587              		.cfi_restore_state
 884:lib/freertos/src/timers.c **** 
 588              		.loc 1 884 3 is_stmt 1
 884:lib/freertos/src/timers.c **** 
 589              		.loc 1 884 21 is_stmt 0
 590 0038 5C47     		lw	a5,12(a4)
 887:lib/freertos/src/timers.c **** 		( void ) uxListRemove( &( pxTimer->xTimerListItem ) );
 591              		.loc 1 887 11
 592 003a C047     		lw	s0,12(a5)
 884:lib/freertos/src/timers.c **** 
 593              		.loc 1 884 19
 594 003c 9043     		lw	a2,0(a5)
 888:lib/freertos/src/timers.c **** 		traceTIMER_EXPIRED( pxTimer );
 595              		.loc 1 888 12
 596 003e 93054400 		addi	a1,s0,4
 597 0042 2E85     		mv	a0,a1
 884:lib/freertos/src/timers.c **** 
 598              		.loc 1 884 19
 599 0044 32C6     		sw	a2,12(sp)
 600              	.LVL53:
 887:lib/freertos/src/timers.c **** 		( void ) uxListRemove( &( pxTimer->xTimerListItem ) );
 601              		.loc 1 887 3 is_stmt 1
 888:lib/freertos/src/timers.c **** 		traceTIMER_EXPIRED( pxTimer );
 602              		.loc 1 888 3
 888:lib/freertos/src/timers.c **** 		traceTIMER_EXPIRED( pxTimer );
 603              		.loc 1 888 12 is_stmt 0
 604 0046 2EC4     		sw	a1,8(sp)
 605 0048 97000000 		call	uxListRemove
 605      E7800000 
 606              	.LVL54:
 889:lib/freertos/src/timers.c **** 
 607              		.loc 1 889 32 is_stmt 1
 894:lib/freertos/src/timers.c **** 
 608              		.loc 1 894 3
 609 0050 5C50     		lw	a5,36(s0)
 610 0052 2285     		mv	a0,s0
 611 0054 8297     		jalr	a5
 612              	.LVL55:
 896:lib/freertos/src/timers.c **** 		{
 613              		.loc 1 896 3
 896:lib/freertos/src/timers.c **** 		{
 614              		.loc 1 896 5 is_stmt 0
 615 0056 5C4C     		lw	a5,28(s0)
 616 0058 A245     		lw	a1,8(sp)
 617 005a 3246     		lw	a2,12(sp)
 618 005c E39B37FB 		bne	a5,s3,.L45
 904:lib/freertos/src/timers.c **** 			if( xReloadTime > xNextExpireTime )
 619              		.loc 1 904 4 is_stmt 1
 904:lib/freertos/src/timers.c **** 			if( xReloadTime > xNextExpireTime )
 620              		.loc 1 904 16 is_stmt 0
 621 0060 1C4C     		lw	a5,24(s0)
 622 0062 B297     		add	a5,a2,a5
 623              	.LVL56:
 905:lib/freertos/src/timers.c **** 			{
 624              		.loc 1 905 4 is_stmt 1
GAS LISTING C:\Users\kasie\AppData\Local\Temp\cc3J3bHu.s 			page 32


 905:lib/freertos/src/timers.c **** 			{
 625              		.loc 1 905 6 is_stmt 0
 626 0064 637AF600 		bgeu	a2,a5,.L46
 907:lib/freertos/src/timers.c **** 				listSET_LIST_ITEM_OWNER( &( pxTimer->xTimerListItem ), pxTimer );
 627              		.loc 1 907 5 is_stmt 1
 909:lib/freertos/src/timers.c **** 			}
 628              		.loc 1 909 5 is_stmt 0
 629 0068 8840     		lw	a0,0(s1)
 907:lib/freertos/src/timers.c **** 				listSET_LIST_ITEM_OWNER( &( pxTimer->xTimerListItem ), pxTimer );
 630              		.loc 1 907 5
 631 006a 5CC0     		sw	a5,4(s0)
 908:lib/freertos/src/timers.c **** 				vListInsert( pxCurrentTimerList, &( pxTimer->xTimerListItem ) );
 632              		.loc 1 908 5 is_stmt 1
 633 006c 00C8     		sw	s0,16(s0)
 909:lib/freertos/src/timers.c **** 			}
 634              		.loc 1 909 5
 635 006e 97000000 		call	vListInsert
 635      E7800000 
 636              	.LVL57:
 637 0076 71BF     		j	.L45
 638              	.LVL58:
 639              	.L46:
 913:lib/freertos/src/timers.c **** 				configASSERT( xResult );
 640              		.loc 1 913 5
 913:lib/freertos/src/timers.c **** 				configASSERT( xResult );
 641              		.loc 1 913 15 is_stmt 0
 642 0078 0147     		li	a4,0
 643 007a 8146     		li	a3,0
 644 007c 8145     		li	a1,0
 645 007e 2285     		mv	a0,s0
 646 0080 97000000 		call	xTimerGenericCommand
 646      E7800000 
 647              	.LVL59:
 914:lib/freertos/src/timers.c **** 				( void ) xResult;
 648              		.loc 1 914 5 is_stmt 1
 649 0088 49F5     		bne	a0,zero,.L45
 914:lib/freertos/src/timers.c **** 				( void ) xResult;
 650              		.loc 1 914 5 discriminator 3
 651              	.LBB14:
 914:lib/freertos/src/timers.c **** 				( void ) xResult;
 652              		.loc 1 914 5 discriminator 3
 914:lib/freertos/src/timers.c **** 				( void ) xResult;
 653              		.loc 1 914 5 discriminator 3
 914:lib/freertos/src/timers.c **** 				( void ) xResult;
 654              		.loc 1 914 5 discriminator 3
 655              	 #APP
 656              	# 914 "lib/freertos/src/timers.c" 1
 657              		csrrc a5, mstatus, 8
 658              	# 0 "" 2
 659              	.LVL60:
 914:lib/freertos/src/timers.c **** 				( void ) xResult;
 660              		.loc 1 914 5 discriminator 3
 661              	 #NO_APP
 662              	.L48:
 663              	.LBE14:
 914:lib/freertos/src/timers.c **** 				( void ) xResult;
 664              		.loc 1 914 5 discriminator 1
GAS LISTING C:\Users\kasie\AppData\Local\Temp\cc3J3bHu.s 			page 33


 914:lib/freertos/src/timers.c **** 				( void ) xResult;
 665              		.loc 1 914 5 discriminator 1
 914:lib/freertos/src/timers.c **** 				( void ) xResult;
 666              		.loc 1 914 5 discriminator 1
 667 008e 01A0     		j	.L48
 668              		.cfi_endproc
 669              	.LFE17:
 671              		.section	.text.prvTimerTask,"ax",@progbits
 672              		.align	1
 674              	prvTimerTask:
 675              	.LFB11:
 539:lib/freertos/src/timers.c **** TickType_t xNextExpireTime;
 676              		.loc 1 539 1
 677              		.cfi_startproc
 678              	.LVL61:
 679 0000 5D71     		addi	sp,sp,-80
 680              	.LCFI15:
 681              		.cfi_def_cfa_offset 80
 682 0002 4EDE     		sw	s3,60(sp)
 683 0004 52DC     		sw	s4,56(sp)
 684 0006 56DA     		sw	s5,52(sp)
 685 0008 5AD8     		sw	s6,48(sp)
 686 000a 5ED6     		sw	s7,44(sp)
 687 000c 86C6     		sw	ra,76(sp)
 688 000e A2C4     		sw	s0,72(sp)
 689 0010 A6C2     		sw	s1,68(sp)
 690 0012 CAC0     		sw	s2,64(sp)
 691 0014 62D4     		sw	s8,40(sp)
 692 0016 66D2     		sw	s9,36(sp)
 693              		.cfi_offset 19, -20
 694              		.cfi_offset 20, -24
 695              		.cfi_offset 21, -28
 696              		.cfi_offset 22, -32
 697              		.cfi_offset 23, -36
 698              		.cfi_offset 1, -4
 699              		.cfi_offset 8, -8
 700              		.cfi_offset 9, -12
 701              		.cfi_offset 18, -16
 702              		.cfi_offset 24, -40
 703              		.cfi_offset 25, -44
 704              	.LBB32:
 705              	.LBB33:
 645:lib/freertos/src/timers.c **** 	if( *pxListWasEmpty == pdFALSE )
 706              		.loc 1 645 20 is_stmt 0
 707 0018 B7090000 		lui	s3,%hi(.LANCHOR3)
 708              	.LBE33:
 709              	.LBE32:
 710              	.LBB35:
 711              	.LBB36:
 712              	.LBB37:
 713              	.LBB38:
 667:lib/freertos/src/timers.c **** 	{
 714              		.loc 1 667 15
 715 001c 370A0000 		lui	s4,%hi(.LANCHOR6)
 716              	.LBE38:
 717              	.LBE37:
 610:lib/freertos/src/timers.c **** 
GAS LISTING C:\Users\kasie\AppData\Local\Temp\cc3J3bHu.s 			page 34


 718              		.loc 1 610 5
 719 0020 B70A0000 		lui	s5,%hi(.LANCHOR0)
 607:lib/freertos/src/timers.c **** 				}
 720              		.loc 1 607 22
 721 0024 370B0000 		lui	s6,%hi(.LANCHOR4)
 722 0028 A54B     		li	s7,9
 723              	.LVL62:
 724              	.L78:
 725              	.LBE36:
 726              	.LBE35:
 540:lib/freertos/src/timers.c **** BaseType_t xListWasEmpty;
 727              		.loc 1 540 1 is_stmt 1 discriminator 1
 541:lib/freertos/src/timers.c **** 
 728              		.loc 1 541 1 discriminator 1
 544:lib/freertos/src/timers.c **** 
 729              		.loc 1 544 2 discriminator 1
 558:lib/freertos/src/timers.c **** 	{
 730              		.loc 1 558 2 discriminator 1
 562:lib/freertos/src/timers.c **** 
 731              		.loc 1 562 3 discriminator 1
 732              	.LBB49:
 733              	.LBB34:
 636:lib/freertos/src/timers.c **** 
 734              		.loc 1 636 1 discriminator 1
 645:lib/freertos/src/timers.c **** 	if( *pxListWasEmpty == pdFALSE )
 735              		.loc 1 645 2 discriminator 1
 645:lib/freertos/src/timers.c **** 	if( *pxListWasEmpty == pdFALSE )
 736              		.loc 1 645 20 is_stmt 0 discriminator 1
 737 002a 83A70900 		lw	a5,%lo(.LANCHOR3)(s3)
 738 002e 938C0900 		addi	s9,s3,%lo(.LANCHOR3)
 653:lib/freertos/src/timers.c **** 	}
 739              		.loc 1 653 19 discriminator 1
 740 0032 014C     		li	s8,0
 645:lib/freertos/src/timers.c **** 	if( *pxListWasEmpty == pdFALSE )
 741              		.loc 1 645 20 discriminator 1
 742 0034 8043     		lw	s0,0(a5)
 743              	.LVL63:
 646:lib/freertos/src/timers.c **** 	{
 744              		.loc 1 646 2 is_stmt 1 discriminator 1
 646:lib/freertos/src/timers.c **** 	{
 745              		.loc 1 646 4 is_stmt 0 discriminator 1
 746 0036 01C4     		beq	s0,zero,.L53
 648:lib/freertos/src/timers.c **** 	}
 747              		.loc 1 648 3 is_stmt 1
 648:lib/freertos/src/timers.c **** 	}
 748              		.loc 1 648 19 is_stmt 0
 749 0038 DC47     		lw	a5,12(a5)
 750 003a 03AC0700 		lw	s8,0(a5)
 751              	.LVL64:
 752              	.L53:
 656:lib/freertos/src/timers.c **** }
 753              		.loc 1 656 2 is_stmt 1
 754              	.LBE34:
 755              	.LBE49:
 566:lib/freertos/src/timers.c **** 
 756              		.loc 1 566 3
 757              	.LBB50:
GAS LISTING C:\Users\kasie\AppData\Local\Temp\cc3J3bHu.s 			page 35


 758              	.LBB47:
 576:lib/freertos/src/timers.c **** BaseType_t xTimerListsWereSwitched;
 759              		.loc 1 576 1
 577:lib/freertos/src/timers.c **** 
 760              		.loc 1 577 1
 579:lib/freertos/src/timers.c **** 	{
 761              		.loc 1 579 2
 762 003e 97000000 		call	vTaskSuspendAll
 762      E7800000 
 763              	.LVL65:
 586:lib/freertos/src/timers.c **** 		if( xTimerListsWereSwitched == pdFALSE )
 764              		.loc 1 586 3
 765              	.LBB41:
 766              	.LBB39:
 662:lib/freertos/src/timers.c **** PRIVILEGED_DATA static TickType_t xLastTime = ( TickType_t ) 0U; /*lint !e956 Variable is only acce
 767              		.loc 1 662 1
 663:lib/freertos/src/timers.c **** 
 768              		.loc 1 663 17
 665:lib/freertos/src/timers.c **** 
 769              		.loc 1 665 2
 665:lib/freertos/src/timers.c **** 
 770              		.loc 1 665 13 is_stmt 0
 771 0046 97000000 		call	xTaskGetTickCount
 771      E7800000 
 772              	.LVL66:
 667:lib/freertos/src/timers.c **** 	{
 773              		.loc 1 667 15
 774 004e 93070A00 		addi	a5,s4,%lo(.LANCHOR6)
 667:lib/freertos/src/timers.c **** 	{
 775              		.loc 1 667 4
 776 0052 9843     		lw	a4,0(a5)
 665:lib/freertos/src/timers.c **** 
 777              		.loc 1 665 13
 778 0054 AA84     		mv	s1,a0
 779              	.LVL67:
 667:lib/freertos/src/timers.c **** 	{
 780              		.loc 1 667 2 is_stmt 1
 781 0056 13090A00 		addi	s2,s4,%lo(.LANCHOR6)
 667:lib/freertos/src/timers.c **** 	{
 782              		.loc 1 667 4 is_stmt 0
 783 005a 6375E508 		bgeu	a0,a4,.L54
 669:lib/freertos/src/timers.c **** 		*pxTimerListsWereSwitched = pdTRUE;
 784              		.loc 1 669 3 is_stmt 1
 785 005e 97000000 		call	prvSwitchTimerLists
 785      E7800000 
 786              	.LVL68:
 670:lib/freertos/src/timers.c **** 	}
 787              		.loc 1 670 3
 677:lib/freertos/src/timers.c **** 
 788              		.loc 1 677 2
 677:lib/freertos/src/timers.c **** 
 789              		.loc 1 677 12 is_stmt 0
 790 0066 23209900 		sw	s1,0(s2)
 679:lib/freertos/src/timers.c **** }
 791              		.loc 1 679 2 is_stmt 1
 792              	.LVL69:
 793              	.LBE39:
GAS LISTING C:\Users\kasie\AppData\Local\Temp\cc3J3bHu.s 			page 36


 794              	.LBE41:
 587:lib/freertos/src/timers.c **** 		{
 795              		.loc 1 587 3
 628:lib/freertos/src/timers.c **** 		}
 796              		.loc 1 628 4
 628:lib/freertos/src/timers.c **** 		}
 797              		.loc 1 628 13 is_stmt 0
 798 006a 97000000 		call	xTaskResumeAll
 798      E7800000 
 799              	.LVL70:
 800              	.L55:
 801 0072 8544     		li	s1,1
 802              	.LVL71:
 803 0074 054C     		li	s8,1
 804              	.LVL72:
 805              	.L65:
 806              	.LBE47:
 807              	.LBE50:
 808              	.LBB51:
 809              	.LBB52:
 731:lib/freertos/src/timers.c **** 	{
 810              		.loc 1 731 9
 811 0076 03A50A00 		lw	a0,%lo(.LANCHOR0)(s5)
 812 007a 8146     		li	a3,0
 813 007c 0146     		li	a2,0
 814 007e 0C08     		addi	a1,sp,16
 815 0080 97000000 		call	xQueueGenericReceive
 815      E7800000 
 816              	.LVL73:
 731:lib/freertos/src/timers.c **** 	{
 817              		.loc 1 731 7
 818 0088 4DD1     		beq	a0,zero,.L78
 737:lib/freertos/src/timers.c **** 			{
 819              		.loc 1 737 4 is_stmt 1
 737:lib/freertos/src/timers.c **** 			{
 820              		.loc 1 737 6 is_stmt 0
 821 008a C247     		lw	a5,16(sp)
 822 008c 6245     		lw	a0,24(sp)
 823 008e 63C4070E 		blt	a5,zero,.L61
 824              	.L64:
 761:lib/freertos/src/timers.c **** 
 825              		.loc 1 761 4 is_stmt 1
 761:lib/freertos/src/timers.c **** 
 826              		.loc 1 761 12 is_stmt 0
 827 0092 6244     		lw	s0,24(sp)
 828              	.LVL74:
 763:lib/freertos/src/timers.c **** 			{
 829              		.loc 1 763 4 is_stmt 1
 763:lib/freertos/src/timers.c **** 			{
 830              		.loc 1 763 6 is_stmt 0
 831 0094 5C48     		lw	a5,20(s0)
 832 0096 FDE7     		bne	a5,zero,.L62
 833              	.L63:
 770:lib/freertos/src/timers.c **** 			}
 834              		.loc 1 770 29 is_stmt 1
 773:lib/freertos/src/timers.c **** 
 835              		.loc 1 773 106
GAS LISTING C:\Users\kasie\AppData\Local\Temp\cc3J3bHu.s 			page 37


 781:lib/freertos/src/timers.c **** 
 836              		.loc 1 781 4
 837              	.LVL75:
 838              	.LBB53:
 839              	.LBB54:
 662:lib/freertos/src/timers.c **** PRIVILEGED_DATA static TickType_t xLastTime = ( TickType_t ) 0U; /*lint !e956 Variable is only acce
 840              		.loc 1 662 1
 663:lib/freertos/src/timers.c **** 
 841              		.loc 1 663 17
 665:lib/freertos/src/timers.c **** 
 842              		.loc 1 665 2
 665:lib/freertos/src/timers.c **** 
 843              		.loc 1 665 13 is_stmt 0
 844 0098 97000000 		call	xTaskGetTickCount
 844      E7800000 
 845              	.LVL76:
 667:lib/freertos/src/timers.c **** 	{
 846              		.loc 1 667 4
 847 00a0 83270900 		lw	a5,0(s2)
 665:lib/freertos/src/timers.c **** 
 848              		.loc 1 665 13
 849 00a4 2A86     		mv	a2,a0
 850              	.LVL77:
 667:lib/freertos/src/timers.c **** 	{
 851              		.loc 1 667 2 is_stmt 1
 667:lib/freertos/src/timers.c **** 	{
 852              		.loc 1 667 4 is_stmt 0
 853 00a6 6378F500 		bgeu	a0,a5,.L66
 854 00aa 2AC6     		sw	a0,12(sp)
 669:lib/freertos/src/timers.c **** 		*pxTimerListsWereSwitched = pdTRUE;
 855              		.loc 1 669 3 is_stmt 1
 856 00ac 97000000 		call	prvSwitchTimerLists
 856      E7800000 
 857              	.LVL78:
 858 00b4 3246     		lw	a2,12(sp)
 670:lib/freertos/src/timers.c **** 	}
 859              		.loc 1 670 3
 860              	.LVL79:
 861              	.L66:
 677:lib/freertos/src/timers.c **** 
 862              		.loc 1 677 2
 863 00b6 C247     		lw	a5,16(sp)
 677:lib/freertos/src/timers.c **** 
 864              		.loc 1 677 12 is_stmt 0
 865 00b8 2320C900 		sw	a2,0(s2)
 679:lib/freertos/src/timers.c **** }
 866              		.loc 1 679 2 is_stmt 1
 867              	.LVL80:
 868              	.LBE54:
 869              	.LBE53:
 783:lib/freertos/src/timers.c **** 			{
 870              		.loc 1 783 4
 871 00bc E3EDFBFA 		bgtu	a5,s7,.L65
 872 00c0 B397F400 		sll	a5,s1,a5
 873 00c4 13F70721 		andi	a4,a5,528
 874 00c8 63150710 		bne	a4,zero,.L68
 875 00cc 13F7770C 		andi	a4,a5,199
GAS LISTING C:\Users\kasie\AppData\Local\Temp\cc3J3bHu.s 			page 38


 876 00d0 69E3     		bne	a4,zero,.L69
 877 00d2 93F70702 		andi	a5,a5,32
 878 00d6 C5D3     		beq	a5,zero,.L65
 843:lib/freertos/src/timers.c **** 					}
 879              		.loc 1 843 7
 880 00d8 2285     		mv	a0,s0
 881 00da 97000000 		call	vPortFree
 881      E7800000 
 882              	.LVL81:
 860:lib/freertos/src/timers.c **** 
 883              		.loc 1 860 6
 884 00e2 51BF     		j	.L65
 885              	.LVL82:
 886              	.L54:
 887              	.LBE52:
 888              	.LBE51:
 889              	.LBB59:
 890              	.LBB48:
 891              	.LBB42:
 892              	.LBB40:
 677:lib/freertos/src/timers.c **** 
 893              		.loc 1 677 2
 677:lib/freertos/src/timers.c **** 
 894              		.loc 1 677 12 is_stmt 0
 895 00e4 88C3     		sw	a0,0(a5)
 679:lib/freertos/src/timers.c **** }
 896              		.loc 1 679 2 is_stmt 1
 897              	.LVL83:
 898              	.LBE40:
 899              	.LBE42:
 587:lib/freertos/src/timers.c **** 		{
 900              		.loc 1 587 3
 590:lib/freertos/src/timers.c **** 			{
 901              		.loc 1 590 4
 590:lib/freertos/src/timers.c **** 			{
 902              		.loc 1 590 6 is_stmt 0
 903 00e6 2DC0     		beq	s0,zero,.L56
 590:lib/freertos/src/timers.c **** 			{
 904              		.loc 1 590 37
 905 00e8 0146     		li	a2,0
 906 00ea 63648507 		bgtu	s8,a0,.L57
 592:lib/freertos/src/timers.c **** 				prvProcessExpiredTimer( xNextExpireTime, xTimeNow );
 907              		.loc 1 592 5 is_stmt 1
 592:lib/freertos/src/timers.c **** 				prvProcessExpiredTimer( xNextExpireTime, xTimeNow );
 908              		.loc 1 592 14 is_stmt 0
 909 00ee 97000000 		call	xTaskResumeAll
 909      E7800000 
 910              	.LVL84:
 593:lib/freertos/src/timers.c **** 			}
 911              		.loc 1 593 5 is_stmt 1
 912              	.LBB43:
 913              	.LBB44:
 500:lib/freertos/src/timers.c **** Timer_t * const pxTimer = ( Timer_t * ) listGET_OWNER_OF_HEAD_ENTRY( pxCurrentTimerList );
 914              		.loc 1 500 1
 501:lib/freertos/src/timers.c **** 
 915              		.loc 1 501 1
 501:lib/freertos/src/timers.c **** 
GAS LISTING C:\Users\kasie\AppData\Local\Temp\cc3J3bHu.s 			page 39


 916              		.loc 1 501 41 is_stmt 0
 917 00f6 83A70C00 		lw	a5,0(s9)
 501:lib/freertos/src/timers.c **** 
 918              		.loc 1 501 17
 919 00fa DC47     		lw	a5,12(a5)
 920 00fc C047     		lw	s0,12(a5)
 921              	.LVL85:
 505:lib/freertos/src/timers.c **** 	traceTIMER_EXPIRED( pxTimer );
 922              		.loc 1 505 2 is_stmt 1
 505:lib/freertos/src/timers.c **** 	traceTIMER_EXPIRED( pxTimer );
 923              		.loc 1 505 11 is_stmt 0
 924 00fe 13054400 		addi	a0,s0,4
 925 0102 97000000 		call	uxListRemove
 925      E7800000 
 926              	.LVL86:
 506:lib/freertos/src/timers.c **** 
 927              		.loc 1 506 31 is_stmt 1
 510:lib/freertos/src/timers.c **** 	{
 928              		.loc 1 510 2
 510:lib/freertos/src/timers.c **** 	{
 929              		.loc 1 510 4 is_stmt 0
 930 010a 584C     		lw	a4,28(s0)
 931 010c 8547     		li	a5,1
 932 010e 6319F702 		bne	a4,a5,.L58
 515:lib/freertos/src/timers.c **** 		{
 933              		.loc 1 515 3 is_stmt 1
 515:lib/freertos/src/timers.c **** 		{
 934              		.loc 1 515 7 is_stmt 0
 935 0112 0C4C     		lw	a1,24(s0)
 936 0114 E286     		mv	a3,s8
 937 0116 2686     		mv	a2,s1
 938 0118 E295     		add	a1,s8,a1
 939 011a 2285     		mv	a0,s0
 940 011c 97000000 		call	prvInsertTimerInActiveList
 940      E7800000 
 941              	.LVL87:
 515:lib/freertos/src/timers.c **** 		{
 942              		.loc 1 515 5
 943 0124 11CD     		beq	a0,zero,.L58
 519:lib/freertos/src/timers.c **** 			configASSERT( xResult );
 944              		.loc 1 519 4 is_stmt 1
 519:lib/freertos/src/timers.c **** 			configASSERT( xResult );
 945              		.loc 1 519 14 is_stmt 0
 946 0126 0147     		li	a4,0
 947 0128 8146     		li	a3,0
 948 012a 6286     		mv	a2,s8
 949 012c 8145     		li	a1,0
 950 012e 2285     		mv	a0,s0
 951 0130 97000000 		call	xTimerGenericCommand
 951      E7800000 
 952              	.LVL88:
 520:lib/freertos/src/timers.c **** 			( void ) xResult;
 953              		.loc 1 520 4 is_stmt 1
 954 0138 01E5     		bne	a0,zero,.L58
 520:lib/freertos/src/timers.c **** 			( void ) xResult;
 955              		.loc 1 520 4
 956              	.LBB45:
GAS LISTING C:\Users\kasie\AppData\Local\Temp\cc3J3bHu.s 			page 40


 520:lib/freertos/src/timers.c **** 			( void ) xResult;
 957              		.loc 1 520 4
 520:lib/freertos/src/timers.c **** 			( void ) xResult;
 958              		.loc 1 520 4
 520:lib/freertos/src/timers.c **** 			( void ) xResult;
 959              		.loc 1 520 4
 960              	 #APP
 961              	# 520 "lib/freertos/src/timers.c" 1
 962              		csrrc a5, mstatus, 8
 963              	# 0 "" 2
 964              	.LVL89:
 520:lib/freertos/src/timers.c **** 			( void ) xResult;
 965              		.loc 1 520 4
 966              	 #NO_APP
 967              	.L59:
 968              	.LBE45:
 520:lib/freertos/src/timers.c **** 			( void ) xResult;
 969              		.loc 1 520 4
 520:lib/freertos/src/timers.c **** 			( void ) xResult;
 970              		.loc 1 520 4
 520:lib/freertos/src/timers.c **** 			( void ) xResult;
 971              		.loc 1 520 4
 972 013e 01A0     		j	.L59
 973              	.LVL90:
 974              	.L58:
 530:lib/freertos/src/timers.c **** 	}
 975              		.loc 1 530 27
 534:lib/freertos/src/timers.c **** }
 976              		.loc 1 534 2
 977 0140 5C50     		lw	a5,36(s0)
 978 0142 2285     		mv	a0,s0
 979 0144 8297     		jalr	a5
 980              	.LVL91:
 981 0146 35B7     		j	.L55
 982              	.LVL92:
 983              	.L56:
 984              	.LBE44:
 985              	.LBE43:
 603:lib/freertos/src/timers.c **** 				{
 986              		.loc 1 603 5
 607:lib/freertos/src/timers.c **** 				}
 987              		.loc 1 607 6
 607:lib/freertos/src/timers.c **** 				}
 988              		.loc 1 607 22 is_stmt 0
 989 0148 83270B00 		lw	a5,%lo(.LANCHOR4)(s6)
 990 014c 9043     		lw	a2,0(a5)
 991 014e 13361600 		seqz	a2,a2
 992              	.LVL93:
 993              	.L57:
 610:lib/freertos/src/timers.c **** 
 994              		.loc 1 610 5 is_stmt 1
 995 0152 03A50A00 		lw	a0,%lo(.LANCHOR0)(s5)
 996 0156 B3059C40 		sub	a1,s8,s1
 997 015a 97000000 		call	vQueueWaitForMessageRestricted
 997      E7800000 
 998              	.LVL94:
 612:lib/freertos/src/timers.c **** 				{
GAS LISTING C:\Users\kasie\AppData\Local\Temp\cc3J3bHu.s 			page 41


 999              		.loc 1 612 5
 612:lib/freertos/src/timers.c **** 				{
 1000              		.loc 1 612 9 is_stmt 0
 1001 0162 97000000 		call	xTaskResumeAll
 1001      E7800000 
 1002              	.LVL95:
 612:lib/freertos/src/timers.c **** 				{
 1003              		.loc 1 612 7
 1004 016a 01F5     		bne	a0,zero,.L55
 618:lib/freertos/src/timers.c **** 				}
 1005              		.loc 1 618 6 is_stmt 1
 1006              	.LBB46:
 618:lib/freertos/src/timers.c **** 				}
 1007              		.loc 1 618 6
 1008 016c 13068002 		li	a2,40
 618:lib/freertos/src/timers.c **** 				}
 1009              		.loc 1 618 6
 1010              	 #APP
 1011              	# 618 "lib/freertos/src/timers.c" 1
 618:lib/freertos/src/timers.c **** 				}
 1012              		ecall
 1013              	# 0 "" 2
 1014              		.loc 1 618 6
 1015              	 #NO_APP
 1016              	.LBE46:
 618:lib/freertos/src/timers.c **** 				}
 1017              		.loc 1 618 28
 1018 0174 FDBD     		j	.L55
 1019              	.LVL96:
 1020              	.L61:
 1021              	.LBE48:
 1022              	.LBE59:
 1023              	.LBB60:
 1024              	.LBB58:
 1025              	.LBB55:
 739:lib/freertos/src/timers.c **** 
 1026              		.loc 1 739 5
 743:lib/freertos/src/timers.c **** 
 1027              		.loc 1 743 5
 743:lib/freertos/src/timers.c **** 
 1028              		.loc 1 743 31
 746:lib/freertos/src/timers.c **** 			}
 1029              		.loc 1 746 5
 1030 0176 D247     		lw	a5,20(sp)
 1031 0178 F245     		lw	a1,28(sp)
 1032 017a 8297     		jalr	a5
 1033              	.LVL97:
 1034              	.LBE55:
 750:lib/freertos/src/timers.c **** 			}
 1035              		.loc 1 750 29
 757:lib/freertos/src/timers.c **** 		{
 1036              		.loc 1 757 3
 757:lib/freertos/src/timers.c **** 		{
 1037              		.loc 1 757 5 is_stmt 0
 1038 017c C247     		lw	a5,16(sp)
 1039 017e E3CC07EE 		blt	a5,zero,.L65
 1040 0182 01BF     		j	.L64
GAS LISTING C:\Users\kasie\AppData\Local\Temp\cc3J3bHu.s 			page 42


 1041              	.LVL98:
 1042              	.L62:
 766:lib/freertos/src/timers.c **** 			}
 1043              		.loc 1 766 5 is_stmt 1
 766:lib/freertos/src/timers.c **** 			}
 1044              		.loc 1 766 14 is_stmt 0
 1045 0184 13054400 		addi	a0,s0,4
 1046 0188 97000000 		call	uxListRemove
 1046      E7800000 
 1047              	.LVL99:
 1048 0190 21B7     		j	.L63
 1049              	.LVL100:
 1050              	.L69:
 791:lib/freertos/src/timers.c **** 					{
 1051              		.loc 1 791 6 is_stmt 1
 791:lib/freertos/src/timers.c **** 					{
 1052              		.loc 1 791 10 is_stmt 0
 1053 0192 0C4C     		lw	a1,24(s0)
 1054 0194 D246     		lw	a3,20(sp)
 1055 0196 2285     		mv	a0,s0
 1056 0198 B695     		add	a1,a3,a1
 1057 019a 97000000 		call	prvInsertTimerInActiveList
 1057      E7800000 
 1058              	.LVL101:
 791:lib/freertos/src/timers.c **** 					{
 1059              		.loc 1 791 8
 1060 01a2 E30A05EC 		beq	a0,zero,.L65
 795:lib/freertos/src/timers.c **** 						traceTIMER_EXPIRED( pxTimer );
 1061              		.loc 1 795 7 is_stmt 1
 1062 01a6 5C50     		lw	a5,36(s0)
 1063 01a8 2285     		mv	a0,s0
 1064 01aa 8297     		jalr	a5
 1065              	.LVL102:
 796:lib/freertos/src/timers.c **** 
 1066              		.loc 1 796 36
 798:lib/freertos/src/timers.c **** 						{
 1067              		.loc 1 798 7
 798:lib/freertos/src/timers.c **** 						{
 1068              		.loc 1 798 9 is_stmt 0
 1069 01ac 5C4C     		lw	a5,28(s0)
 1070 01ae E39487ED 		bne	a5,s8,.L65
 800:lib/freertos/src/timers.c **** 							configASSERT( xResult );
 1071              		.loc 1 800 8 is_stmt 1
 800:lib/freertos/src/timers.c **** 							configASSERT( xResult );
 1072              		.loc 1 800 18 is_stmt 0
 1073 01b2 1C4C     		lw	a5,24(s0)
 1074 01b4 5246     		lw	a2,20(sp)
 1075 01b6 0147     		li	a4,0
 1076 01b8 8146     		li	a3,0
 1077 01ba 3E96     		add	a2,a2,a5
 1078 01bc 8145     		li	a1,0
 1079 01be 2285     		mv	a0,s0
 1080 01c0 97000000 		call	xTimerGenericCommand
 1080      E7800000 
 1081              	.LVL103:
 801:lib/freertos/src/timers.c **** 							( void ) xResult;
 1082              		.loc 1 801 8 is_stmt 1
GAS LISTING C:\Users\kasie\AppData\Local\Temp\cc3J3bHu.s 			page 43


 1083 01c8 E31705EA 		bne	a0,zero,.L65
 801:lib/freertos/src/timers.c **** 							( void ) xResult;
 1084              		.loc 1 801 8
 1085              	.LBB56:
 801:lib/freertos/src/timers.c **** 							( void ) xResult;
 1086              		.loc 1 801 8
 801:lib/freertos/src/timers.c **** 							( void ) xResult;
 1087              		.loc 1 801 8
 801:lib/freertos/src/timers.c **** 							( void ) xResult;
 1088              		.loc 1 801 8
 1089              	 #APP
 1090              	# 801 "lib/freertos/src/timers.c" 1
 1091              		csrrc a5, mstatus, 8
 1092              	# 0 "" 2
 1093              	.LVL104:
 801:lib/freertos/src/timers.c **** 							( void ) xResult;
 1094              		.loc 1 801 8
 1095              	 #NO_APP
 1096              	.L74:
 1097              	.LBE56:
 801:lib/freertos/src/timers.c **** 							( void ) xResult;
 1098              		.loc 1 801 8
 801:lib/freertos/src/timers.c **** 							( void ) xResult;
 1099              		.loc 1 801 8
 801:lib/freertos/src/timers.c **** 							( void ) xResult;
 1100              		.loc 1 801 8
 1101 01d0 01A0     		j	.L74
 1102              	.LVL105:
 1103              	.L68:
 823:lib/freertos/src/timers.c **** 					configASSERT( ( pxTimer->xTimerPeriodInTicks > 0 ) );
 1104              		.loc 1 823 6
 823:lib/freertos/src/timers.c **** 					configASSERT( ( pxTimer->xTimerPeriodInTicks > 0 ) );
 1105              		.loc 1 823 64 is_stmt 0
 1106 01d2 D245     		lw	a1,20(sp)
 823:lib/freertos/src/timers.c **** 					configASSERT( ( pxTimer->xTimerPeriodInTicks > 0 ) );
 1107              		.loc 1 823 35
 1108 01d4 0CCC     		sw	a1,24(s0)
 824:lib/freertos/src/timers.c **** 
 1109              		.loc 1 824 6 is_stmt 1
 1110 01d6 81E5     		bne	a1,zero,.L75
 824:lib/freertos/src/timers.c **** 
 1111              		.loc 1 824 6
 1112              	.LBB57:
 824:lib/freertos/src/timers.c **** 
 1113              		.loc 1 824 6
 824:lib/freertos/src/timers.c **** 
 1114              		.loc 1 824 6
 824:lib/freertos/src/timers.c **** 
 1115              		.loc 1 824 6
 1116              	 #APP
 1117              	# 824 "lib/freertos/src/timers.c" 1
 1118              		csrrc a5, mstatus, 8
 1119              	# 0 "" 2
 1120              	.LVL106:
 824:lib/freertos/src/timers.c **** 
 1121              		.loc 1 824 6
 1122              	 #NO_APP
GAS LISTING C:\Users\kasie\AppData\Local\Temp\cc3J3bHu.s 			page 44


 1123              	.L76:
 1124              	.LBE57:
 824:lib/freertos/src/timers.c **** 
 1125              		.loc 1 824 6
 824:lib/freertos/src/timers.c **** 
 1126              		.loc 1 824 6
 824:lib/freertos/src/timers.c **** 
 1127              		.loc 1 824 6
 1128 01dc 01A0     		j	.L76
 1129              	.L75:
 824:lib/freertos/src/timers.c **** 
 1130              		.loc 1 824 58
 832:lib/freertos/src/timers.c **** 					break;
 1131              		.loc 1 832 6
 832:lib/freertos/src/timers.c **** 					break;
 1132              		.loc 1 832 15 is_stmt 0
 1133 01de B286     		mv	a3,a2
 1134 01e0 B295     		add	a1,a1,a2
 1135 01e2 2285     		mv	a0,s0
 1136 01e4 97000000 		call	prvInsertTimerInActiveList
 1136      E7800000 
 1137              	.LVL107:
 833:lib/freertos/src/timers.c **** 
 1138              		.loc 1 833 6 is_stmt 1
 1139 01ec 69B5     		j	.L65
 1140              	.LBE58:
 1141              	.LBE60:
 1142              		.cfi_endproc
 1143              	.LFE11:
 1145              		.section	.text.xTimerGetTimerDaemonTaskHandle,"ax",@progbits
 1146              		.align	1
 1147              		.globl	xTimerGetTimerDaemonTaskHandle
 1149              	xTimerGetTimerDaemonTaskHandle:
 1150              	.LFB6:
 461:lib/freertos/src/timers.c **** 	/* If xTimerGetTimerDaemonTaskHandle() is called before the scheduler has been
 1151              		.loc 1 461 1
 1152              		.cfi_startproc
 464:lib/freertos/src/timers.c **** 	return xTimerTaskHandle;
 1153              		.loc 1 464 2
 1154 0000 B7070000 		lui	a5,%hi(.LANCHOR5)
 1155 0004 03A50700 		lw	a0,%lo(.LANCHOR5)(a5)
 1156 0008 01E5     		bne	a0,zero,.L86
 464:lib/freertos/src/timers.c **** 	return xTimerTaskHandle;
 1157              		.loc 1 464 2 discriminator 3
 1158              	.LBB61:
 464:lib/freertos/src/timers.c **** 	return xTimerTaskHandle;
 1159              		.loc 1 464 2 discriminator 3
 464:lib/freertos/src/timers.c **** 	return xTimerTaskHandle;
 1160              		.loc 1 464 2 discriminator 3
 464:lib/freertos/src/timers.c **** 	return xTimerTaskHandle;
 1161              		.loc 1 464 2 discriminator 3
 1162              	 #APP
 1163              	# 464 "lib/freertos/src/timers.c" 1
 1164              		csrrc a5, mstatus, 8
 1165              	# 0 "" 2
 1166              	.LVL108:
 464:lib/freertos/src/timers.c **** 	return xTimerTaskHandle;
GAS LISTING C:\Users\kasie\AppData\Local\Temp\cc3J3bHu.s 			page 45


 1167              		.loc 1 464 2 discriminator 3
 1168              	 #NO_APP
 1169              	.L88:
 1170              	.LBE61:
 464:lib/freertos/src/timers.c **** 	return xTimerTaskHandle;
 1171              		.loc 1 464 2 discriminator 1
 464:lib/freertos/src/timers.c **** 	return xTimerTaskHandle;
 1172              		.loc 1 464 2 discriminator 1
 464:lib/freertos/src/timers.c **** 	return xTimerTaskHandle;
 1173              		.loc 1 464 2 discriminator 1
 1174 000e 01A0     		j	.L88
 1175              	.L86:
 466:lib/freertos/src/timers.c **** /*-----------------------------------------------------------*/
 1176              		.loc 1 466 1 is_stmt 0
 1177 0010 8280     		ret
 1178              		.cfi_endproc
 1179              	.LFE6:
 1181              		.section	.text.xTimerGetPeriod,"ax",@progbits
 1182              		.align	1
 1183              		.globl	xTimerGetPeriod
 1185              	xTimerGetPeriod:
 1186              	.LFB7:
 470:lib/freertos/src/timers.c **** Timer_t *pxTimer = ( Timer_t * ) xTimer;
 1187              		.loc 1 470 1 is_stmt 1
 1188              		.cfi_startproc
 1189              	.LVL109:
 471:lib/freertos/src/timers.c **** 
 1190              		.loc 1 471 1
 473:lib/freertos/src/timers.c **** 	return pxTimer->xTimerPeriodInTicks;
 1191              		.loc 1 473 2
 1192 0000 01E5     		bne	a0,zero,.L90
 473:lib/freertos/src/timers.c **** 	return pxTimer->xTimerPeriodInTicks;
 1193              		.loc 1 473 2 discriminator 3
 1194              	.LBB62:
 473:lib/freertos/src/timers.c **** 	return pxTimer->xTimerPeriodInTicks;
 1195              		.loc 1 473 2 discriminator 3
 473:lib/freertos/src/timers.c **** 	return pxTimer->xTimerPeriodInTicks;
 1196              		.loc 1 473 2 discriminator 3
 473:lib/freertos/src/timers.c **** 	return pxTimer->xTimerPeriodInTicks;
 1197              		.loc 1 473 2 discriminator 3
 1198              	 #APP
 1199              	# 473 "lib/freertos/src/timers.c" 1
 1200              		csrrc a5, mstatus, 8
 1201              	# 0 "" 2
 1202              	.LVL110:
 473:lib/freertos/src/timers.c **** 	return pxTimer->xTimerPeriodInTicks;
 1203              		.loc 1 473 2 discriminator 3
 1204              	 #NO_APP
 1205              	.L91:
 1206              	.LBE62:
 473:lib/freertos/src/timers.c **** 	return pxTimer->xTimerPeriodInTicks;
 1207              		.loc 1 473 2 discriminator 1
 473:lib/freertos/src/timers.c **** 	return pxTimer->xTimerPeriodInTicks;
 1208              		.loc 1 473 2 discriminator 1
 473:lib/freertos/src/timers.c **** 	return pxTimer->xTimerPeriodInTicks;
 1209              		.loc 1 473 2 discriminator 1
 1210 0006 01A0     		j	.L91
GAS LISTING C:\Users\kasie\AppData\Local\Temp\cc3J3bHu.s 			page 46


 1211              	.L90:
 473:lib/freertos/src/timers.c **** 	return pxTimer->xTimerPeriodInTicks;
 1212              		.loc 1 473 24 discriminator 2
 474:lib/freertos/src/timers.c **** }
 1213              		.loc 1 474 2 discriminator 2
 475:lib/freertos/src/timers.c **** /*-----------------------------------------------------------*/
 1214              		.loc 1 475 1 is_stmt 0 discriminator 2
 1215 0008 084D     		lw	a0,24(a0)
 1216              	.LVL111:
 1217 000a 8280     		ret
 1218              		.cfi_endproc
 1219              	.LFE7:
 1221              		.section	.text.xTimerGetExpiryTime,"ax",@progbits
 1222              		.align	1
 1223              		.globl	xTimerGetExpiryTime
 1225              	xTimerGetExpiryTime:
 1226              	.LFB8:
 479:lib/freertos/src/timers.c **** Timer_t * pxTimer = ( Timer_t * ) xTimer;
 1227              		.loc 1 479 1 is_stmt 1
 1228              		.cfi_startproc
 1229              	.LVL112:
 480:lib/freertos/src/timers.c **** TickType_t xReturn;
 1230              		.loc 1 480 1
 481:lib/freertos/src/timers.c **** 
 1231              		.loc 1 481 1
 483:lib/freertos/src/timers.c **** 	xReturn = listGET_LIST_ITEM_VALUE( &( pxTimer->xTimerListItem ) );
 1232              		.loc 1 483 2
 1233 0000 01E5     		bne	a0,zero,.L93
 483:lib/freertos/src/timers.c **** 	xReturn = listGET_LIST_ITEM_VALUE( &( pxTimer->xTimerListItem ) );
 1234              		.loc 1 483 2 discriminator 3
 1235              	.LBB63:
 483:lib/freertos/src/timers.c **** 	xReturn = listGET_LIST_ITEM_VALUE( &( pxTimer->xTimerListItem ) );
 1236              		.loc 1 483 2 discriminator 3
 483:lib/freertos/src/timers.c **** 	xReturn = listGET_LIST_ITEM_VALUE( &( pxTimer->xTimerListItem ) );
 1237              		.loc 1 483 2 discriminator 3
 483:lib/freertos/src/timers.c **** 	xReturn = listGET_LIST_ITEM_VALUE( &( pxTimer->xTimerListItem ) );
 1238              		.loc 1 483 2 discriminator 3
 1239              	 #APP
 1240              	# 483 "lib/freertos/src/timers.c" 1
 1241              		csrrc a5, mstatus, 8
 1242              	# 0 "" 2
 1243              	.LVL113:
 483:lib/freertos/src/timers.c **** 	xReturn = listGET_LIST_ITEM_VALUE( &( pxTimer->xTimerListItem ) );
 1244              		.loc 1 483 2 discriminator 3
 1245              	 #NO_APP
 1246              	.L94:
 1247              	.LBE63:
 483:lib/freertos/src/timers.c **** 	xReturn = listGET_LIST_ITEM_VALUE( &( pxTimer->xTimerListItem ) );
 1248              		.loc 1 483 2 discriminator 1
 483:lib/freertos/src/timers.c **** 	xReturn = listGET_LIST_ITEM_VALUE( &( pxTimer->xTimerListItem ) );
 1249              		.loc 1 483 2 discriminator 1
 483:lib/freertos/src/timers.c **** 	xReturn = listGET_LIST_ITEM_VALUE( &( pxTimer->xTimerListItem ) );
 1250              		.loc 1 483 2 discriminator 1
 1251 0006 01A0     		j	.L94
 1252              	.L93:
 483:lib/freertos/src/timers.c **** 	xReturn = listGET_LIST_ITEM_VALUE( &( pxTimer->xTimerListItem ) );
 1253              		.loc 1 483 24 discriminator 2
GAS LISTING C:\Users\kasie\AppData\Local\Temp\cc3J3bHu.s 			page 47


 484:lib/freertos/src/timers.c **** 	return xReturn;
 1254              		.loc 1 484 2 discriminator 2
 1255              	.LVL114:
 485:lib/freertos/src/timers.c **** }
 1256              		.loc 1 485 2 discriminator 2
 486:lib/freertos/src/timers.c **** /*-----------------------------------------------------------*/
 1257              		.loc 1 486 1 is_stmt 0 discriminator 2
 1258 0008 4841     		lw	a0,4(a0)
 1259              	.LVL115:
 1260 000a 8280     		ret
 1261              		.cfi_endproc
 1262              	.LFE8:
 1264              		.section	.text.pcTimerGetName,"ax",@progbits
 1265              		.align	1
 1266              		.globl	pcTimerGetName
 1268              	pcTimerGetName:
 1269              	.LFB9:
 490:lib/freertos/src/timers.c **** Timer_t *pxTimer = ( Timer_t * ) xTimer;
 1270              		.loc 1 490 1 is_stmt 1
 1271              		.cfi_startproc
 1272              	.LVL116:
 491:lib/freertos/src/timers.c **** 
 1273              		.loc 1 491 1
 493:lib/freertos/src/timers.c **** 	return pxTimer->pcTimerName;
 1274              		.loc 1 493 2
 1275 0000 01E5     		bne	a0,zero,.L96
 493:lib/freertos/src/timers.c **** 	return pxTimer->pcTimerName;
 1276              		.loc 1 493 2 discriminator 3
 1277              	.LBB64:
 493:lib/freertos/src/timers.c **** 	return pxTimer->pcTimerName;
 1278              		.loc 1 493 2 discriminator 3
 493:lib/freertos/src/timers.c **** 	return pxTimer->pcTimerName;
 1279              		.loc 1 493 2 discriminator 3
 493:lib/freertos/src/timers.c **** 	return pxTimer->pcTimerName;
 1280              		.loc 1 493 2 discriminator 3
 1281              	 #APP
 1282              	# 493 "lib/freertos/src/timers.c" 1
 1283              		csrrc a5, mstatus, 8
 1284              	# 0 "" 2
 1285              	.LVL117:
 493:lib/freertos/src/timers.c **** 	return pxTimer->pcTimerName;
 1286              		.loc 1 493 2 discriminator 3
 1287              	 #NO_APP
 1288              	.L97:
 1289              	.LBE64:
 493:lib/freertos/src/timers.c **** 	return pxTimer->pcTimerName;
 1290              		.loc 1 493 2 discriminator 1
 493:lib/freertos/src/timers.c **** 	return pxTimer->pcTimerName;
 1291              		.loc 1 493 2 discriminator 1
 493:lib/freertos/src/timers.c **** 	return pxTimer->pcTimerName;
 1292              		.loc 1 493 2 discriminator 1
 1293 0006 01A0     		j	.L97
 1294              	.L96:
 493:lib/freertos/src/timers.c **** 	return pxTimer->pcTimerName;
 1295              		.loc 1 493 24 discriminator 2
 494:lib/freertos/src/timers.c **** }
 1296              		.loc 1 494 2 discriminator 2
GAS LISTING C:\Users\kasie\AppData\Local\Temp\cc3J3bHu.s 			page 48


 495:lib/freertos/src/timers.c **** /*-----------------------------------------------------------*/
 1297              		.loc 1 495 1 is_stmt 0 discriminator 2
 1298 0008 0841     		lw	a0,0(a0)
 1299              	.LVL118:
 1300 000a 8280     		ret
 1301              		.cfi_endproc
 1302              	.LFE9:
 1304              		.section	.text.xTimerIsTimerActive,"ax",@progbits
 1305              		.align	1
 1306              		.globl	xTimerIsTimerActive
 1308              	xTimerIsTimerActive:
 1309              	.LFB19:
 979:lib/freertos/src/timers.c **** /*-----------------------------------------------------------*/
 980:lib/freertos/src/timers.c **** 
 981:lib/freertos/src/timers.c **** BaseType_t xTimerIsTimerActive( TimerHandle_t xTimer )
 982:lib/freertos/src/timers.c **** {
 1310              		.loc 1 982 1 is_stmt 1
 1311              		.cfi_startproc
 1312              	.LVL119:
 983:lib/freertos/src/timers.c **** BaseType_t xTimerIsInActiveList;
 1313              		.loc 1 983 1
 984:lib/freertos/src/timers.c **** Timer_t *pxTimer = ( Timer_t * ) xTimer;
 1314              		.loc 1 984 1
 985:lib/freertos/src/timers.c **** 
 986:lib/freertos/src/timers.c **** 	configASSERT( xTimer );
 1315              		.loc 1 986 2
 1316 0000 01E5     		bne	a0,zero,.L99
 1317              		.loc 1 986 2 discriminator 3
 1318              	.LBB65:
 1319              		.loc 1 986 2 discriminator 3
 1320              		.loc 1 986 2 discriminator 3
 1321              		.loc 1 986 2 discriminator 3
 1322              	 #APP
 1323              	# 986 "lib/freertos/src/timers.c" 1
 987              	
 1324              		csrrc a5, mstatus, 8
 1325              	# 0 "" 2
 1326              	.LVL120:
 986:lib/freertos/src/timers.c **** 	configASSERT( xTimer );
 1327              		.loc 1 986 2 discriminator 3
 1328              	 #NO_APP
 1329              	.L100:
 1330              	.LBE65:
 986:lib/freertos/src/timers.c **** 	configASSERT( xTimer );
 1331              		.loc 1 986 2 discriminator 1
 986:lib/freertos/src/timers.c **** 	configASSERT( xTimer );
 1332              		.loc 1 986 2 discriminator 1
 986:lib/freertos/src/timers.c **** 	configASSERT( xTimer );
 1333              		.loc 1 986 2 discriminator 1
 1334 0006 01A0     		j	.L100
 1335              	.L99:
 982:lib/freertos/src/timers.c **** BaseType_t xTimerIsInActiveList;
 1336              		.loc 1 982 1 is_stmt 0 discriminator 2
 1337 0008 0111     		addi	sp,sp,-32
 1338              	.LCFI16:
 1339              		.cfi_def_cfa_offset 32
 1340 000a 06CE     		sw	ra,28(sp)
GAS LISTING C:\Users\kasie\AppData\Local\Temp\cc3J3bHu.s 			page 49


 1341 000c 22CC     		sw	s0,24(sp)
 1342              		.cfi_offset 1, -4
 1343              		.cfi_offset 8, -8
 1344 000e 2A84     		mv	s0,a0
 986:lib/freertos/src/timers.c **** 
 1345              		.loc 1 986 24 is_stmt 1 discriminator 2
 988:lib/freertos/src/timers.c **** 	/* Is the timer in the list of active timers? */
 989:lib/freertos/src/timers.c **** 	taskENTER_CRITICAL();
 1346              		.loc 1 989 2 discriminator 2
 1347 0010 97000000 		call	vPortEnterCritical
 1347      E7800000 
 1348              	.LVL121:
 990:lib/freertos/src/timers.c **** 	{
 991:lib/freertos/src/timers.c **** 		/* Checking to see if it is in the NULL list in effect checks to see if
 992:lib/freertos/src/timers.c **** 		it is referenced from either the current or the overflow timer lists in
 993:lib/freertos/src/timers.c **** 		one go, but the logic has to be reversed, hence the '!'. */
 994:lib/freertos/src/timers.c **** 		xTimerIsInActiveList = ( BaseType_t ) !( listIS_CONTAINED_WITHIN( NULL, &( pxTimer->xTimerListIte
 1349              		.loc 1 994 3 discriminator 2
 1350              		.loc 1 994 26 is_stmt 0 discriminator 2
 1351 0018 4848     		lw	a0,20(s0)
 1352 001a 3335A000 		snez	a0,a0
 1353 001e 2AC6     		sw	a0,12(sp)
 1354              	.LVL122:
 995:lib/freertos/src/timers.c **** 	}
 996:lib/freertos/src/timers.c **** 	taskEXIT_CRITICAL();
 1355              		.loc 1 996 2 is_stmt 1 discriminator 2
 1356 0020 97000000 		call	vPortExitCritical
 1356      E7800000 
 1357              	.LVL123:
 997:lib/freertos/src/timers.c **** 
 998:lib/freertos/src/timers.c **** 	return xTimerIsInActiveList;
 1358              		.loc 1 998 2 discriminator 2
 999:lib/freertos/src/timers.c **** } /*lint !e818 Can't be pointer to const due to the typedef. */
 1359              		.loc 1 999 1 is_stmt 0 discriminator 2
 1360 0028 F240     		lw	ra,28(sp)
 1361              		.cfi_restore 1
 1362 002a 6244     		lw	s0,24(sp)
 1363              		.cfi_restore 8
 1364              	.LVL124:
 1365 002c 3245     		lw	a0,12(sp)
 1366 002e 0561     		addi	sp,sp,32
 1367              	.LCFI17:
 1368              		.cfi_def_cfa_offset 0
 1369              	.LVL125:
 1370 0030 8280     		jr	ra
 1371              		.cfi_endproc
 1372              	.LFE19:
 1374              		.section	.text.pvTimerGetTimerID,"ax",@progbits
 1375              		.align	1
 1376              		.globl	pvTimerGetTimerID
 1378              	pvTimerGetTimerID:
 1379              	.LFB20:
1000:lib/freertos/src/timers.c **** /*-----------------------------------------------------------*/
1001:lib/freertos/src/timers.c **** 
1002:lib/freertos/src/timers.c **** void *pvTimerGetTimerID( const TimerHandle_t xTimer )
1003:lib/freertos/src/timers.c **** {
 1380              		.loc 1 1003 1 is_stmt 1
GAS LISTING C:\Users\kasie\AppData\Local\Temp\cc3J3bHu.s 			page 50


 1381              		.cfi_startproc
 1382              	.LVL126:
1004:lib/freertos/src/timers.c **** Timer_t * const pxTimer = ( Timer_t * ) xTimer;
 1383              		.loc 1 1004 1
1005:lib/freertos/src/timers.c **** void *pvReturn;
 1384              		.loc 1 1005 1
1006:lib/freertos/src/timers.c **** 
1007:lib/freertos/src/timers.c **** 	configASSERT( xTimer );
 1385              		.loc 1 1007 2
 1386 0000 01E5     		bne	a0,zero,.L104
 1387              		.loc 1 1007 2 discriminator 3
 1388              	.LBB66:
 1389              		.loc 1 1007 2 discriminator 3
 1390              		.loc 1 1007 2 discriminator 3
 1391              		.loc 1 1007 2 discriminator 3
 1392              	 #APP
 1393              	# 1007 "lib/freertos/src/timers.c" 1
 1008              	
 1394              		csrrc a5, mstatus, 8
 1395              	# 0 "" 2
 1396              	.LVL127:
1007:lib/freertos/src/timers.c **** 	configASSERT( xTimer );
 1397              		.loc 1 1007 2 discriminator 3
 1398              	 #NO_APP
 1399              	.L105:
 1400              	.LBE66:
1007:lib/freertos/src/timers.c **** 	configASSERT( xTimer );
 1401              		.loc 1 1007 2 discriminator 1
1007:lib/freertos/src/timers.c **** 	configASSERT( xTimer );
 1402              		.loc 1 1007 2 discriminator 1
1007:lib/freertos/src/timers.c **** 	configASSERT( xTimer );
 1403              		.loc 1 1007 2 discriminator 1
 1404 0006 01A0     		j	.L105
 1405              	.L104:
1003:lib/freertos/src/timers.c **** Timer_t * const pxTimer = ( Timer_t * ) xTimer;
 1406              		.loc 1 1003 1 is_stmt 0 discriminator 2
 1407 0008 0111     		addi	sp,sp,-32
 1408              	.LCFI18:
 1409              		.cfi_def_cfa_offset 32
 1410 000a 06CE     		sw	ra,28(sp)
 1411 000c 22CC     		sw	s0,24(sp)
 1412              		.cfi_offset 1, -4
 1413              		.cfi_offset 8, -8
 1414 000e 2A84     		mv	s0,a0
1007:lib/freertos/src/timers.c **** 
 1415              		.loc 1 1007 24 is_stmt 1 discriminator 2
1009:lib/freertos/src/timers.c **** 	taskENTER_CRITICAL();
 1416              		.loc 1 1009 2 discriminator 2
 1417 0010 97000000 		call	vPortEnterCritical
 1417      E7800000 
 1418              	.LVL128:
1010:lib/freertos/src/timers.c **** 	{
1011:lib/freertos/src/timers.c **** 		pvReturn = pxTimer->pvTimerID;
 1419              		.loc 1 1011 3 discriminator 2
 1420              		.loc 1 1011 12 is_stmt 0 discriminator 2
 1421 0018 0850     		lw	a0,32(s0)
 1422 001a 2AC6     		sw	a0,12(sp)
GAS LISTING C:\Users\kasie\AppData\Local\Temp\cc3J3bHu.s 			page 51


 1423              	.LVL129:
1012:lib/freertos/src/timers.c **** 	}
1013:lib/freertos/src/timers.c **** 	taskEXIT_CRITICAL();
 1424              		.loc 1 1013 2 is_stmt 1 discriminator 2
 1425 001c 97000000 		call	vPortExitCritical
 1425      E7800000 
 1426              	.LVL130:
1014:lib/freertos/src/timers.c **** 
1015:lib/freertos/src/timers.c **** 	return pvReturn;
 1427              		.loc 1 1015 2 discriminator 2
1016:lib/freertos/src/timers.c **** }
 1428              		.loc 1 1016 1 is_stmt 0 discriminator 2
 1429 0024 F240     		lw	ra,28(sp)
 1430              		.cfi_restore 1
 1431 0026 6244     		lw	s0,24(sp)
 1432              		.cfi_restore 8
 1433              	.LVL131:
 1434 0028 3245     		lw	a0,12(sp)
 1435 002a 0561     		addi	sp,sp,32
 1436              	.LCFI19:
 1437              		.cfi_def_cfa_offset 0
 1438              	.LVL132:
 1439 002c 8280     		jr	ra
 1440              		.cfi_endproc
 1441              	.LFE20:
 1443              		.section	.text.vTimerSetTimerID,"ax",@progbits
 1444              		.align	1
 1445              		.globl	vTimerSetTimerID
 1447              	vTimerSetTimerID:
 1448              	.LFB21:
1017:lib/freertos/src/timers.c **** /*-----------------------------------------------------------*/
1018:lib/freertos/src/timers.c **** 
1019:lib/freertos/src/timers.c **** void vTimerSetTimerID( TimerHandle_t xTimer, void *pvNewID )
1020:lib/freertos/src/timers.c **** {
 1449              		.loc 1 1020 1 is_stmt 1
 1450              		.cfi_startproc
 1451              	.LVL133:
1021:lib/freertos/src/timers.c **** Timer_t * const pxTimer = ( Timer_t * ) xTimer;
 1452              		.loc 1 1021 1
1022:lib/freertos/src/timers.c **** 
1023:lib/freertos/src/timers.c **** 	configASSERT( xTimer );
 1453              		.loc 1 1023 2
 1454 0000 01E5     		bne	a0,zero,.L109
 1455              		.loc 1 1023 2 discriminator 3
 1456              	.LBB67:
 1457              		.loc 1 1023 2 discriminator 3
 1458              		.loc 1 1023 2 discriminator 3
 1459              		.loc 1 1023 2 discriminator 3
 1460              	 #APP
 1461              	# 1023 "lib/freertos/src/timers.c" 1
 1024              	
 1462              		csrrc a5, mstatus, 8
 1463              	# 0 "" 2
 1464              	.LVL134:
1023:lib/freertos/src/timers.c **** 	configASSERT( xTimer );
 1465              		.loc 1 1023 2 discriminator 3
 1466              	 #NO_APP
GAS LISTING C:\Users\kasie\AppData\Local\Temp\cc3J3bHu.s 			page 52


 1467              	.L110:
 1468              	.LBE67:
1023:lib/freertos/src/timers.c **** 	configASSERT( xTimer );
 1469              		.loc 1 1023 2 discriminator 1
1023:lib/freertos/src/timers.c **** 	configASSERT( xTimer );
 1470              		.loc 1 1023 2 discriminator 1
1023:lib/freertos/src/timers.c **** 	configASSERT( xTimer );
 1471              		.loc 1 1023 2 discriminator 1
 1472 0006 01A0     		j	.L110
 1473              	.L109:
1020:lib/freertos/src/timers.c **** Timer_t * const pxTimer = ( Timer_t * ) xTimer;
 1474              		.loc 1 1020 1 is_stmt 0 discriminator 2
 1475 0008 4111     		addi	sp,sp,-16
 1476              	.LCFI20:
 1477              		.cfi_def_cfa_offset 16
 1478 000a 22C4     		sw	s0,8(sp)
 1479 000c 26C2     		sw	s1,4(sp)
 1480              		.cfi_offset 8, -8
 1481              		.cfi_offset 9, -12
 1482 000e 2A84     		mv	s0,a0
1023:lib/freertos/src/timers.c **** 
 1483              		.loc 1 1023 24 is_stmt 1 discriminator 2
1025:lib/freertos/src/timers.c **** 	taskENTER_CRITICAL();
 1484              		.loc 1 1025 2 discriminator 2
 1485 0010 AE84     		mv	s1,a1
1020:lib/freertos/src/timers.c **** Timer_t * const pxTimer = ( Timer_t * ) xTimer;
 1486              		.loc 1 1020 1 is_stmt 0 discriminator 2
 1487 0012 06C6     		sw	ra,12(sp)
 1488              		.cfi_offset 1, -4
 1489              		.loc 1 1025 2 discriminator 2
 1490 0014 97000000 		call	vPortEnterCritical
 1490      E7800000 
 1491              	.LVL135:
1026:lib/freertos/src/timers.c **** 	{
1027:lib/freertos/src/timers.c **** 		pxTimer->pvTimerID = pvNewID;
 1492              		.loc 1 1027 3 is_stmt 1 discriminator 2
 1493              		.loc 1 1027 22 is_stmt 0 discriminator 2
 1494 001c 04D0     		sw	s1,32(s0)
1028:lib/freertos/src/timers.c **** 	}
1029:lib/freertos/src/timers.c **** 	taskEXIT_CRITICAL();
 1495              		.loc 1 1029 2 is_stmt 1 discriminator 2
1030:lib/freertos/src/timers.c **** }
 1496              		.loc 1 1030 1 is_stmt 0 discriminator 2
 1497 001e 2244     		lw	s0,8(sp)
 1498              		.cfi_restore 8
 1499              	.LVL136:
 1500 0020 B240     		lw	ra,12(sp)
 1501              		.cfi_restore 1
 1502 0022 9244     		lw	s1,4(sp)
 1503              		.cfi_restore 9
 1504              	.LVL137:
 1505 0024 4101     		addi	sp,sp,16
 1506              	.LCFI21:
 1507              		.cfi_def_cfa_offset 0
1029:lib/freertos/src/timers.c **** }
 1508              		.loc 1 1029 2 discriminator 2
 1509 0026 17030000 		tail	vPortExitCritical
GAS LISTING C:\Users\kasie\AppData\Local\Temp\cc3J3bHu.s 			page 53


 1509      67000300 
 1510              	.LVL138:
 1511              		.cfi_endproc
 1512              	.LFE21:
 1514              		.section	.text.xTimerPendFunctionCallFromISR,"ax",@progbits
 1515              		.align	1
 1516              		.globl	xTimerPendFunctionCallFromISR
 1518              	xTimerPendFunctionCallFromISR:
 1519              	.LFB22:
1031:lib/freertos/src/timers.c **** /*-----------------------------------------------------------*/
1032:lib/freertos/src/timers.c **** 
1033:lib/freertos/src/timers.c **** #if( INCLUDE_xTimerPendFunctionCall == 1 )
1034:lib/freertos/src/timers.c **** 
1035:lib/freertos/src/timers.c **** 	BaseType_t xTimerPendFunctionCallFromISR( PendedFunction_t xFunctionToPend, void *pvParameter1, ui
1036:lib/freertos/src/timers.c **** 	{
 1520              		.loc 1 1036 2 is_stmt 1
 1521              		.cfi_startproc
 1522              	.LVL139:
1037:lib/freertos/src/timers.c **** 	DaemonTaskMessage_t xMessage;
 1523              		.loc 1 1037 2
1038:lib/freertos/src/timers.c **** 	BaseType_t xReturn;
 1524              		.loc 1 1038 2
1039:lib/freertos/src/timers.c **** 
1040:lib/freertos/src/timers.c **** 		/* Complete the message with the function parameters and post it to the
1041:lib/freertos/src/timers.c **** 		daemon task. */
1042:lib/freertos/src/timers.c **** 		xMessage.xMessageID = tmrCOMMAND_EXECUTE_CALLBACK_FROM_ISR;
 1525              		.loc 1 1042 3
1036:lib/freertos/src/timers.c **** 	DaemonTaskMessage_t xMessage;
 1526              		.loc 1 1036 2 is_stmt 0
 1527 0000 0111     		addi	sp,sp,-32
 1528              	.LCFI22:
 1529              		.cfi_def_cfa_offset 32
 1530 0002 B687     		mv	a5,a3
1043:lib/freertos/src/timers.c **** 		xMessage.u.xCallbackParameters.pxCallbackFunction = xFunctionToPend;
1044:lib/freertos/src/timers.c **** 		xMessage.u.xCallbackParameters.pvParameter1 = pvParameter1;
1045:lib/freertos/src/timers.c **** 		xMessage.u.xCallbackParameters.ulParameter2 = ulParameter2;
 1531              		.loc 1 1045 47
 1532 0004 32C6     		sw	a2,12(sp)
1046:lib/freertos/src/timers.c **** 
1047:lib/freertos/src/timers.c **** 		xReturn = xQueueSendFromISR( xTimerQueue, &xMessage, pxHigherPriorityTaskWoken );
 1533              		.loc 1 1047 13
 1534 0006 3E86     		mv	a2,a5
 1535              	.LVL140:
 1536 0008 B7070000 		lui	a5,%hi(.LANCHOR0)
1043:lib/freertos/src/timers.c **** 		xMessage.u.xCallbackParameters.pxCallbackFunction = xFunctionToPend;
 1537              		.loc 1 1043 53
 1538 000c 2AC2     		sw	a0,4(sp)
 1539              		.loc 1 1047 13
 1540 000e 03A50700 		lw	a0,%lo(.LANCHOR0)(a5)
 1541              	.LVL141:
1044:lib/freertos/src/timers.c **** 		xMessage.u.xCallbackParameters.ulParameter2 = ulParameter2;
 1542              		.loc 1 1044 47
 1543 0012 2EC4     		sw	a1,8(sp)
1042:lib/freertos/src/timers.c **** 		xMessage.u.xCallbackParameters.pxCallbackFunction = xFunctionToPend;
 1544              		.loc 1 1042 23
 1545 0014 7957     		li	a4,-2
 1546              		.loc 1 1047 13
GAS LISTING C:\Users\kasie\AppData\Local\Temp\cc3J3bHu.s 			page 54


 1547 0016 8A85     		mv	a1,sp
 1548              	.LVL142:
 1549 0018 8146     		li	a3,0
 1550              	.LVL143:
1036:lib/freertos/src/timers.c **** 	DaemonTaskMessage_t xMessage;
 1551              		.loc 1 1036 2
 1552 001a 06CE     		sw	ra,28(sp)
 1553              		.cfi_offset 1, -4
1042:lib/freertos/src/timers.c **** 		xMessage.u.xCallbackParameters.pxCallbackFunction = xFunctionToPend;
 1554              		.loc 1 1042 23
 1555 001c 3AC0     		sw	a4,0(sp)
1043:lib/freertos/src/timers.c **** 		xMessage.u.xCallbackParameters.pvParameter1 = pvParameter1;
 1556              		.loc 1 1043 3 is_stmt 1
1044:lib/freertos/src/timers.c **** 		xMessage.u.xCallbackParameters.ulParameter2 = ulParameter2;
 1557              		.loc 1 1044 3
1045:lib/freertos/src/timers.c **** 
 1558              		.loc 1 1045 3
 1559              		.loc 1 1047 3
 1560              		.loc 1 1047 13 is_stmt 0
 1561 001e 97000000 		call	xQueueGenericSendFromISR
 1561      E7800000 
 1562              	.LVL144:
1048:lib/freertos/src/timers.c **** 
1049:lib/freertos/src/timers.c **** 		tracePEND_FUNC_CALL_FROM_ISR( xFunctionToPend, pvParameter1, ulParameter2, xReturn );
 1563              		.loc 1 1049 87 is_stmt 1
1050:lib/freertos/src/timers.c **** 
1051:lib/freertos/src/timers.c **** 		return xReturn;
 1564              		.loc 1 1051 3
1052:lib/freertos/src/timers.c **** 	}
 1565              		.loc 1 1052 2 is_stmt 0
 1566 0026 F240     		lw	ra,28(sp)
 1567              		.cfi_restore 1
 1568 0028 0561     		addi	sp,sp,32
 1569              	.LCFI23:
 1570              		.cfi_def_cfa_offset 0
 1571 002a 8280     		jr	ra
 1572              		.cfi_endproc
 1573              	.LFE22:
 1575              		.section	.text.xTimerPendFunctionCall,"ax",@progbits
 1576              		.align	1
 1577              		.globl	xTimerPendFunctionCall
 1579              	xTimerPendFunctionCall:
 1580              	.LFB23:
1053:lib/freertos/src/timers.c **** 
1054:lib/freertos/src/timers.c **** #endif /* INCLUDE_xTimerPendFunctionCall */
1055:lib/freertos/src/timers.c **** /*-----------------------------------------------------------*/
1056:lib/freertos/src/timers.c **** 
1057:lib/freertos/src/timers.c **** #if( INCLUDE_xTimerPendFunctionCall == 1 )
1058:lib/freertos/src/timers.c **** 
1059:lib/freertos/src/timers.c **** 	BaseType_t xTimerPendFunctionCall( PendedFunction_t xFunctionToPend, void *pvParameter1, uint32_t 
1060:lib/freertos/src/timers.c **** 	{
 1581              		.loc 1 1060 2 is_stmt 1
 1582              		.cfi_startproc
 1583              	.LVL145:
1061:lib/freertos/src/timers.c **** 	DaemonTaskMessage_t xMessage;
 1584              		.loc 1 1061 2
1062:lib/freertos/src/timers.c **** 	BaseType_t xReturn;
GAS LISTING C:\Users\kasie\AppData\Local\Temp\cc3J3bHu.s 			page 55


 1585              		.loc 1 1062 2
1063:lib/freertos/src/timers.c **** 
1064:lib/freertos/src/timers.c **** 		/* This function can only be called after a timer has been created or
1065:lib/freertos/src/timers.c **** 		after the scheduler has been started because, until then, the timer
1066:lib/freertos/src/timers.c **** 		queue does not exist. */
1067:lib/freertos/src/timers.c **** 		configASSERT( xTimerQueue );
 1586              		.loc 1 1067 3
 1587 0000 B7070000 		lui	a5,%hi(.LANCHOR0)
 1588 0004 03A80700 		lw	a6,%lo(.LANCHOR0)(a5)
 1589 0008 63150800 		bne	a6,zero,.L116
 1590              		.loc 1 1067 3 discriminator 3
 1591              	.LBB68:
 1592              		.loc 1 1067 3 discriminator 3
 1593              		.loc 1 1067 3 discriminator 3
 1594              		.loc 1 1067 3 discriminator 3
 1595              	 #APP
 1596              	# 1067 "lib/freertos/src/timers.c" 1
 1068              	
 1597              		csrrc a5, mstatus, 8
 1598              	# 0 "" 2
 1599              	.LVL146:
1067:lib/freertos/src/timers.c **** 		configASSERT( xTimerQueue );
 1600              		.loc 1 1067 3 discriminator 3
 1601              	 #NO_APP
 1602              	.L117:
 1603              	.LBE68:
1067:lib/freertos/src/timers.c **** 		configASSERT( xTimerQueue );
 1604              		.loc 1 1067 3 discriminator 1
1067:lib/freertos/src/timers.c **** 		configASSERT( xTimerQueue );
 1605              		.loc 1 1067 3 discriminator 1
1067:lib/freertos/src/timers.c **** 		configASSERT( xTimerQueue );
 1606              		.loc 1 1067 3 discriminator 1
 1607 0010 01A0     		j	.L117
 1608              	.L116:
1060:lib/freertos/src/timers.c **** 	DaemonTaskMessage_t xMessage;
 1609              		.loc 1 1060 2 is_stmt 0 discriminator 2
 1610 0012 0111     		addi	sp,sp,-32
 1611              	.LCFI24:
 1612              		.cfi_def_cfa_offset 32
 1613 0014 B687     		mv	a5,a3
1067:lib/freertos/src/timers.c **** 
 1614              		.loc 1 1067 30 is_stmt 1 discriminator 2
1069:lib/freertos/src/timers.c **** 		/* Complete the message with the function parameters and post it to the
1070:lib/freertos/src/timers.c **** 		daemon task. */
1071:lib/freertos/src/timers.c **** 		xMessage.xMessageID = tmrCOMMAND_EXECUTE_CALLBACK;
 1615              		.loc 1 1071 3 discriminator 2
 1616              		.loc 1 1071 23 is_stmt 0 discriminator 2
 1617 0016 FD56     		li	a3,-1
 1618              	.LVL147:
 1619 0018 36C0     		sw	a3,0(sp)
1072:lib/freertos/src/timers.c **** 		xMessage.u.xCallbackParameters.pxCallbackFunction = xFunctionToPend;
 1620              		.loc 1 1072 3 is_stmt 1 discriminator 2
 1621              		.loc 1 1072 53 is_stmt 0 discriminator 2
 1622 001a 2AC2     		sw	a0,4(sp)
1073:lib/freertos/src/timers.c **** 		xMessage.u.xCallbackParameters.pvParameter1 = pvParameter1;
 1623              		.loc 1 1073 3 is_stmt 1 discriminator 2
 1624              		.loc 1 1073 47 is_stmt 0 discriminator 2
GAS LISTING C:\Users\kasie\AppData\Local\Temp\cc3J3bHu.s 			page 56


 1625 001c 2EC4     		sw	a1,8(sp)
1074:lib/freertos/src/timers.c **** 		xMessage.u.xCallbackParameters.ulParameter2 = ulParameter2;
 1626              		.loc 1 1074 3 is_stmt 1 discriminator 2
 1627              		.loc 1 1074 47 is_stmt 0 discriminator 2
 1628 001e 32C6     		sw	a2,12(sp)
1075:lib/freertos/src/timers.c **** 
1076:lib/freertos/src/timers.c **** 		xReturn = xQueueSendToBack( xTimerQueue, &xMessage, xTicksToWait );
 1629              		.loc 1 1076 3 is_stmt 1 discriminator 2
 1630              		.loc 1 1076 13 is_stmt 0 discriminator 2
 1631 0020 8A85     		mv	a1,sp
 1632              	.LVL148:
 1633 0022 8146     		li	a3,0
 1634 0024 3E86     		mv	a2,a5
 1635              	.LVL149:
 1636 0026 4285     		mv	a0,a6
 1637              	.LVL150:
1060:lib/freertos/src/timers.c **** 	DaemonTaskMessage_t xMessage;
 1638              		.loc 1 1060 2 discriminator 2
 1639 0028 06CE     		sw	ra,28(sp)
 1640              		.cfi_offset 1, -4
 1641              		.loc 1 1076 13 discriminator 2
 1642 002a 97000000 		call	xQueueGenericSend
 1642      E7800000 
 1643              	.LVL151:
1077:lib/freertos/src/timers.c **** 
1078:lib/freertos/src/timers.c **** 		tracePEND_FUNC_CALL( xFunctionToPend, pvParameter1, ulParameter2, xReturn );
 1644              		.loc 1 1078 78 is_stmt 1 discriminator 2
1079:lib/freertos/src/timers.c **** 
1080:lib/freertos/src/timers.c **** 		return xReturn;
 1645              		.loc 1 1080 3 discriminator 2
1081:lib/freertos/src/timers.c **** 	}
 1646              		.loc 1 1081 2 is_stmt 0 discriminator 2
 1647 0032 F240     		lw	ra,28(sp)
 1648              		.cfi_restore 1
 1649 0034 0561     		addi	sp,sp,32
 1650              	.LCFI25:
 1651              		.cfi_def_cfa_offset 0
 1652 0036 8280     		jr	ra
 1653              		.cfi_endproc
 1654              	.LFE23:
 1656              		.section	.bss.xActiveTimerList1,"aw",@nobits
 1657              		.align	2
 1658              		.set	.LANCHOR1,. + 0
 1661              	xActiveTimerList1:
 1662 0000 00000000 		.zero	20
 1662      00000000 
 1662      00000000 
 1662      00000000 
 1662      00000000 
 1663              		.section	.bss.xActiveTimerList2,"aw",@nobits
 1664              		.align	2
 1665              		.set	.LANCHOR2,. + 0
 1668              	xActiveTimerList2:
 1669 0000 00000000 		.zero	20
 1669      00000000 
 1669      00000000 
 1669      00000000 
GAS LISTING C:\Users\kasie\AppData\Local\Temp\cc3J3bHu.s 			page 57


 1669      00000000 
 1670              		.section	.rodata.prvCheckForValidListAndQueue.str1.4,"aMS",@progbits,1
 1671              		.align	2
 1672              	.LC0:
 1673 0000 546D7251 		.string	"TmrQ"
 1673      00
 1674              		.section	.rodata.xTimerCreateTimerTask.str1.4,"aMS",@progbits,1
 1675              		.align	2
 1676              	.LC1:
 1677 0000 546D7220 		.string	"Tmr Svc"
 1677      53766300 
 1678              		.section	.sbss.pxCurrentTimerList,"aw",@nobits
 1679              		.align	2
 1680              		.set	.LANCHOR3,. + 0
 1683              	pxCurrentTimerList:
 1684 0000 00000000 		.zero	4
 1685              		.section	.sbss.pxOverflowTimerList,"aw",@nobits
 1686              		.align	2
 1687              		.set	.LANCHOR4,. + 0
 1690              	pxOverflowTimerList:
 1691 0000 00000000 		.zero	4
 1692              		.section	.sbss.xLastTime.4717,"aw",@nobits
 1693              		.align	2
 1694              		.set	.LANCHOR6,. + 0
 1697              	xLastTime.4717:
 1698 0000 00000000 		.zero	4
 1699              		.section	.sbss.xTimerQueue,"aw",@nobits
 1700              		.align	2
 1701              		.set	.LANCHOR0,. + 0
 1704              	xTimerQueue:
 1705 0000 00000000 		.zero	4
 1706              		.section	.sbss.xTimerTaskHandle,"aw",@nobits
 1707              		.align	2
 1708              		.set	.LANCHOR5,. + 0
 1711              	xTimerTaskHandle:
 1712 0000 00000000 		.zero	4
 1713              		.text
 1714              	.Letext0:
 1715              		.file 2 "c:\\hukas\\code\\repositories\\kth-hi1025-operativsystem\\compiler\\lib\\gcc\\riscv64-unk
 1716              		.file 3 "c:\\hukas\\code\\repositories\\kth-hi1025-operativsystem\\compiler\\riscv64-unknown-elf\\
 1717              		.file 4 "c:\\hukas\\code\\repositories\\kth-hi1025-operativsystem\\compiler\\riscv64-unknown-elf\\
 1718              		.file 5 "c:\\hukas\\code\\repositories\\kth-hi1025-operativsystem\\compiler\\riscv64-unknown-elf\\
 1719              		.file 6 "c:\\hukas\\code\\repositories\\kth-hi1025-operativsystem\\compiler\\riscv64-unknown-elf\\
 1720              		.file 7 "c:\\hukas\\code\\repositories\\kth-hi1025-operativsystem\\compiler\\riscv64-unknown-elf\\
 1721              		.file 8 "c:\\hukas\\code\\repositories\\kth-hi1025-operativsystem\\compiler\\riscv64-unknown-elf\\
 1722              		.file 9 "./../../firmware/GD32VF103_standard_peripheral/system_gd32vf103.h"
 1723              		.file 10 "lib/freertos/include/portmacro.h"
 1724              		.file 11 "lib/freertos/include/list.h"
 1725              		.file 12 "lib/freertos/include/task.h"
 1726              		.file 13 "lib/freertos/include/queue.h"
 1727              		.file 14 "lib/freertos/include/timers.h"
 1728              		.file 15 "lib/freertos/include/portable.h"
GAS LISTING C:\Users\kasie\AppData\Local\Temp\cc3J3bHu.s 			page 58

